SF:/Users/mihaieremia/GitHub/rs-lending/liquidity_pool/src/contexts/base.rs
FN:27,_RNvMNtNtCsXXkoE2abMS_14liquidity_pool8contexts4baseINtB2_12StorageCachepE3newB6_
FN:48,_RNvXININtNtCsXXkoE2abMS_14liquidity_pool8contexts4bases_0pEINtB5_12StorageCachepENtNtNtCslGS7pEIChKc_4core3ops4drop4Drop4dropB9_
FNDA:0,_RNvMNtNtCsXXkoE2abMS_14liquidity_pool8contexts4baseINtB2_12StorageCachepE3newB6_
FNDA:0,_RNvXININtNtCsXXkoE2abMS_14liquidity_pool8contexts4bases_0pEINtB5_12StorageCachepENtNtNtCslGS7pEIChKc_4core3ops4drop4Drop4dropB9_
FNF:2
FNH:0
DA:27,0
DA:28,0
DA:29,0
DA:30,0
DA:31,0
DA:32,0
DA:33,0
DA:34,0
DA:35,0
DA:36,0
DA:37,0
DA:38,0
DA:39,0
DA:40,0
DA:41,0
DA:48,0
DA:49,0
DA:50,0
DA:51,0
DA:52,0
DA:53,0
DA:54,0
DA:55,0
DA:56,0
DA:57,0
DA:58,0
DA:59,0
BRF:0
BRH:0
LF:27
LH:0
end_of_record
SF:/Users/mihaieremia/GitHub/rs-lending/liquidity_pool/src/lib.rs
FN:40,_RNvYpNtCsXXkoE2abMS_14liquidity_pool13LiquidityPool4initB5_
FN:65,_RNvYpNtCsXXkoE2abMS_14liquidity_pool13LiquidityPool7upgradeB5_
FN:19,_RNvYpNtCsXXkoE2abMS_14liquidity_pool16EndpointWrappers9call_initB5_
FN:19,_RNvYpNtCsXXkoE2abMS_14liquidity_pool16EndpointWrappers12call_upgradeB5_
FN:19,_RNvYpNtCsXXkoE2abMS_14liquidity_pool16EndpointWrappers4callB5_
FN:19,_RNvYpNtCsXXkoE2abMS_14liquidity_pool16EndpointWrappers17callback_selectorB5_
FN:19,_RNvYpNtCsXXkoE2abMS_14liquidity_pool16EndpointWrappers8callbackB5_
FN:19,_RNvXs1_CsXXkoE2abMS_14liquidity_poolNtB5_11AbiProviderNtNtNtCs3OdWsgyxEo2_13multiversx_sc13contract_base21contract_abi_provider19ContractAbiProvider3abi
FN:19,_RNvXINICsXXkoE2abMS_14liquidity_poolsl_0pEINtB5_11ContractObjpENtNtNtCs3OdWsgyxEo2_13multiversx_sc13contract_base17callable_contract16CallableContract4callB5_
FN:19,_RINvCsXXkoE2abMS_14liquidity_pool12contract_objpEB2_
FN:19,_RINvXsm_CsXXkoE2abMS_14liquidity_poolNtB6_15ContractBuilderNtNtNtCs3OdWsgyxEo2_13multiversx_sc13contract_base17callable_contract23CallableContractBuilder16new_contract_objpEB6_
FN:19,_RINvNtCsXXkoE2abMS_14liquidity_pool19___wasm__endpoints__4initpEB4_
FN:19,_RINvNtCsXXkoE2abMS_14liquidity_pool19___wasm__endpoints__7upgradepEB4_
FN:19,_RINvNtCsXXkoE2abMS_14liquidity_pool19___wasm__endpoints__8callBackpEB4_
FN:19,_RINvYpNtCsXXkoE2abMS_14liquidity_pool10ProxyTrait4initpppppppEB6_
FN:19,_RINvYpNtCsXXkoE2abMS_14liquidity_pool10ProxyTrait7upgradeppppppEB6_
FN:19,_RNvXINICsXXkoE2abMS_14liquidity_poolsn_0pEINtB5_5ProxypENtNtNtCs3OdWsgyxEo2_13multiversx_sc13contract_base14proxy_obj_base12ProxyObjBase19extract_opt_addressB5_
FN:19,_RNvXINICsXXkoE2abMS_14liquidity_poolsn_0pEINtB5_5ProxypENtNtNtCs3OdWsgyxEo2_13multiversx_sc13contract_base14proxy_obj_base12ProxyObjBase16extract_proxy_toB5_
FN:19,_RNvXINICsXXkoE2abMS_14liquidity_poolso_0pEINtB5_5ProxypENtNtNtCs3OdWsgyxEo2_13multiversx_sc13contract_base14proxy_obj_base11ProxyObjNew13new_proxy_objB5_
FN:19,_RNvXINICsXXkoE2abMS_14liquidity_poolso_0pEINtB5_5ProxypENtNtNtCs3OdWsgyxEo2_13multiversx_sc13contract_base14proxy_obj_base11ProxyObjNew8contractB5_
FN:19,_RNvXINICsXXkoE2abMS_14liquidity_poolsp_0pEINtB5_7ProxyTopENtNtNtCs3OdWsgyxEo2_13multiversx_sc13contract_base14proxy_obj_base12ProxyObjBase19extract_opt_addressB5_
FN:19,_RNvXINICsXXkoE2abMS_14liquidity_poolsp_0pEINtB5_7ProxyTopENtNtNtCs3OdWsgyxEo2_13multiversx_sc13contract_base14proxy_obj_base12ProxyObjBase15extract_addressB5_
FN:19,_RNvXINICsXXkoE2abMS_14liquidity_poolsp_0pEINtB5_7ProxyTopENtNtNtCs3OdWsgyxEo2_13multiversx_sc13contract_base14proxy_obj_base12ProxyObjBase16extract_proxy_toB5_
FNDA:0,_RNvYpNtCsXXkoE2abMS_14liquidity_pool13LiquidityPool4initB5_
FNDA:0,_RNvYpNtCsXXkoE2abMS_14liquidity_pool13LiquidityPool7upgradeB5_
FNDA:0,_RNvYpNtCsXXkoE2abMS_14liquidity_pool16EndpointWrappers9call_initB5_
FNDA:0,_RNvYpNtCsXXkoE2abMS_14liquidity_pool16EndpointWrappers12call_upgradeB5_
FNDA:0,_RNvYpNtCsXXkoE2abMS_14liquidity_pool16EndpointWrappers4callB5_
FNDA:0,_RNvYpNtCsXXkoE2abMS_14liquidity_pool16EndpointWrappers17callback_selectorB5_
FNDA:0,_RNvYpNtCsXXkoE2abMS_14liquidity_pool16EndpointWrappers8callbackB5_
FNDA:0,_RNvXs1_CsXXkoE2abMS_14liquidity_poolNtB5_11AbiProviderNtNtNtCs3OdWsgyxEo2_13multiversx_sc13contract_base21contract_abi_provider19ContractAbiProvider3abi
FNDA:0,_RNvXINICsXXkoE2abMS_14liquidity_poolsl_0pEINtB5_11ContractObjpENtNtNtCs3OdWsgyxEo2_13multiversx_sc13contract_base17callable_contract16CallableContract4callB5_
FNDA:0,_RINvCsXXkoE2abMS_14liquidity_pool12contract_objpEB2_
FNDA:0,_RINvXsm_CsXXkoE2abMS_14liquidity_poolNtB6_15ContractBuilderNtNtNtCs3OdWsgyxEo2_13multiversx_sc13contract_base17callable_contract23CallableContractBuilder16new_contract_objpEB6_
FNDA:0,_RINvNtCsXXkoE2abMS_14liquidity_pool19___wasm__endpoints__4initpEB4_
FNDA:0,_RINvNtCsXXkoE2abMS_14liquidity_pool19___wasm__endpoints__7upgradepEB4_
FNDA:0,_RINvNtCsXXkoE2abMS_14liquidity_pool19___wasm__endpoints__8callBackpEB4_
FNDA:0,_RINvYpNtCsXXkoE2abMS_14liquidity_pool10ProxyTrait4initpppppppEB6_
FNDA:0,_RINvYpNtCsXXkoE2abMS_14liquidity_pool10ProxyTrait7upgradeppppppEB6_
FNDA:0,_RNvXINICsXXkoE2abMS_14liquidity_poolsn_0pEINtB5_5ProxypENtNtNtCs3OdWsgyxEo2_13multiversx_sc13contract_base14proxy_obj_base12ProxyObjBase19extract_opt_addressB5_
FNDA:0,_RNvXINICsXXkoE2abMS_14liquidity_poolsn_0pEINtB5_5ProxypENtNtNtCs3OdWsgyxEo2_13multiversx_sc13contract_base14proxy_obj_base12ProxyObjBase16extract_proxy_toB5_
FNDA:0,_RNvXINICsXXkoE2abMS_14liquidity_poolso_0pEINtB5_5ProxypENtNtNtCs3OdWsgyxEo2_13multiversx_sc13contract_base14proxy_obj_base11ProxyObjNew13new_proxy_objB5_
FNDA:0,_RNvXINICsXXkoE2abMS_14liquidity_poolso_0pEINtB5_5ProxypENtNtNtCs3OdWsgyxEo2_13multiversx_sc13contract_base14proxy_obj_base11ProxyObjNew8contractB5_
FNDA:0,_RNvXINICsXXkoE2abMS_14liquidity_poolsp_0pEINtB5_7ProxyTopENtNtNtCs3OdWsgyxEo2_13multiversx_sc13contract_base14proxy_obj_base12ProxyObjBase19extract_opt_addressB5_
FNDA:0,_RNvXINICsXXkoE2abMS_14liquidity_poolsp_0pEINtB5_7ProxyTopENtNtNtCs3OdWsgyxEo2_13multiversx_sc13contract_base14proxy_obj_base12ProxyObjBase15extract_addressB5_
FNDA:0,_RNvXINICsXXkoE2abMS_14liquidity_poolsp_0pEINtB5_7ProxyTopENtNtNtCs3OdWsgyxEo2_13multiversx_sc13contract_base14proxy_obj_base12ProxyObjBase16extract_proxy_toB5_
FNF:3
FNH:0
DA:19,0
DA:40,0
DA:41,0
DA:42,0
DA:43,0
DA:44,0
DA:45,0
DA:46,0
DA:47,0
DA:48,0
DA:49,0
DA:50,0
DA:51,0
DA:52,0
DA:53,0
DA:65,0
DA:66,0
DA:67,0
DA:68,0
DA:69,0
DA:70,0
DA:71,0
DA:72,0
DA:73,0
DA:74,0
DA:75,0
DA:76,0
DA:77,0
DA:78,0
DA:79,0
DA:80,0
DA:81,0
DA:82,0
DA:83,0
BRF:0
BRH:0
LF:34
LH:0
end_of_record
SF:/Users/mihaieremia/GitHub/rs-lending/liquidity_pool/src/liq_math.rs
FN:16,_RNvYpNtNtCsXXkoE2abMS_14liquidity_pool8liq_math10MathModule19compute_borrow_rateB7_
FN:40,_RNvYpNtNtCsXXkoE2abMS_14liquidity_pool8liq_math10MathModule20compute_deposit_rateB7_
FN:50,_RNvYpNtNtCsXXkoE2abMS_14liquidity_pool8liq_math10MathModule27compute_capital_utilisationB7_
FN:64,_RNvYpNtNtCsXXkoE2abMS_14liquidity_pool8liq_math10MathModule16compute_interestB7_
FN:6,_RNvYpNtNtCsXXkoE2abMS_14liquidity_pool8liq_math16EndpointWrappers4callB7_
FN:6,_RNvYpNtNtCsXXkoE2abMS_14liquidity_pool8liq_math16EndpointWrappers17callback_selectorB7_
FN:6,_RNvYpNtNtCsXXkoE2abMS_14liquidity_pool8liq_math16EndpointWrappers8callbackB7_
FN:6,_RNvXs1_NtCsXXkoE2abMS_14liquidity_pool8liq_mathNtB5_11AbiProviderNtNtNtCs3OdWsgyxEo2_13multiversx_sc13contract_base21contract_abi_provider19ContractAbiProvider3abi
FN:6,_RNvXININtCsXXkoE2abMS_14liquidity_pool8liq_maths5_0pEINtB5_11ContractObjpENtNtNtCs3OdWsgyxEo2_13multiversx_sc13contract_base17callable_contract16CallableContract4callB7_
FN:6,_RINvNtCsXXkoE2abMS_14liquidity_pool8liq_math12contract_objpEB4_
FN:6,_RINvXs6_NtCsXXkoE2abMS_14liquidity_pool8liq_mathNtB6_15ContractBuilderNtNtNtCs3OdWsgyxEo2_13multiversx_sc13contract_base17callable_contract23CallableContractBuilder16new_contract_objpEB8_
FNDA:0,_RNvYpNtNtCsXXkoE2abMS_14liquidity_pool8liq_math10MathModule19compute_borrow_rateB7_
FNDA:0,_RNvYpNtNtCsXXkoE2abMS_14liquidity_pool8liq_math10MathModule20compute_deposit_rateB7_
FNDA:0,_RNvYpNtNtCsXXkoE2abMS_14liquidity_pool8liq_math10MathModule27compute_capital_utilisationB7_
FNDA:0,_RNvYpNtNtCsXXkoE2abMS_14liquidity_pool8liq_math10MathModule16compute_interestB7_
FNDA:0,_RNvYpNtNtCsXXkoE2abMS_14liquidity_pool8liq_math16EndpointWrappers4callB7_
FNDA:0,_RNvYpNtNtCsXXkoE2abMS_14liquidity_pool8liq_math16EndpointWrappers17callback_selectorB7_
FNDA:0,_RNvYpNtNtCsXXkoE2abMS_14liquidity_pool8liq_math16EndpointWrappers8callbackB7_
FNDA:0,_RNvXs1_NtCsXXkoE2abMS_14liquidity_pool8liq_mathNtB5_11AbiProviderNtNtNtCs3OdWsgyxEo2_13multiversx_sc13contract_base21contract_abi_provider19ContractAbiProvider3abi
FNDA:0,_RNvXININtCsXXkoE2abMS_14liquidity_pool8liq_maths5_0pEINtB5_11ContractObjpENtNtNtCs3OdWsgyxEo2_13multiversx_sc13contract_base17callable_contract16CallableContract4callB7_
FNDA:0,_RINvNtCsXXkoE2abMS_14liquidity_pool8liq_math12contract_objpEB4_
FNDA:0,_RINvXs6_NtCsXXkoE2abMS_14liquidity_pool8liq_mathNtB6_15ContractBuilderNtNtNtCs3OdWsgyxEo2_13multiversx_sc13contract_base17callable_contract23CallableContractBuilder16new_contract_objpEB8_
FNF:5
FNH:0
DA:6,0
DA:16,0
DA:17,0
DA:18,0
DA:19,0
DA:20,0
DA:21,0
DA:23,0
DA:24,0
DA:25,0
DA:26,0
DA:27,0
DA:28,0
DA:30,0
DA:40,0
DA:41,0
DA:42,0
DA:43,0
DA:50,0
DA:51,0
DA:52,0
DA:53,0
DA:55,0
DA:64,0
DA:65,0
DA:66,0
BRF:0
BRH:0
LF:26
LH:0
end_of_record
SF:/Users/mihaieremia/GitHub/rs-lending/liquidity_pool/src/liq_storage.rs
FN:6,_RNvXININtCsXXkoE2abMS_14liquidity_pool11liq_storage0pEpNtB5_13StorageModule10pool_assetB7_
FN:6,_RNvXININtCsXXkoE2abMS_14liquidity_pool11liq_storage0pEpNtB5_13StorageModule8reservesB7_
FN:6,_RNvXININtCsXXkoE2abMS_14liquidity_pool11liq_storage0pEpNtB5_13StorageModule15supplied_amountB7_
FN:6,_RNvXININtCsXXkoE2abMS_14liquidity_pool11liq_storage0pEpNtB5_13StorageModule16rewards_reservesB7_
FN:6,_RNvXININtCsXXkoE2abMS_14liquidity_pool11liq_storage0pEpNtB5_13StorageModule15borrowed_amountB7_
FN:6,_RNvXININtCsXXkoE2abMS_14liquidity_pool11liq_storage0pEpNtB5_13StorageModule11pool_paramsB7_
FN:6,_RNvXININtCsXXkoE2abMS_14liquidity_pool11liq_storage0pEpNtB5_13StorageModule12borrow_indexB7_
FN:6,_RNvXININtCsXXkoE2abMS_14liquidity_pool11liq_storage0pEpNtB5_13StorageModule12supply_indexB7_
FN:6,_RNvXININtCsXXkoE2abMS_14liquidity_pool11liq_storage0pEpNtB5_13StorageModule34last_update_timestampB7_
FN:6,_RNvYpNtNtCsXXkoE2abMS_14liquidity_pool11liq_storage16EndpointWrappers15call_pool_assetB7_
FN:6,_RNvYpNtNtCsXXkoE2abMS_14liquidity_pool11liq_storage16EndpointWrappers13call_reservesB7_
FN:6,_RNvYpNtNtCsXXkoE2abMS_14liquidity_pool11liq_storage16EndpointWrappers20call_supplied_amountB7_
FN:6,_RNvYpNtNtCsXXkoE2abMS_14liquidity_pool11liq_storage16EndpointWrappers21call_rewards_reservesB7_
FN:6,_RNvYpNtNtCsXXkoE2abMS_14liquidity_pool11liq_storage16EndpointWrappers20call_borrowed_amountB7_
FN:6,_RNvYpNtNtCsXXkoE2abMS_14liquidity_pool11liq_storage16EndpointWrappers16call_pool_paramsB7_
FN:6,_RNvYpNtNtCsXXkoE2abMS_14liquidity_pool11liq_storage16EndpointWrappers17call_borrow_indexB7_
FN:6,_RNvYpNtNtCsXXkoE2abMS_14liquidity_pool11liq_storage16EndpointWrappers17call_supply_indexB7_
FN:6,_RNvYpNtNtCsXXkoE2abMS_14liquidity_pool11liq_storage16EndpointWrappers39call_last_update_timestampB7_
FN:6,_RNvYpNtNtCsXXkoE2abMS_14liquidity_pool11liq_storage16EndpointWrappers4callB7_
FN:6,_RNvYpNtNtCsXXkoE2abMS_14liquidity_pool11liq_storage16EndpointWrappers17callback_selectorB7_
FN:6,_RNvYpNtNtCsXXkoE2abMS_14liquidity_pool11liq_storage16EndpointWrappers8callbackB7_
FN:6,_RNvXs1_NtCsXXkoE2abMS_14liquidity_pool11liq_storageNtB5_11AbiProviderNtNtNtCs3OdWsgyxEo2_13multiversx_sc13contract_base21contract_abi_provider19ContractAbiProvider3abi
FN:6,_RNvXININtCsXXkoE2abMS_14liquidity_pool11liq_storages5_0pEINtB5_11ContractObjpENtNtNtCs3OdWsgyxEo2_13multiversx_sc13contract_base17callable_contract16CallableContract4callB7_
FN:6,_RINvNtCsXXkoE2abMS_14liquidity_pool11liq_storage12contract_objpEB4_
FN:6,_RINvXs6_NtCsXXkoE2abMS_14liquidity_pool11liq_storageNtB6_15ContractBuilderNtNtNtCs3OdWsgyxEo2_13multiversx_sc13contract_base17callable_contract23CallableContractBuilder16new_contract_objpEB8_
FN:6,_RINvNtNtCsXXkoE2abMS_14liquidity_pool11liq_storage19___wasm__endpoints__10pool_assetpEB6_
FN:6,_RINvNtNtCsXXkoE2abMS_14liquidity_pool11liq_storage19___wasm__endpoints__8reservespEB6_
FN:6,_RINvNtNtCsXXkoE2abMS_14liquidity_pool11liq_storage19___wasm__endpoints__15supplied_amountpEB6_
FN:6,_RINvNtNtCsXXkoE2abMS_14liquidity_pool11liq_storage19___wasm__endpoints__16rewards_reservespEB6_
FN:6,_RINvNtNtCsXXkoE2abMS_14liquidity_pool11liq_storage19___wasm__endpoints__15borrowed_amountpEB6_
FN:6,_RINvNtNtCsXXkoE2abMS_14liquidity_pool11liq_storage19___wasm__endpoints__11pool_paramspEB6_
FN:6,_RINvNtNtCsXXkoE2abMS_14liquidity_pool11liq_storage19___wasm__endpoints__12borrow_indexpEB6_
FN:6,_RINvNtNtCsXXkoE2abMS_14liquidity_pool11liq_storage19___wasm__endpoints__12supply_indexpEB6_
FN:6,_RINvNtNtCsXXkoE2abMS_14liquidity_pool11liq_storage19___wasm__endpoints__34last_update_timestamppEB6_
FN:6,_RNvYpNtNtCsXXkoE2abMS_14liquidity_pool11liq_storage10ProxyTrait10pool_assetB7_
FN:6,_RNvYpNtNtCsXXkoE2abMS_14liquidity_pool11liq_storage10ProxyTrait8reservesB7_
FN:6,_RNvYpNtNtCsXXkoE2abMS_14liquidity_pool11liq_storage10ProxyTrait15supplied_amountB7_
FN:6,_RNvYpNtNtCsXXkoE2abMS_14liquidity_pool11liq_storage10ProxyTrait16rewards_reservesB7_
FN:6,_RNvYpNtNtCsXXkoE2abMS_14liquidity_pool11liq_storage10ProxyTrait15borrowed_amountB7_
FN:6,_RNvYpNtNtCsXXkoE2abMS_14liquidity_pool11liq_storage10ProxyTrait11pool_paramsB7_
FN:6,_RNvYpNtNtCsXXkoE2abMS_14liquidity_pool11liq_storage10ProxyTrait12borrow_indexB7_
FN:6,_RNvYpNtNtCsXXkoE2abMS_14liquidity_pool11liq_storage10ProxyTrait12supply_indexB7_
FN:6,_RNvYpNtNtCsXXkoE2abMS_14liquidity_pool11liq_storage10ProxyTrait34last_update_timestampB7_
FNDA:0,_RNvXININtCsXXkoE2abMS_14liquidity_pool11liq_storage0pEpNtB5_13StorageModule10pool_assetB7_
FNDA:0,_RNvXININtCsXXkoE2abMS_14liquidity_pool11liq_storage0pEpNtB5_13StorageModule8reservesB7_
FNDA:0,_RNvXININtCsXXkoE2abMS_14liquidity_pool11liq_storage0pEpNtB5_13StorageModule15supplied_amountB7_
FNDA:0,_RNvXININtCsXXkoE2abMS_14liquidity_pool11liq_storage0pEpNtB5_13StorageModule16rewards_reservesB7_
FNDA:0,_RNvXININtCsXXkoE2abMS_14liquidity_pool11liq_storage0pEpNtB5_13StorageModule15borrowed_amountB7_
FNDA:0,_RNvXININtCsXXkoE2abMS_14liquidity_pool11liq_storage0pEpNtB5_13StorageModule11pool_paramsB7_
FNDA:0,_RNvXININtCsXXkoE2abMS_14liquidity_pool11liq_storage0pEpNtB5_13StorageModule12borrow_indexB7_
FNDA:0,_RNvXININtCsXXkoE2abMS_14liquidity_pool11liq_storage0pEpNtB5_13StorageModule12supply_indexB7_
FNDA:0,_RNvXININtCsXXkoE2abMS_14liquidity_pool11liq_storage0pEpNtB5_13StorageModule34last_update_timestampB7_
FNDA:0,_RNvYpNtNtCsXXkoE2abMS_14liquidity_pool11liq_storage16EndpointWrappers15call_pool_assetB7_
FNDA:0,_RNvYpNtNtCsXXkoE2abMS_14liquidity_pool11liq_storage16EndpointWrappers13call_reservesB7_
FNDA:0,_RNvYpNtNtCsXXkoE2abMS_14liquidity_pool11liq_storage16EndpointWrappers20call_supplied_amountB7_
FNDA:0,_RNvYpNtNtCsXXkoE2abMS_14liquidity_pool11liq_storage16EndpointWrappers21call_rewards_reservesB7_
FNDA:0,_RNvYpNtNtCsXXkoE2abMS_14liquidity_pool11liq_storage16EndpointWrappers20call_borrowed_amountB7_
FNDA:0,_RNvYpNtNtCsXXkoE2abMS_14liquidity_pool11liq_storage16EndpointWrappers16call_pool_paramsB7_
FNDA:0,_RNvYpNtNtCsXXkoE2abMS_14liquidity_pool11liq_storage16EndpointWrappers17call_borrow_indexB7_
FNDA:0,_RNvYpNtNtCsXXkoE2abMS_14liquidity_pool11liq_storage16EndpointWrappers17call_supply_indexB7_
FNDA:0,_RNvYpNtNtCsXXkoE2abMS_14liquidity_pool11liq_storage16EndpointWrappers39call_last_update_timestampB7_
FNDA:0,_RNvYpNtNtCsXXkoE2abMS_14liquidity_pool11liq_storage16EndpointWrappers4callB7_
FNDA:0,_RNvYpNtNtCsXXkoE2abMS_14liquidity_pool11liq_storage16EndpointWrappers17callback_selectorB7_
FNDA:0,_RNvYpNtNtCsXXkoE2abMS_14liquidity_pool11liq_storage16EndpointWrappers8callbackB7_
FNDA:0,_RNvXs1_NtCsXXkoE2abMS_14liquidity_pool11liq_storageNtB5_11AbiProviderNtNtNtCs3OdWsgyxEo2_13multiversx_sc13contract_base21contract_abi_provider19ContractAbiProvider3abi
FNDA:0,_RNvXININtCsXXkoE2abMS_14liquidity_pool11liq_storages5_0pEINtB5_11ContractObjpENtNtNtCs3OdWsgyxEo2_13multiversx_sc13contract_base17callable_contract16CallableContract4callB7_
FNDA:0,_RINvNtCsXXkoE2abMS_14liquidity_pool11liq_storage12contract_objpEB4_
FNDA:0,_RINvXs6_NtCsXXkoE2abMS_14liquidity_pool11liq_storageNtB6_15ContractBuilderNtNtNtCs3OdWsgyxEo2_13multiversx_sc13contract_base17callable_contract23CallableContractBuilder16new_contract_objpEB8_
FNDA:0,_RINvNtNtCsXXkoE2abMS_14liquidity_pool11liq_storage19___wasm__endpoints__10pool_assetpEB6_
FNDA:0,_RINvNtNtCsXXkoE2abMS_14liquidity_pool11liq_storage19___wasm__endpoints__8reservespEB6_
FNDA:0,_RINvNtNtCsXXkoE2abMS_14liquidity_pool11liq_storage19___wasm__endpoints__15supplied_amountpEB6_
FNDA:0,_RINvNtNtCsXXkoE2abMS_14liquidity_pool11liq_storage19___wasm__endpoints__16rewards_reservespEB6_
FNDA:0,_RINvNtNtCsXXkoE2abMS_14liquidity_pool11liq_storage19___wasm__endpoints__15borrowed_amountpEB6_
FNDA:0,_RINvNtNtCsXXkoE2abMS_14liquidity_pool11liq_storage19___wasm__endpoints__11pool_paramspEB6_
FNDA:0,_RINvNtNtCsXXkoE2abMS_14liquidity_pool11liq_storage19___wasm__endpoints__12borrow_indexpEB6_
FNDA:0,_RINvNtNtCsXXkoE2abMS_14liquidity_pool11liq_storage19___wasm__endpoints__12supply_indexpEB6_
FNDA:0,_RINvNtNtCsXXkoE2abMS_14liquidity_pool11liq_storage19___wasm__endpoints__34last_update_timestamppEB6_
FNDA:0,_RNvYpNtNtCsXXkoE2abMS_14liquidity_pool11liq_storage10ProxyTrait10pool_assetB7_
FNDA:0,_RNvYpNtNtCsXXkoE2abMS_14liquidity_pool11liq_storage10ProxyTrait8reservesB7_
FNDA:0,_RNvYpNtNtCsXXkoE2abMS_14liquidity_pool11liq_storage10ProxyTrait15supplied_amountB7_
FNDA:0,_RNvYpNtNtCsXXkoE2abMS_14liquidity_pool11liq_storage10ProxyTrait16rewards_reservesB7_
FNDA:0,_RNvYpNtNtCsXXkoE2abMS_14liquidity_pool11liq_storage10ProxyTrait15borrowed_amountB7_
FNDA:0,_RNvYpNtNtCsXXkoE2abMS_14liquidity_pool11liq_storage10ProxyTrait11pool_paramsB7_
FNDA:0,_RNvYpNtNtCsXXkoE2abMS_14liquidity_pool11liq_storage10ProxyTrait12borrow_indexB7_
FNDA:0,_RNvYpNtNtCsXXkoE2abMS_14liquidity_pool11liq_storage10ProxyTrait12supply_indexB7_
FNDA:0,_RNvYpNtNtCsXXkoE2abMS_14liquidity_pool11liq_storage10ProxyTrait34last_update_timestampB7_
FNF:1
FNH:0
DA:6,0
BRF:0
BRH:0
LF:1
LH:0
end_of_record
SF:/Users/mihaieremia/GitHub/rs-lending/liquidity_pool/src/liq_utils.rs
FN:12,_RNvYpNtNtCsXXkoE2abMS_14liquidity_pool9liq_utils11UtilsModule25calculate_interest_factorB7_
FN:40,_RNvYpNtNtCsXXkoE2abMS_14liquidity_pool9liq_utils11UtilsModule19update_borrow_indexB7_
FN:51,_RNvYpNtNtCsXXkoE2abMS_14liquidity_pool9liq_utils11UtilsModule19update_supply_indexB7_
FN:68,_RNvYpNtNtCsXXkoE2abMS_14liquidity_pool9liq_utils11UtilsModule23update_rewards_reservesB7_
FN:87,_RNvYpNtNtCsXXkoE2abMS_14liquidity_pool9liq_utils11UtilsModule18get_timestamp_diffB7_
FN:91,_RNvYpNtNtCsXXkoE2abMS_14liquidity_pool9liq_utils11UtilsModule23update_interest_indexesB7_
FN:111,_RNvYpNtNtCsXXkoE2abMS_14liquidity_pool9liq_utils11UtilsModule40internal_update_collateral_with_interestB7_
FN:138,_RNvYpNtNtCsXXkoE2abMS_14liquidity_pool9liq_utils11UtilsModule33internal_update_borrows_with_debtB7_
FN:8,_RNvYpNtNtCsXXkoE2abMS_14liquidity_pool9liq_utils16EndpointWrappers4callB7_
FN:8,_RNvYpNtNtCsXXkoE2abMS_14liquidity_pool9liq_utils16EndpointWrappers17callback_selectorB7_
FN:8,_RNvYpNtNtCsXXkoE2abMS_14liquidity_pool9liq_utils16EndpointWrappers8callbackB7_
FN:8,_RNvXs1_NtCsXXkoE2abMS_14liquidity_pool9liq_utilsNtB5_11AbiProviderNtNtNtCs3OdWsgyxEo2_13multiversx_sc13contract_base21contract_abi_provider19ContractAbiProvider3abi
FN:8,_RNvXININtCsXXkoE2abMS_14liquidity_pool9liq_utilssd_0pEINtB5_11ContractObjpENtNtNtCs3OdWsgyxEo2_13multiversx_sc13contract_base17callable_contract16CallableContract4callB7_
FN:8,_RINvNtCsXXkoE2abMS_14liquidity_pool9liq_utils12contract_objpEB4_
FN:8,_RINvXse_NtCsXXkoE2abMS_14liquidity_pool9liq_utilsNtB6_15ContractBuilderNtNtNtCs3OdWsgyxEo2_13multiversx_sc13contract_base17callable_contract23CallableContractBuilder16new_contract_objpEB8_
FNDA:0,_RNvYpNtNtCsXXkoE2abMS_14liquidity_pool9liq_utils11UtilsModule25calculate_interest_factorB7_
FNDA:0,_RNvYpNtNtCsXXkoE2abMS_14liquidity_pool9liq_utils11UtilsModule19update_borrow_indexB7_
FNDA:0,_RNvYpNtNtCsXXkoE2abMS_14liquidity_pool9liq_utils11UtilsModule19update_supply_indexB7_
FNDA:0,_RNvYpNtNtCsXXkoE2abMS_14liquidity_pool9liq_utils11UtilsModule23update_rewards_reservesB7_
FNDA:0,_RNvYpNtNtCsXXkoE2abMS_14liquidity_pool9liq_utils11UtilsModule18get_timestamp_diffB7_
FNDA:0,_RNvYpNtNtCsXXkoE2abMS_14liquidity_pool9liq_utils11UtilsModule23update_interest_indexesB7_
FNDA:0,_RNvYpNtNtCsXXkoE2abMS_14liquidity_pool9liq_utils11UtilsModule40internal_update_collateral_with_interestB7_
FNDA:0,_RNvYpNtNtCsXXkoE2abMS_14liquidity_pool9liq_utils11UtilsModule33internal_update_borrows_with_debtB7_
FNDA:0,_RNvYpNtNtCsXXkoE2abMS_14liquidity_pool9liq_utils16EndpointWrappers4callB7_
FNDA:0,_RNvYpNtNtCsXXkoE2abMS_14liquidity_pool9liq_utils16EndpointWrappers17callback_selectorB7_
FNDA:0,_RNvYpNtNtCsXXkoE2abMS_14liquidity_pool9liq_utils16EndpointWrappers8callbackB7_
FNDA:0,_RNvXs1_NtCsXXkoE2abMS_14liquidity_pool9liq_utilsNtB5_11AbiProviderNtNtNtCs3OdWsgyxEo2_13multiversx_sc13contract_base21contract_abi_provider19ContractAbiProvider3abi
FNDA:0,_RNvXININtCsXXkoE2abMS_14liquidity_pool9liq_utilssd_0pEINtB5_11ContractObjpENtNtNtCs3OdWsgyxEo2_13multiversx_sc13contract_base17callable_contract16CallableContract4callB7_
FNDA:0,_RINvNtCsXXkoE2abMS_14liquidity_pool9liq_utils12contract_objpEB4_
FNDA:0,_RINvXse_NtCsXXkoE2abMS_14liquidity_pool9liq_utilsNtB6_15ContractBuilderNtNtNtCs3OdWsgyxEo2_13multiversx_sc13contract_base17callable_contract23CallableContractBuilder16new_contract_objpEB8_
FNF:9
FNH:0
DA:8,0
DA:12,0
DA:13,0
DA:14,0
DA:15,0
DA:16,0
DA:17,0
DA:18,0
DA:19,0
DA:20,0
DA:21,0
DA:22,0
DA:23,0
DA:24,0
DA:25,0
DA:26,0
DA:27,0
DA:28,0
DA:29,0
DA:30,0
DA:31,0
DA:32,0
DA:40,0
DA:41,0
DA:42,0
DA:43,0
DA:44,0
DA:51,0
DA:52,0
DA:53,0
DA:54,0
DA:55,0
DA:56,0
DA:57,0
DA:58,0
DA:59,0
DA:60,0
DA:68,0
DA:69,0
DA:70,0
DA:71,0
DA:72,0
DA:73,0
DA:74,0
DA:75,0
DA:76,0
DA:77,0
DA:78,0
DA:79,0
DA:80,0
DA:81,0
DA:82,0
DA:83,0
DA:84,0
DA:87,0
DA:88,0
DA:91,0
DA:92,0
DA:93,0
DA:94,0
DA:95,0
DA:96,0
DA:97,0
DA:98,0
DA:99,0
DA:100,0
DA:101,0
DA:102,0
DA:103,0
DA:104,0
DA:111,0
DA:112,0
DA:113,0
DA:114,0
DA:115,0
DA:116,0
DA:117,0
DA:118,0
DA:119,0
DA:120,0
DA:121,0
DA:122,0
DA:123,0
DA:124,0
DA:125,0
DA:126,0
DA:127,0
DA:128,0
DA:129,0
DA:130,0
DA:131,0
DA:138,0
DA:139,0
DA:140,0
DA:141,0
DA:142,0
DA:143,0
DA:144,0
DA:145,0
DA:146,0
DA:147,0
DA:148,0
DA:149,0
DA:150,0
DA:151,0
DA:152,0
DA:153,0
DA:154,0
DA:155,0
DA:156,0
DA:157,0
DA:158,0
BRF:0
BRH:0
LF:112
LH:0
end_of_record
SF:/Users/mihaieremia/GitHub/rs-lending/liquidity_pool/src/liquidity.rs
FN:24,_RNvYpNtNtCsXXkoE2abMS_14liquidity_pool9liquidity15LiquidityModule31update_collateral_with_interestB7_
FN:48,_RNvYpNtNtCsXXkoE2abMS_14liquidity_pool9liquidity15LiquidityModule24update_borrows_with_debtB7_
FN:67,_RNvYpNtNtCsXXkoE2abMS_14liquidity_pool9liquidity15LiquidityModule6supplyB7_
FN:114,_RNvYpNtNtCsXXkoE2abMS_14liquidity_pool9liquidity15LiquidityModule6borrowB7_
FN:173,_RNvYpNtNtCsXXkoE2abMS_14liquidity_pool9liquidity15LiquidityModule8withdrawB7_
FN:264,_RNvYpNtNtCsXXkoE2abMS_14liquidity_pool9liquidity15LiquidityModule5repayB7_
FN:336,_RNvYpNtNtCsXXkoE2abMS_14liquidity_pool9liquidity15LiquidityModule10flash_loanB7_
FN:9,_RNvYpNtNtCsXXkoE2abMS_14liquidity_pool9liquidity16EndpointWrappers36call_update_collateral_with_interestB7_
FN:9,_RNvYpNtNtCsXXkoE2abMS_14liquidity_pool9liquidity16EndpointWrappers29call_update_borrows_with_debtB7_
FN:9,_RNvYpNtNtCsXXkoE2abMS_14liquidity_pool9liquidity16EndpointWrappers11call_supplyB7_
FN:9,_RNvYpNtNtCsXXkoE2abMS_14liquidity_pool9liquidity16EndpointWrappers11call_borrowB7_
FN:9,_RNvYpNtNtCsXXkoE2abMS_14liquidity_pool9liquidity16EndpointWrappers13call_withdrawB7_
FN:9,_RNvYpNtNtCsXXkoE2abMS_14liquidity_pool9liquidity16EndpointWrappers10call_repayB7_
FN:9,_RNvYpNtNtCsXXkoE2abMS_14liquidity_pool9liquidity16EndpointWrappers15call_flash_loanB7_
FN:9,_RNvYpNtNtCsXXkoE2abMS_14liquidity_pool9liquidity16EndpointWrappers4callB7_
FN:9,_RNvYpNtNtCsXXkoE2abMS_14liquidity_pool9liquidity16EndpointWrappers17callback_selectorB7_
FN:9,_RNvYpNtNtCsXXkoE2abMS_14liquidity_pool9liquidity16EndpointWrappers8callbackB7_
FN:9,_RNvXs1_NtCsXXkoE2abMS_14liquidity_pool9liquidityNtB5_11AbiProviderNtNtNtCs3OdWsgyxEo2_13multiversx_sc13contract_base21contract_abi_provider19ContractAbiProvider3abi
FN:9,_RNvXININtCsXXkoE2abMS_14liquidity_pool9liquiditysj_0pEINtB5_11ContractObjpENtNtNtCs3OdWsgyxEo2_13multiversx_sc13contract_base17callable_contract16CallableContract4callB7_
FN:9,_RINvNtCsXXkoE2abMS_14liquidity_pool9liquidity12contract_objpEB4_
FN:9,_RINvXsk_NtCsXXkoE2abMS_14liquidity_pool9liquidityNtB6_15ContractBuilderNtNtNtCs3OdWsgyxEo2_13multiversx_sc13contract_base17callable_contract23CallableContractBuilder16new_contract_objpEB8_
FN:9,_RINvNtNtCsXXkoE2abMS_14liquidity_pool9liquidity19___wasm__endpoints__31update_collateral_with_interestpEB6_
FN:9,_RINvNtNtCsXXkoE2abMS_14liquidity_pool9liquidity19___wasm__endpoints__24update_borrows_with_debtpEB6_
FN:9,_RINvNtNtCsXXkoE2abMS_14liquidity_pool9liquidity19___wasm__endpoints__6supplypEB6_
FN:9,_RINvNtNtCsXXkoE2abMS_14liquidity_pool9liquidity19___wasm__endpoints__6borrowpEB6_
FN:9,_RINvNtNtCsXXkoE2abMS_14liquidity_pool9liquidity19___wasm__endpoints__8withdrawpEB6_
FN:9,_RINvNtNtCsXXkoE2abMS_14liquidity_pool9liquidity19___wasm__endpoints__5repaypEB6_
FN:9,_RINvNtNtCsXXkoE2abMS_14liquidity_pool9liquidity19___wasm__endpoints__10flash_loanpEB6_
FN:9,_RINvYpNtNtCsXXkoE2abMS_14liquidity_pool9liquidity10ProxyTrait31update_collateral_with_interestpEB8_
FN:9,_RINvYpNtNtCsXXkoE2abMS_14liquidity_pool9liquidity10ProxyTrait24update_borrows_with_debtpEB8_
FN:9,_RINvYpNtNtCsXXkoE2abMS_14liquidity_pool9liquidity10ProxyTrait6supplypEB8_
FN:9,_RINvYpNtNtCsXXkoE2abMS_14liquidity_pool9liquidity10ProxyTrait6borrowpppEB8_
FN:9,_RINvYpNtNtCsXXkoE2abMS_14liquidity_pool9liquidity10ProxyTrait8withdrawpppppEB8_
FN:9,_RINvYpNtNtCsXXkoE2abMS_14liquidity_pool9liquidity10ProxyTrait5repayppEB8_
FN:9,_RINvYpNtNtCsXXkoE2abMS_14liquidity_pool9liquidity10ProxyTrait10flash_loanppppppEB8_
FNDA:0,_RNvYpNtNtCsXXkoE2abMS_14liquidity_pool9liquidity15LiquidityModule31update_collateral_with_interestB7_
FNDA:0,_RNvYpNtNtCsXXkoE2abMS_14liquidity_pool9liquidity15LiquidityModule24update_borrows_with_debtB7_
FNDA:0,_RNvYpNtNtCsXXkoE2abMS_14liquidity_pool9liquidity15LiquidityModule6supplyB7_
FNDA:0,_RNvYpNtNtCsXXkoE2abMS_14liquidity_pool9liquidity15LiquidityModule6borrowB7_
FNDA:0,_RNvYpNtNtCsXXkoE2abMS_14liquidity_pool9liquidity15LiquidityModule8withdrawB7_
FNDA:0,_RNvYpNtNtCsXXkoE2abMS_14liquidity_pool9liquidity15LiquidityModule5repayB7_
FNDA:0,_RNvYpNtNtCsXXkoE2abMS_14liquidity_pool9liquidity15LiquidityModule10flash_loanB7_
FNDA:0,_RNvYpNtNtCsXXkoE2abMS_14liquidity_pool9liquidity16EndpointWrappers36call_update_collateral_with_interestB7_
FNDA:0,_RNvYpNtNtCsXXkoE2abMS_14liquidity_pool9liquidity16EndpointWrappers29call_update_borrows_with_debtB7_
FNDA:0,_RNvYpNtNtCsXXkoE2abMS_14liquidity_pool9liquidity16EndpointWrappers11call_supplyB7_
FNDA:0,_RNvYpNtNtCsXXkoE2abMS_14liquidity_pool9liquidity16EndpointWrappers11call_borrowB7_
FNDA:0,_RNvYpNtNtCsXXkoE2abMS_14liquidity_pool9liquidity16EndpointWrappers13call_withdrawB7_
FNDA:0,_RNvYpNtNtCsXXkoE2abMS_14liquidity_pool9liquidity16EndpointWrappers10call_repayB7_
FNDA:0,_RNvYpNtNtCsXXkoE2abMS_14liquidity_pool9liquidity16EndpointWrappers15call_flash_loanB7_
FNDA:0,_RNvYpNtNtCsXXkoE2abMS_14liquidity_pool9liquidity16EndpointWrappers4callB7_
FNDA:0,_RNvYpNtNtCsXXkoE2abMS_14liquidity_pool9liquidity16EndpointWrappers17callback_selectorB7_
FNDA:0,_RNvYpNtNtCsXXkoE2abMS_14liquidity_pool9liquidity16EndpointWrappers8callbackB7_
FNDA:0,_RNvXs1_NtCsXXkoE2abMS_14liquidity_pool9liquidityNtB5_11AbiProviderNtNtNtCs3OdWsgyxEo2_13multiversx_sc13contract_base21contract_abi_provider19ContractAbiProvider3abi
FNDA:0,_RNvXININtCsXXkoE2abMS_14liquidity_pool9liquiditysj_0pEINtB5_11ContractObjpENtNtNtCs3OdWsgyxEo2_13multiversx_sc13contract_base17callable_contract16CallableContract4callB7_
FNDA:0,_RINvNtCsXXkoE2abMS_14liquidity_pool9liquidity12contract_objpEB4_
FNDA:0,_RINvXsk_NtCsXXkoE2abMS_14liquidity_pool9liquidityNtB6_15ContractBuilderNtNtNtCs3OdWsgyxEo2_13multiversx_sc13contract_base17callable_contract23CallableContractBuilder16new_contract_objpEB8_
FNDA:0,_RINvNtNtCsXXkoE2abMS_14liquidity_pool9liquidity19___wasm__endpoints__31update_collateral_with_interestpEB6_
FNDA:0,_RINvNtNtCsXXkoE2abMS_14liquidity_pool9liquidity19___wasm__endpoints__24update_borrows_with_debtpEB6_
FNDA:0,_RINvNtNtCsXXkoE2abMS_14liquidity_pool9liquidity19___wasm__endpoints__6supplypEB6_
FNDA:0,_RINvNtNtCsXXkoE2abMS_14liquidity_pool9liquidity19___wasm__endpoints__6borrowpEB6_
FNDA:0,_RINvNtNtCsXXkoE2abMS_14liquidity_pool9liquidity19___wasm__endpoints__8withdrawpEB6_
FNDA:0,_RINvNtNtCsXXkoE2abMS_14liquidity_pool9liquidity19___wasm__endpoints__5repaypEB6_
FNDA:0,_RINvNtNtCsXXkoE2abMS_14liquidity_pool9liquidity19___wasm__endpoints__10flash_loanpEB6_
FNDA:0,_RINvYpNtNtCsXXkoE2abMS_14liquidity_pool9liquidity10ProxyTrait31update_collateral_with_interestpEB8_
FNDA:0,_RINvYpNtNtCsXXkoE2abMS_14liquidity_pool9liquidity10ProxyTrait24update_borrows_with_debtpEB8_
FNDA:0,_RINvYpNtNtCsXXkoE2abMS_14liquidity_pool9liquidity10ProxyTrait6supplypEB8_
FNDA:0,_RINvYpNtNtCsXXkoE2abMS_14liquidity_pool9liquidity10ProxyTrait6borrowpppEB8_
FNDA:0,_RINvYpNtNtCsXXkoE2abMS_14liquidity_pool9liquidity10ProxyTrait8withdrawpppppEB8_
FNDA:0,_RINvYpNtNtCsXXkoE2abMS_14liquidity_pool9liquidity10ProxyTrait5repayppEB8_
FNDA:0,_RINvYpNtNtCsXXkoE2abMS_14liquidity_pool9liquidity10ProxyTrait10flash_loanppppppEB8_
FNF:8
FNH:0
DA:9,0
DA:24,0
DA:25,0
DA:26,0
DA:27,0
DA:28,0
DA:29,0
DA:30,0
DA:31,0
DA:32,0
DA:33,0
DA:34,0
DA:35,0
DA:36,0
DA:37,0
DA:38,0
DA:39,0
DA:40,0
DA:48,0
DA:49,0
DA:50,0
DA:51,0
DA:52,0
DA:53,0
DA:54,0
DA:55,0
DA:56,0
DA:57,0
DA:58,0
DA:59,0
DA:60,0
DA:61,0
DA:67,0
DA:68,0
DA:69,0
DA:70,0
DA:71,0
DA:72,0
DA:73,0
DA:74,0
DA:75,0
DA:78,0
DA:79,0
DA:80,0
DA:81,0
DA:82,0
DA:83,0
DA:85,0
DA:86,0
DA:87,0
DA:88,0
DA:89,0
DA:90,0
DA:91,0
DA:92,0
DA:93,0
DA:94,0
DA:95,0
DA:96,0
DA:97,0
DA:98,0
DA:99,0
DA:100,0
DA:101,0
DA:102,0
DA:103,0
DA:114,0
DA:115,0
DA:116,0
DA:117,0
DA:118,0
DA:119,0
DA:120,0
DA:121,0
DA:122,0
DA:125,0
DA:126,0
DA:127,0
DA:128,0
DA:129,0
DA:130,0
DA:132,0
DA:133,0
DA:134,0
DA:135,0
DA:136,0
DA:137,0
DA:138,0
DA:139,0
DA:140,0
DA:141,0
DA:142,0
DA:143,0
DA:144,0
DA:145,0
DA:146,0
DA:147,0
DA:148,0
DA:149,0
DA:150,0
DA:151,0
DA:152,0
DA:153,0
DA:154,0
DA:155,0
DA:156,0
DA:157,0
DA:158,0
DA:159,0
DA:160,0
DA:173,0
DA:174,0
DA:175,0
DA:176,0
DA:177,0
DA:178,0
DA:179,0
DA:180,0
DA:181,0
DA:182,0
DA:183,0
DA:184,0
DA:185,0
DA:186,0
DA:187,0
DA:188,0
DA:189,0
DA:190,0
DA:191,0
DA:195,0
DA:196,0
DA:197,0
DA:198,0
DA:199,0
DA:200,0
DA:201,0
DA:204,0
DA:205,0
DA:206,0
DA:207,0
DA:210,0
DA:211,0
DA:212,0
DA:213,0
DA:215,0
DA:216,0
DA:217,0
DA:219,0
DA:220,0
DA:221,0
DA:222,0
DA:223,0
DA:224,0
DA:225,0
DA:226,0
DA:227,0
DA:228,0
DA:229,0
DA:230,0
DA:231,0
DA:232,0
DA:233,0
DA:234,0
DA:235,0
DA:236,0
DA:237,0
DA:238,0
DA:239,0
DA:240,0
DA:241,0
DA:242,0
DA:244,0
DA:245,0
DA:246,0
DA:247,0
DA:248,0
DA:249,0
DA:250,0
DA:251,0
DA:252,0
DA:253,0
DA:254,0
DA:264,0
DA:265,0
DA:266,0
DA:267,0
DA:268,0
DA:269,0
DA:270,0
DA:271,0
DA:272,0
DA:275,0
DA:276,0
DA:277,0
DA:278,0
DA:279,0
DA:280,0
DA:281,0
DA:282,0
DA:284,0
DA:285,0
DA:286,0
DA:287,0
DA:288,0
DA:290,0
DA:291,0
DA:292,0
DA:293,0
DA:294,0
DA:295,0
DA:296,0
DA:297,0
DA:298,0
DA:299,0
DA:300,0
DA:301,0
DA:302,0
DA:303,0
DA:304,0
DA:305,0
DA:306,0
DA:307,0
DA:308,0
DA:309,0
DA:310,0
DA:311,0
DA:313,0
DA:314,0
DA:315,0
DA:316,0
DA:317,0
DA:318,0
DA:319,0
DA:320,0
DA:321,0
DA:322,0
DA:323,0
DA:324,0
DA:336,0
DA:337,0
DA:338,0
DA:339,0
DA:340,0
DA:341,0
DA:344,0
DA:345,0
DA:346,0
DA:350,0
DA:351,0
DA:352,0
DA:353,0
DA:354,0
DA:355,0
DA:356,0
DA:357,0
DA:358,0
DA:359,0
DA:360,0
DA:361,0
DA:362,0
DA:363,0
DA:364,0
DA:365,0
DA:366,0
DA:367,0
DA:368,0
DA:369,0
DA:370,0
DA:371,0
DA:372,0
DA:373,0
DA:374,0
DA:375,0
DA:376,0
DA:378,0
DA:379,0
DA:381,0
DA:382,0
DA:383,0
DA:385,0
DA:386,0
DA:387,0
DA:388,0
DA:390,0
DA:391,0
DA:392,0
DA:393,0
DA:395,0
DA:396,0
DA:399,0
DA:400,0
DA:401,0
DA:402,0
DA:403,0
DA:404,0
DA:405,0
DA:406,0
DA:407,0
DA:408,0
BRF:0
BRH:0
LF:299
LH:0
end_of_record
SF:/Users/mihaieremia/GitHub/rs-lending/liquidity_pool/src/view.rs
FN:11,_RNvYpNtNtCsXXkoE2abMS_14liquidity_pool4view10ViewModule23get_capital_utilisationB7_
FN:19,_RNvYpNtNtCsXXkoE2abMS_14liquidity_pool4view10ViewModule17get_total_capitalB7_
FN:27,_RNvYpNtNtCsXXkoE2abMS_14liquidity_pool4view10ViewModule17get_debt_interestB7_
FN:36,_RNvYpNtNtCsXXkoE2abMS_14liquidity_pool4view10ViewModule16get_deposit_rateB7_
FN:49,_RNvYpNtNtCsXXkoE2abMS_14liquidity_pool4view10ViewModule15get_borrow_rateB7_
FN:67,_RNvYpNtNtCsXXkoE2abMS_14liquidity_pool4view10ViewModule21get_borrow_index_diffB7_
FN:8,_RNvYpNtNtCsXXkoE2abMS_14liquidity_pool4view16EndpointWrappers28call_get_capital_utilisationB7_
FN:8,_RNvYpNtNtCsXXkoE2abMS_14liquidity_pool4view16EndpointWrappers22call_get_total_capitalB7_
FN:8,_RNvYpNtNtCsXXkoE2abMS_14liquidity_pool4view16EndpointWrappers22call_get_debt_interestB7_
FN:8,_RNvYpNtNtCsXXkoE2abMS_14liquidity_pool4view16EndpointWrappers21call_get_deposit_rateB7_
FN:8,_RNvYpNtNtCsXXkoE2abMS_14liquidity_pool4view16EndpointWrappers20call_get_borrow_rateB7_
FN:8,_RNvYpNtNtCsXXkoE2abMS_14liquidity_pool4view16EndpointWrappers4callB7_
FN:8,_RNvYpNtNtCsXXkoE2abMS_14liquidity_pool4view16EndpointWrappers17callback_selectorB7_
FN:8,_RNvYpNtNtCsXXkoE2abMS_14liquidity_pool4view16EndpointWrappers8callbackB7_
FN:8,_RNvXs1_NtCsXXkoE2abMS_14liquidity_pool4viewNtB5_11AbiProviderNtNtNtCs3OdWsgyxEo2_13multiversx_sc13contract_base21contract_abi_provider19ContractAbiProvider3abi
FN:8,_RNvXININtCsXXkoE2abMS_14liquidity_pool4views9_0pEINtB5_11ContractObjpENtNtNtCs3OdWsgyxEo2_13multiversx_sc13contract_base17callable_contract16CallableContract4callB7_
FN:8,_RINvNtCsXXkoE2abMS_14liquidity_pool4view12contract_objpEB4_
FN:8,_RINvXsa_NtCsXXkoE2abMS_14liquidity_pool4viewNtB6_15ContractBuilderNtNtNtCs3OdWsgyxEo2_13multiversx_sc13contract_base17callable_contract23CallableContractBuilder16new_contract_objpEB8_
FN:8,_RINvNtNtCsXXkoE2abMS_14liquidity_pool4view19___wasm__endpoints__23get_capital_utilisationpEB6_
FN:8,_RINvNtNtCsXXkoE2abMS_14liquidity_pool4view19___wasm__endpoints__17get_total_capitalpEB6_
FN:8,_RINvNtNtCsXXkoE2abMS_14liquidity_pool4view19___wasm__endpoints__17get_debt_interestpEB6_
FN:8,_RINvNtNtCsXXkoE2abMS_14liquidity_pool4view19___wasm__endpoints__16get_deposit_ratepEB6_
FN:8,_RINvNtNtCsXXkoE2abMS_14liquidity_pool4view19___wasm__endpoints__15get_borrow_ratepEB6_
FN:8,_RNvYpNtNtCsXXkoE2abMS_14liquidity_pool4view10ProxyTrait23get_capital_utilisationB7_
FN:8,_RNvYpNtNtCsXXkoE2abMS_14liquidity_pool4view10ProxyTrait17get_total_capitalB7_
FN:8,_RINvYpNtNtCsXXkoE2abMS_14liquidity_pool4view10ProxyTrait17get_debt_interestppEB8_
FN:8,_RNvYpNtNtCsXXkoE2abMS_14liquidity_pool4view10ProxyTrait16get_deposit_rateB7_
FN:8,_RNvYpNtNtCsXXkoE2abMS_14liquidity_pool4view10ProxyTrait15get_borrow_rateB7_
FNDA:0,_RNvYpNtNtCsXXkoE2abMS_14liquidity_pool4view10ViewModule23get_capital_utilisationB7_
FNDA:0,_RNvYpNtNtCsXXkoE2abMS_14liquidity_pool4view10ViewModule17get_total_capitalB7_
FNDA:0,_RNvYpNtNtCsXXkoE2abMS_14liquidity_pool4view10ViewModule17get_debt_interestB7_
FNDA:0,_RNvYpNtNtCsXXkoE2abMS_14liquidity_pool4view10ViewModule16get_deposit_rateB7_
FNDA:0,_RNvYpNtNtCsXXkoE2abMS_14liquidity_pool4view10ViewModule15get_borrow_rateB7_
FNDA:0,_RNvYpNtNtCsXXkoE2abMS_14liquidity_pool4view10ViewModule21get_borrow_index_diffB7_
FNDA:0,_RNvYpNtNtCsXXkoE2abMS_14liquidity_pool4view16EndpointWrappers28call_get_capital_utilisationB7_
FNDA:0,_RNvYpNtNtCsXXkoE2abMS_14liquidity_pool4view16EndpointWrappers22call_get_total_capitalB7_
FNDA:0,_RNvYpNtNtCsXXkoE2abMS_14liquidity_pool4view16EndpointWrappers22call_get_debt_interestB7_
FNDA:0,_RNvYpNtNtCsXXkoE2abMS_14liquidity_pool4view16EndpointWrappers21call_get_deposit_rateB7_
FNDA:0,_RNvYpNtNtCsXXkoE2abMS_14liquidity_pool4view16EndpointWrappers20call_get_borrow_rateB7_
FNDA:0,_RNvYpNtNtCsXXkoE2abMS_14liquidity_pool4view16EndpointWrappers4callB7_
FNDA:0,_RNvYpNtNtCsXXkoE2abMS_14liquidity_pool4view16EndpointWrappers17callback_selectorB7_
FNDA:0,_RNvYpNtNtCsXXkoE2abMS_14liquidity_pool4view16EndpointWrappers8callbackB7_
FNDA:0,_RNvXs1_NtCsXXkoE2abMS_14liquidity_pool4viewNtB5_11AbiProviderNtNtNtCs3OdWsgyxEo2_13multiversx_sc13contract_base21contract_abi_provider19ContractAbiProvider3abi
FNDA:0,_RNvXININtCsXXkoE2abMS_14liquidity_pool4views9_0pEINtB5_11ContractObjpENtNtNtCs3OdWsgyxEo2_13multiversx_sc13contract_base17callable_contract16CallableContract4callB7_
FNDA:0,_RINvNtCsXXkoE2abMS_14liquidity_pool4view12contract_objpEB4_
FNDA:0,_RINvXsa_NtCsXXkoE2abMS_14liquidity_pool4viewNtB6_15ContractBuilderNtNtNtCs3OdWsgyxEo2_13multiversx_sc13contract_base17callable_contract23CallableContractBuilder16new_contract_objpEB8_
FNDA:0,_RINvNtNtCsXXkoE2abMS_14liquidity_pool4view19___wasm__endpoints__23get_capital_utilisationpEB6_
FNDA:0,_RINvNtNtCsXXkoE2abMS_14liquidity_pool4view19___wasm__endpoints__17get_total_capitalpEB6_
FNDA:0,_RINvNtNtCsXXkoE2abMS_14liquidity_pool4view19___wasm__endpoints__17get_debt_interestpEB6_
FNDA:0,_RINvNtNtCsXXkoE2abMS_14liquidity_pool4view19___wasm__endpoints__16get_deposit_ratepEB6_
FNDA:0,_RINvNtNtCsXXkoE2abMS_14liquidity_pool4view19___wasm__endpoints__15get_borrow_ratepEB6_
FNDA:0,_RNvYpNtNtCsXXkoE2abMS_14liquidity_pool4view10ProxyTrait23get_capital_utilisationB7_
FNDA:0,_RNvYpNtNtCsXXkoE2abMS_14liquidity_pool4view10ProxyTrait17get_total_capitalB7_
FNDA:0,_RINvYpNtNtCsXXkoE2abMS_14liquidity_pool4view10ProxyTrait17get_debt_interestppEB8_
FNDA:0,_RNvYpNtNtCsXXkoE2abMS_14liquidity_pool4view10ProxyTrait16get_deposit_rateB7_
FNDA:0,_RNvYpNtNtCsXXkoE2abMS_14liquidity_pool4view10ProxyTrait15get_borrow_rateB7_
FNF:7
FNH:0
DA:8,0
DA:11,0
DA:12,0
DA:13,0
DA:14,0
DA:15,0
DA:19,0
DA:20,0
DA:21,0
DA:22,0
DA:23,0
DA:27,0
DA:28,0
DA:29,0
DA:30,0
DA:31,0
DA:32,0
DA:36,0
DA:37,0
DA:38,0
DA:39,0
DA:40,0
DA:41,0
DA:42,0
DA:43,0
DA:44,0
DA:45,0
DA:49,0
DA:50,0
DA:51,0
DA:52,0
DA:53,0
DA:54,0
DA:55,0
DA:56,0
DA:57,0
DA:58,0
DA:59,0
DA:60,0
DA:67,0
DA:68,0
DA:69,0
DA:70,0
DA:73,0
BRF:0
BRH:0
LF:44
LH:0
end_of_record