SF:/Users/mihaieremia/GitHub/rs-lending/common/events/src/events.rs
FN:46,_RNvYpNtCs6ONkJ4f8HFg_13common_events12EventsModule25update_market_state_eventB5_
FN:7,_RNvXINICs6ONkJ4f8HFg_13common_events0pEpNtB5_12EventsModule26create_market_params_eventB5_
FN:7,_RNvXINICs6ONkJ4f8HFg_13common_events0pEpNtB5_12EventsModule19market_params_eventB5_
FN:7,_RNvXINICs6ONkJ4f8HFg_13common_events0pEpNtB5_12EventsModule31__emit_update_market_state_eventB5_
FN:7,_RNvXINICs6ONkJ4f8HFg_13common_events0pEpNtB5_12EventsModule21update_position_eventB5_
FN:7,_RNvXINICs6ONkJ4f8HFg_13common_events0pEpNtB5_12EventsModule25update_debt_ceiling_eventB5_
FN:7,_RNvXINICs6ONkJ4f8HFg_13common_events0pEpNtB5_12EventsModule34update_vault_supplied_amount_eventB5_
FN:7,_RNvXINICs6ONkJ4f8HFg_13common_events0pEpNtB5_12EventsModule25update_asset_config_eventB5_
FN:7,_RNvXINICs6ONkJ4f8HFg_13common_events0pEpNtB5_12EventsModule28update_e_mode_category_eventB5_
FN:7,_RNvXINICs6ONkJ4f8HFg_13common_events0pEpNtB5_12EventsModule25update_e_mode_asset_eventB5_
FN:7,_RNvYpNtCs6ONkJ4f8HFg_13common_events16EndpointWrappers4callB5_
FN:7,_RNvYpNtCs6ONkJ4f8HFg_13common_events16EndpointWrappers17callback_selectorB5_
FN:7,_RNvYpNtCs6ONkJ4f8HFg_13common_events16EndpointWrappers8callbackB5_
FN:7,_RNvXs1_Cs6ONkJ4f8HFg_13common_eventsNtB5_11AbiProviderNtNtNtCslPMlHj3qn2H_13multiversx_sc13contract_base21contract_abi_provider19ContractAbiProvider3abi
FN:7,_RNvXINICs6ONkJ4f8HFg_13common_eventss5_0pEINtB5_11ContractObjpENtNtNtCslPMlHj3qn2H_13multiversx_sc13contract_base17callable_contract16CallableContract4callB5_
FN:7,_RINvCs6ONkJ4f8HFg_13common_events12contract_objpEB2_
FN:7,_RINvXs6_Cs6ONkJ4f8HFg_13common_eventsNtB6_15ContractBuilderNtNtNtCslPMlHj3qn2H_13multiversx_sc13contract_base17callable_contract23CallableContractBuilder16new_contract_objpEB6_
FN:7,_RNvXCs3rOA4D9qoaG_13common_eventsINtCs48qTgYy1n57_12lending_pool11ContractObjINtNtNtNtCs1rODQd5oASQ_22multiversx_sc_scenario3api7impl_vh12vm_hooks_api10VMHooksApiNtNtB1i_9debug_api15DebugApiBackendEENtB2_12EventsModule21update_position_eventCs8iyf5MSkCde_5tests
FN:7,_RNvXCs3rOA4D9qoaG_13common_eventsINtCs48qTgYy1n57_12lending_pool11ContractObjINtNtNtNtCs1rODQd5oASQ_22multiversx_sc_scenario3api7impl_vh12vm_hooks_api10VMHooksApiNtNtB1i_9debug_api15DebugApiBackendEENtB2_12EventsModule25update_asset_config_eventCs8iyf5MSkCde_5tests
FN:7,_RNvXCs3rOA4D9qoaG_13common_eventsINtCs48qTgYy1n57_12lending_pool11ContractObjINtNtNtNtCs1rODQd5oASQ_22multiversx_sc_scenario3api7impl_vh12vm_hooks_api10VMHooksApiNtNtB1i_9debug_api15DebugApiBackendEENtB2_12EventsModule25update_debt_ceiling_eventCs8iyf5MSkCde_5tests
FN:7,_RNvXCs3rOA4D9qoaG_13common_eventsINtCs48qTgYy1n57_12lending_pool11ContractObjINtNtNtNtCs1rODQd5oASQ_22multiversx_sc_scenario3api7impl_vh12vm_hooks_api10VMHooksApiNtNtB1i_9debug_api15DebugApiBackendEENtB2_12EventsModule25update_e_mode_asset_eventCs8iyf5MSkCde_5tests
FN:7,_RNvXCs3rOA4D9qoaG_13common_eventsINtCs48qTgYy1n57_12lending_pool11ContractObjINtNtNtNtCs1rODQd5oASQ_22multiversx_sc_scenario3api7impl_vh12vm_hooks_api10VMHooksApiNtNtB1i_9debug_api15DebugApiBackendEENtB2_12EventsModule26create_market_params_eventCs8iyf5MSkCde_5tests
FN:7,_RNvXCs3rOA4D9qoaG_13common_eventsINtCs48qTgYy1n57_12lending_pool11ContractObjINtNtNtNtCs1rODQd5oASQ_22multiversx_sc_scenario3api7impl_vh12vm_hooks_api10VMHooksApiNtNtB1i_9debug_api15DebugApiBackendEENtB2_12EventsModule28update_e_mode_category_eventCs8iyf5MSkCde_5tests
FN:7,_RNvXCs3rOA4D9qoaG_13common_eventsINtCs48qTgYy1n57_12lending_pool11ContractObjINtNtNtNtCs1rODQd5oASQ_22multiversx_sc_scenario3api7impl_vh12vm_hooks_api10VMHooksApiNtNtB1i_9debug_api15DebugApiBackendEENtB2_12EventsModule34update_vault_supplied_amount_eventCs8iyf5MSkCde_5tests
FN:7,_RNvYINtCs48qTgYy1n57_12lending_pool11ContractObjINtNtNtNtCs1rODQd5oASQ_22multiversx_sc_scenario3api7impl_vh12vm_hooks_api10VMHooksApiNtNtBP_9debug_api15DebugApiBackendEENtCs3rOA4D9qoaG_13common_events16EndpointWrappers17callback_selectorCs8iyf5MSkCde_5tests
FN:7,_RNvYINtCs48qTgYy1n57_12lending_pool11ContractObjINtNtNtNtCs1rODQd5oASQ_22multiversx_sc_scenario3api7impl_vh12vm_hooks_api10VMHooksApiNtNtBP_9debug_api15DebugApiBackendEENtCs3rOA4D9qoaG_13common_events16EndpointWrappers4callCs8iyf5MSkCde_5tests
FN:7,_RNvYINtCs48qTgYy1n57_12lending_pool11ContractObjINtNtNtNtCs1rODQd5oASQ_22multiversx_sc_scenario3api7impl_vh12vm_hooks_api10VMHooksApiNtNtBP_9debug_api15DebugApiBackendEENtCs3rOA4D9qoaG_13common_events16EndpointWrappers8callbackCs8iyf5MSkCde_5tests
FN:7,_RNvXCs3rOA4D9qoaG_13common_eventsINtCsbsTB6V03K8e_14liquidity_pool11ContractObjINtNtNtNtCs1rODQd5oASQ_22multiversx_sc_scenario3api7impl_vh12vm_hooks_api10VMHooksApiNtNtB1k_9debug_api15DebugApiBackendEENtB2_12EventsModule19market_params_eventCs8iyf5MSkCde_5tests
FN:7,_RNvXCs3rOA4D9qoaG_13common_eventsINtCsbsTB6V03K8e_14liquidity_pool11ContractObjINtNtNtNtCs1rODQd5oASQ_22multiversx_sc_scenario3api7impl_vh12vm_hooks_api10VMHooksApiNtNtB1k_9debug_api15DebugApiBackendEENtB2_12EventsModule31__emit_update_market_state_eventCs8iyf5MSkCde_5tests
FN:46,_RNvYINtCsbsTB6V03K8e_14liquidity_pool11ContractObjINtNtNtNtCs1rODQd5oASQ_22multiversx_sc_scenario3api7impl_vh12vm_hooks_api10VMHooksApiNtNtBR_9debug_api15DebugApiBackendEENtCs3rOA4D9qoaG_13common_events12EventsModule25update_market_state_eventCs8iyf5MSkCde_5tests
FN:7,_RNvYINtCsbsTB6V03K8e_14liquidity_pool11ContractObjINtNtNtNtCs1rODQd5oASQ_22multiversx_sc_scenario3api7impl_vh12vm_hooks_api10VMHooksApiNtNtBR_9debug_api15DebugApiBackendEENtCs3rOA4D9qoaG_13common_events16EndpointWrappers17callback_selectorCs8iyf5MSkCde_5tests
FN:7,_RNvYINtCsbsTB6V03K8e_14liquidity_pool11ContractObjINtNtNtNtCs1rODQd5oASQ_22multiversx_sc_scenario3api7impl_vh12vm_hooks_api10VMHooksApiNtNtBR_9debug_api15DebugApiBackendEENtCs3rOA4D9qoaG_13common_events16EndpointWrappers4callCs8iyf5MSkCde_5tests
FN:7,_RNvYINtCsbsTB6V03K8e_14liquidity_pool11ContractObjINtNtNtNtCs1rODQd5oASQ_22multiversx_sc_scenario3api7impl_vh12vm_hooks_api10VMHooksApiNtNtBR_9debug_api15DebugApiBackendEENtCs3rOA4D9qoaG_13common_events16EndpointWrappers8callbackCs8iyf5MSkCde_5tests
FNDA:0,_RNvYpNtCs6ONkJ4f8HFg_13common_events12EventsModule25update_market_state_eventB5_
FNDA:0,_RNvXINICs6ONkJ4f8HFg_13common_events0pEpNtB5_12EventsModule26create_market_params_eventB5_
FNDA:0,_RNvXINICs6ONkJ4f8HFg_13common_events0pEpNtB5_12EventsModule19market_params_eventB5_
FNDA:0,_RNvXINICs6ONkJ4f8HFg_13common_events0pEpNtB5_12EventsModule31__emit_update_market_state_eventB5_
FNDA:0,_RNvXINICs6ONkJ4f8HFg_13common_events0pEpNtB5_12EventsModule21update_position_eventB5_
FNDA:0,_RNvXINICs6ONkJ4f8HFg_13common_events0pEpNtB5_12EventsModule25update_debt_ceiling_eventB5_
FNDA:0,_RNvXINICs6ONkJ4f8HFg_13common_events0pEpNtB5_12EventsModule34update_vault_supplied_amount_eventB5_
FNDA:0,_RNvXINICs6ONkJ4f8HFg_13common_events0pEpNtB5_12EventsModule25update_asset_config_eventB5_
FNDA:0,_RNvXINICs6ONkJ4f8HFg_13common_events0pEpNtB5_12EventsModule28update_e_mode_category_eventB5_
FNDA:0,_RNvXINICs6ONkJ4f8HFg_13common_events0pEpNtB5_12EventsModule25update_e_mode_asset_eventB5_
FNDA:0,_RNvYpNtCs6ONkJ4f8HFg_13common_events16EndpointWrappers4callB5_
FNDA:0,_RNvYpNtCs6ONkJ4f8HFg_13common_events16EndpointWrappers17callback_selectorB5_
FNDA:0,_RNvYpNtCs6ONkJ4f8HFg_13common_events16EndpointWrappers8callbackB5_
FNDA:0,_RNvXs1_Cs6ONkJ4f8HFg_13common_eventsNtB5_11AbiProviderNtNtNtCslPMlHj3qn2H_13multiversx_sc13contract_base21contract_abi_provider19ContractAbiProvider3abi
FNDA:0,_RNvXINICs6ONkJ4f8HFg_13common_eventss5_0pEINtB5_11ContractObjpENtNtNtCslPMlHj3qn2H_13multiversx_sc13contract_base17callable_contract16CallableContract4callB5_
FNDA:0,_RINvCs6ONkJ4f8HFg_13common_events12contract_objpEB2_
FNDA:0,_RINvXs6_Cs6ONkJ4f8HFg_13common_eventsNtB6_15ContractBuilderNtNtNtCslPMlHj3qn2H_13multiversx_sc13contract_base17callable_contract23CallableContractBuilder16new_contract_objpEB6_
FNDA:893,_RNvXCs3rOA4D9qoaG_13common_eventsINtCs48qTgYy1n57_12lending_pool11ContractObjINtNtNtNtCs1rODQd5oASQ_22multiversx_sc_scenario3api7impl_vh12vm_hooks_api10VMHooksApiNtNtB1i_9debug_api15DebugApiBackendEENtB2_12EventsModule21update_position_eventCs8iyf5MSkCde_5tests
FNDA:188,_RNvXCs3rOA4D9qoaG_13common_eventsINtCs48qTgYy1n57_12lending_pool11ContractObjINtNtNtNtCs1rODQd5oASQ_22multiversx_sc_scenario3api7impl_vh12vm_hooks_api10VMHooksApiNtNtB1i_9debug_api15DebugApiBackendEENtB2_12EventsModule25update_asset_config_eventCs8iyf5MSkCde_5tests
FNDA:7,_RNvXCs3rOA4D9qoaG_13common_eventsINtCs48qTgYy1n57_12lending_pool11ContractObjINtNtNtNtCs1rODQd5oASQ_22multiversx_sc_scenario3api7impl_vh12vm_hooks_api10VMHooksApiNtNtB1i_9debug_api15DebugApiBackendEENtB2_12EventsModule25update_debt_ceiling_eventCs8iyf5MSkCde_5tests
FNDA:188,_RNvXCs3rOA4D9qoaG_13common_eventsINtCs48qTgYy1n57_12lending_pool11ContractObjINtNtNtNtCs1rODQd5oASQ_22multiversx_sc_scenario3api7impl_vh12vm_hooks_api10VMHooksApiNtNtB1i_9debug_api15DebugApiBackendEENtB2_12EventsModule25update_e_mode_asset_eventCs8iyf5MSkCde_5tests
FNDA:470,_RNvXCs3rOA4D9qoaG_13common_eventsINtCs48qTgYy1n57_12lending_pool11ContractObjINtNtNtNtCs1rODQd5oASQ_22multiversx_sc_scenario3api7impl_vh12vm_hooks_api10VMHooksApiNtNtB1i_9debug_api15DebugApiBackendEENtB2_12EventsModule26create_market_params_eventCs8iyf5MSkCde_5tests
FNDA:47,_RNvXCs3rOA4D9qoaG_13common_eventsINtCs48qTgYy1n57_12lending_pool11ContractObjINtNtNtNtCs1rODQd5oASQ_22multiversx_sc_scenario3api7impl_vh12vm_hooks_api10VMHooksApiNtNtB1i_9debug_api15DebugApiBackendEENtB2_12EventsModule28update_e_mode_category_eventCs8iyf5MSkCde_5tests
FNDA:16,_RNvXCs3rOA4D9qoaG_13common_eventsINtCs48qTgYy1n57_12lending_pool11ContractObjINtNtNtNtCs1rODQd5oASQ_22multiversx_sc_scenario3api7impl_vh12vm_hooks_api10VMHooksApiNtNtB1i_9debug_api15DebugApiBackendEENtB2_12EventsModule34update_vault_supplied_amount_eventCs8iyf5MSkCde_5tests
FNDA:0,_RNvYINtCs48qTgYy1n57_12lending_pool11ContractObjINtNtNtNtCs1rODQd5oASQ_22multiversx_sc_scenario3api7impl_vh12vm_hooks_api10VMHooksApiNtNtBP_9debug_api15DebugApiBackendEENtCs3rOA4D9qoaG_13common_events16EndpointWrappers17callback_selectorCs8iyf5MSkCde_5tests
FNDA:6199,_RNvYINtCs48qTgYy1n57_12lending_pool11ContractObjINtNtNtNtCs1rODQd5oASQ_22multiversx_sc_scenario3api7impl_vh12vm_hooks_api10VMHooksApiNtNtBP_9debug_api15DebugApiBackendEENtCs3rOA4D9qoaG_13common_events16EndpointWrappers4callCs8iyf5MSkCde_5tests
FNDA:0,_RNvYINtCs48qTgYy1n57_12lending_pool11ContractObjINtNtNtNtCs1rODQd5oASQ_22multiversx_sc_scenario3api7impl_vh12vm_hooks_api10VMHooksApiNtNtBP_9debug_api15DebugApiBackendEENtCs3rOA4D9qoaG_13common_events16EndpointWrappers8callbackCs8iyf5MSkCde_5tests
FNDA:0,_RNvXCs3rOA4D9qoaG_13common_eventsINtCsbsTB6V03K8e_14liquidity_pool11ContractObjINtNtNtNtCs1rODQd5oASQ_22multiversx_sc_scenario3api7impl_vh12vm_hooks_api10VMHooksApiNtNtB1k_9debug_api15DebugApiBackendEENtB2_12EventsModule19market_params_eventCs8iyf5MSkCde_5tests
FNDA:889,_RNvXCs3rOA4D9qoaG_13common_eventsINtCsbsTB6V03K8e_14liquidity_pool11ContractObjINtNtNtNtCs1rODQd5oASQ_22multiversx_sc_scenario3api7impl_vh12vm_hooks_api10VMHooksApiNtNtB1k_9debug_api15DebugApiBackendEENtB2_12EventsModule31__emit_update_market_state_eventCs8iyf5MSkCde_5tests
FNDA:889,_RNvYINtCsbsTB6V03K8e_14liquidity_pool11ContractObjINtNtNtNtCs1rODQd5oASQ_22multiversx_sc_scenario3api7impl_vh12vm_hooks_api10VMHooksApiNtNtBR_9debug_api15DebugApiBackendEENtCs3rOA4D9qoaG_13common_events12EventsModule25update_market_state_eventCs8iyf5MSkCde_5tests
FNDA:0,_RNvYINtCsbsTB6V03K8e_14liquidity_pool11ContractObjINtNtNtNtCs1rODQd5oASQ_22multiversx_sc_scenario3api7impl_vh12vm_hooks_api10VMHooksApiNtNtBR_9debug_api15DebugApiBackendEENtCs3rOA4D9qoaG_13common_events16EndpointWrappers17callback_selectorCs8iyf5MSkCde_5tests
FNDA:969,_RNvYINtCsbsTB6V03K8e_14liquidity_pool11ContractObjINtNtNtNtCs1rODQd5oASQ_22multiversx_sc_scenario3api7impl_vh12vm_hooks_api10VMHooksApiNtNtBR_9debug_api15DebugApiBackendEENtCs3rOA4D9qoaG_13common_events16EndpointWrappers4callCs8iyf5MSkCde_5tests
FNDA:0,_RNvYINtCsbsTB6V03K8e_14liquidity_pool11ContractObjINtNtNtNtCs1rODQd5oASQ_22multiversx_sc_scenario3api7impl_vh12vm_hooks_api10VMHooksApiNtNtBR_9debug_api15DebugApiBackendEENtCs3rOA4D9qoaG_13common_events16EndpointWrappers8callbackCs8iyf5MSkCde_5tests
FNF:2
FNH:2
DA:7,7168
DA:46,889
DA:47,889
DA:48,889
DA:49,889
DA:50,889
DA:51,889
DA:52,889
DA:53,889
DA:54,889
DA:55,889
DA:56,889
DA:57,889
BRF:0
BRH:0
LF:13
LH:13
end_of_record
SF:/Users/mihaieremia/GitHub/rs-lending/common/structs/src/model.rs
FN:7,_RINvXINICs3o9EQk8eroe_14common_structss2d_0pEINtB6_10PoolParamspENtNtNtCs5SUGlJDgeoS_19multiversx_sc_codec6single6top_en9TopEncode24top_encode_or_handle_errppEB6_
FN:7,_RINvXINICs3o9EQk8eroe_14common_structss2e_0pEINtB6_10PoolParamspENtNtNtCs5SUGlJDgeoS_19multiversx_sc_codec6single6top_de9TopDecode24top_decode_or_handle_errppEB6_
FN:6,_RNvXINICs3o9EQk8eroe_14common_structss2c_0pEINtB5_10PoolParamspENtNtNtCslPMlHj3qn2H_13multiversx_sc3abi8type_abi7TypeAbi9type_nameB5_
FN:6,_RINvXINICs3o9EQk8eroe_14common_structss2c_0pEINtB6_10PoolParamspENtNtNtCslPMlHj3qn2H_13multiversx_sc3abi8type_abi7TypeAbi25provide_type_descriptionspEB6_
FN:20,_RINvXs21_Cs3o9EQk8eroe_14common_structsNtB7_19AccountPositionTypeNtNtNtNtNtCslPMlHj3qn2H_13multiversx_sc5types7managed7wrapped16managed_vec_item14ManagedVecItem16from_byte_readerpEB7_
FN:20,_RINvXs21_Cs3o9EQk8eroe_14common_structsNtB7_19AccountPositionTypeNtNtNtNtNtCslPMlHj3qn2H_13multiversx_sc5types7managed7wrapped16managed_vec_item14ManagedVecItem26from_byte_reader_as_borrowpEB7_
FN:20,_RINvXs21_Cs3o9EQk8eroe_14common_structsNtB7_19AccountPositionTypeNtNtNtNtNtCslPMlHj3qn2H_13multiversx_sc5types7managed7wrapped16managed_vec_item14ManagedVecItem16into_byte_writerppEB7_
FN:20,_RINvXs22_Cs3o9EQk8eroe_14common_structsNtB7_19AccountPositionTypeNtNtNtCs5SUGlJDgeoS_19multiversx_sc_codec6single9nested_en12NestedEncode24dep_encode_or_handle_errppEB7_
FN:20,_RINvXs23_Cs3o9EQk8eroe_14common_structsNtB7_19AccountPositionTypeNtNtNtCs5SUGlJDgeoS_19multiversx_sc_codec6single9nested_de12NestedDecode24dep_decode_or_handle_errppEB7_
FN:20,_RINvXs24_Cs3o9EQk8eroe_14common_structsNtB7_19AccountPositionTypeNtNtNtCs5SUGlJDgeoS_19multiversx_sc_codec6single6top_en9TopEncode24top_encode_or_handle_errppEB7_
FN:20,_RINvXs25_Cs3o9EQk8eroe_14common_structsNtB7_19AccountPositionTypeNtNtNtCs5SUGlJDgeoS_19multiversx_sc_codec6single6top_de9TopDecode24top_decode_or_handle_errppEB7_
FN:18,_RNvXs20_Cs3o9EQk8eroe_14common_structsNtB6_19AccountPositionTypeNtNtNtCslPMlHj3qn2H_13multiversx_sc3abi8type_abi7TypeAbi9type_name
FN:18,_RINvXs20_Cs3o9EQk8eroe_14common_structsNtB7_19AccountPositionTypeNtNtNtCslPMlHj3qn2H_13multiversx_sc3abi8type_abi7TypeAbi25provide_type_descriptionspEB7_
FN:29,_RINvXINICs3o9EQk8eroe_14common_structss1S_0pEINtB6_15AccountPositionpENtNtNtNtNtCslPMlHj3qn2H_13multiversx_sc5types7managed7wrapped16managed_vec_item14ManagedVecItem16from_byte_readerpEB6_
FN:29,_RNCINvXINICs3o9EQk8eroe_14common_structss1S_0pEINtB8_15AccountPositionpENtNtNtNtNtCslPMlHj3qn2H_13multiversx_sc5types7managed7wrapped16managed_vec_item14ManagedVecItem16from_byte_readerpE0B8_
FN:29,_RNCINvXINICs3o9EQk8eroe_14common_structss1S_0pEINtB8_15AccountPositionpENtNtNtNtNtCslPMlHj3qn2H_13multiversx_sc5types7managed7wrapped16managed_vec_item14ManagedVecItem16from_byte_readerpEs_0B8_
FN:29,_RNCINvXINICs3o9EQk8eroe_14common_structss1S_0pEINtB8_15AccountPositionpENtNtNtNtNtCslPMlHj3qn2H_13multiversx_sc5types7managed7wrapped16managed_vec_item14ManagedVecItem16from_byte_readerpEs0_0B8_
FN:29,_RNCINvXINICs3o9EQk8eroe_14common_structss1S_0pEINtB8_15AccountPositionpENtNtNtNtNtCslPMlHj3qn2H_13multiversx_sc5types7managed7wrapped16managed_vec_item14ManagedVecItem16from_byte_readerpEs1_0B8_
FN:29,_RNCINvXINICs3o9EQk8eroe_14common_structss1S_0pEINtB8_15AccountPositionpENtNtNtNtNtCslPMlHj3qn2H_13multiversx_sc5types7managed7wrapped16managed_vec_item14ManagedVecItem16from_byte_readerpEs2_0B8_
FN:29,_RNCINvXINICs3o9EQk8eroe_14common_structss1S_0pEINtB8_15AccountPositionpENtNtNtNtNtCslPMlHj3qn2H_13multiversx_sc5types7managed7wrapped16managed_vec_item14ManagedVecItem16from_byte_readerpEs3_0B8_
FN:29,_RNCINvXINICs3o9EQk8eroe_14common_structss1S_0pEINtB8_15AccountPositionpENtNtNtNtNtCslPMlHj3qn2H_13multiversx_sc5types7managed7wrapped16managed_vec_item14ManagedVecItem16from_byte_readerpEs4_0B8_
FN:29,_RNCINvXINICs3o9EQk8eroe_14common_structss1S_0pEINtB8_15AccountPositionpENtNtNtNtNtCslPMlHj3qn2H_13multiversx_sc5types7managed7wrapped16managed_vec_item14ManagedVecItem16from_byte_readerpEs5_0B8_
FN:29,_RNCINvXINICs3o9EQk8eroe_14common_structss1S_0pEINtB8_15AccountPositionpENtNtNtNtNtCslPMlHj3qn2H_13multiversx_sc5types7managed7wrapped16managed_vec_item14ManagedVecItem16from_byte_readerpEs6_0B8_
FN:29,_RNCINvXINICs3o9EQk8eroe_14common_structss1S_0pEINtB8_15AccountPositionpENtNtNtNtNtCslPMlHj3qn2H_13multiversx_sc5types7managed7wrapped16managed_vec_item14ManagedVecItem16from_byte_readerpEs7_0B8_
FN:29,_RINvXINICs3o9EQk8eroe_14common_structss1S_0pEINtB6_15AccountPositionpENtNtNtNtNtCslPMlHj3qn2H_13multiversx_sc5types7managed7wrapped16managed_vec_item14ManagedVecItem26from_byte_reader_as_borrowpEB6_
FN:29,_RINvXINICs3o9EQk8eroe_14common_structss1S_0pEINtB6_15AccountPositionpENtNtNtNtNtCslPMlHj3qn2H_13multiversx_sc5types7managed7wrapped16managed_vec_item14ManagedVecItem16into_byte_writerppEB6_
FN:29,_RNCINvXINICs3o9EQk8eroe_14common_structss1S_0pEINtB8_15AccountPositionpENtNtNtNtNtCslPMlHj3qn2H_13multiversx_sc5types7managed7wrapped16managed_vec_item14ManagedVecItem16into_byte_writerppE0B8_
FN:29,_RNCINvXINICs3o9EQk8eroe_14common_structss1S_0pEINtB8_15AccountPositionpENtNtNtNtNtCslPMlHj3qn2H_13multiversx_sc5types7managed7wrapped16managed_vec_item14ManagedVecItem16into_byte_writerppEs_0B8_
FN:29,_RNCINvXINICs3o9EQk8eroe_14common_structss1S_0pEINtB8_15AccountPositionpENtNtNtNtNtCslPMlHj3qn2H_13multiversx_sc5types7managed7wrapped16managed_vec_item14ManagedVecItem16into_byte_writerppEs0_0B8_
FN:29,_RNCINvXINICs3o9EQk8eroe_14common_structss1S_0pEINtB8_15AccountPositionpENtNtNtNtNtCslPMlHj3qn2H_13multiversx_sc5types7managed7wrapped16managed_vec_item14ManagedVecItem16into_byte_writerppEs1_0B8_
FN:29,_RNCINvXINICs3o9EQk8eroe_14common_structss1S_0pEINtB8_15AccountPositionpENtNtNtNtNtCslPMlHj3qn2H_13multiversx_sc5types7managed7wrapped16managed_vec_item14ManagedVecItem16into_byte_writerppEs2_0B8_
FN:29,_RNCINvXINICs3o9EQk8eroe_14common_structss1S_0pEINtB8_15AccountPositionpENtNtNtNtNtCslPMlHj3qn2H_13multiversx_sc5types7managed7wrapped16managed_vec_item14ManagedVecItem16into_byte_writerppEs3_0B8_
FN:29,_RNCINvXINICs3o9EQk8eroe_14common_structss1S_0pEINtB8_15AccountPositionpENtNtNtNtNtCslPMlHj3qn2H_13multiversx_sc5types7managed7wrapped16managed_vec_item14ManagedVecItem16into_byte_writerppEs4_0B8_
FN:29,_RNCINvXINICs3o9EQk8eroe_14common_structss1S_0pEINtB8_15AccountPositionpENtNtNtNtNtCslPMlHj3qn2H_13multiversx_sc5types7managed7wrapped16managed_vec_item14ManagedVecItem16into_byte_writerppEs5_0B8_
FN:29,_RNCINvXINICs3o9EQk8eroe_14common_structss1S_0pEINtB8_15AccountPositionpENtNtNtNtNtCslPMlHj3qn2H_13multiversx_sc5types7managed7wrapped16managed_vec_item14ManagedVecItem16into_byte_writerppEs6_0B8_
FN:29,_RNCINvXINICs3o9EQk8eroe_14common_structss1S_0pEINtB8_15AccountPositionpENtNtNtNtNtCslPMlHj3qn2H_13multiversx_sc5types7managed7wrapped16managed_vec_item14ManagedVecItem16into_byte_writerppEs7_0B8_
FN:29,_RINvXINICs3o9EQk8eroe_14common_structss1T_0pEINtB6_15AccountPositionpENtNtNtCs5SUGlJDgeoS_19multiversx_sc_codec6single9nested_en12NestedEncode24dep_encode_or_handle_errppEB6_
FN:29,_RINvXINICs3o9EQk8eroe_14common_structss1U_0pEINtB6_15AccountPositionpENtNtNtCs5SUGlJDgeoS_19multiversx_sc_codec6single9nested_de12NestedDecode24dep_decode_or_handle_errppEB6_
FN:29,_RINvXINICs3o9EQk8eroe_14common_structss1V_0pEINtB6_15AccountPositionpENtNtNtCs5SUGlJDgeoS_19multiversx_sc_codec6single6top_en9TopEncode24top_encode_or_handle_errppEB6_
FN:29,_RINvXINICs3o9EQk8eroe_14common_structss1W_0pEINtB6_15AccountPositionpENtNtNtCs5SUGlJDgeoS_19multiversx_sc_codec6single6top_de9TopDecode24top_decode_or_handle_errppEB6_
FN:28,_RNvXINICs3o9EQk8eroe_14common_structss1R_0pEINtB5_15AccountPositionpENtNtNtCslPMlHj3qn2H_13multiversx_sc3abi8type_abi7TypeAbi9type_nameB5_
FN:28,_RINvXINICs3o9EQk8eroe_14common_structss1R_0pEINtB6_15AccountPositionpENtNtNtCslPMlHj3qn2H_13multiversx_sc3abi8type_abi7TypeAbi25provide_type_descriptionspEB6_
FN:44,_RNvMCs3o9EQk8eroe_14common_structsINtB2_15AccountPositionpE3newB2_
FN:70,_RNvMCs3o9EQk8eroe_14common_structsINtB2_15AccountPositionpE16get_total_amountB2_
FN:76,_RINvXINICs3o9EQk8eroe_14common_structss1J_0pEINtB6_11AssetConfigpENtNtNtNtNtCslPMlHj3qn2H_13multiversx_sc5types7managed7wrapped16managed_vec_item14ManagedVecItem16from_byte_readerpEB6_
FN:76,_RNCINvXINICs3o9EQk8eroe_14common_structss1J_0pEINtB8_11AssetConfigpENtNtNtNtNtCslPMlHj3qn2H_13multiversx_sc5types7managed7wrapped16managed_vec_item14ManagedVecItem16from_byte_readerpE0B8_
FN:76,_RNCINvXINICs3o9EQk8eroe_14common_structss1J_0pEINtB8_11AssetConfigpENtNtNtNtNtCslPMlHj3qn2H_13multiversx_sc5types7managed7wrapped16managed_vec_item14ManagedVecItem16from_byte_readerpEs_0B8_
FN:76,_RNCINvXINICs3o9EQk8eroe_14common_structss1J_0pEINtB8_11AssetConfigpENtNtNtNtNtCslPMlHj3qn2H_13multiversx_sc5types7managed7wrapped16managed_vec_item14ManagedVecItem16from_byte_readerpEs0_0B8_
FN:76,_RNCINvXINICs3o9EQk8eroe_14common_structss1J_0pEINtB8_11AssetConfigpENtNtNtNtNtCslPMlHj3qn2H_13multiversx_sc5types7managed7wrapped16managed_vec_item14ManagedVecItem16from_byte_readerpEs1_0B8_
FN:76,_RNCINvXINICs3o9EQk8eroe_14common_structss1J_0pEINtB8_11AssetConfigpENtNtNtNtNtCslPMlHj3qn2H_13multiversx_sc5types7managed7wrapped16managed_vec_item14ManagedVecItem16from_byte_readerpEs2_0B8_
FN:76,_RNCINvXINICs3o9EQk8eroe_14common_structss1J_0pEINtB8_11AssetConfigpENtNtNtNtNtCslPMlHj3qn2H_13multiversx_sc5types7managed7wrapped16managed_vec_item14ManagedVecItem16from_byte_readerpEs3_0B8_
FN:76,_RNCINvXINICs3o9EQk8eroe_14common_structss1J_0pEINtB8_11AssetConfigpENtNtNtNtNtCslPMlHj3qn2H_13multiversx_sc5types7managed7wrapped16managed_vec_item14ManagedVecItem16from_byte_readerpEs4_0B8_
FN:76,_RNCINvXINICs3o9EQk8eroe_14common_structss1J_0pEINtB8_11AssetConfigpENtNtNtNtNtCslPMlHj3qn2H_13multiversx_sc5types7managed7wrapped16managed_vec_item14ManagedVecItem16from_byte_readerpEs5_0B8_
FN:76,_RNCINvXINICs3o9EQk8eroe_14common_structss1J_0pEINtB8_11AssetConfigpENtNtNtNtNtCslPMlHj3qn2H_13multiversx_sc5types7managed7wrapped16managed_vec_item14ManagedVecItem16from_byte_readerpEs6_0B8_
FN:76,_RNCINvXINICs3o9EQk8eroe_14common_structss1J_0pEINtB8_11AssetConfigpENtNtNtNtNtCslPMlHj3qn2H_13multiversx_sc5types7managed7wrapped16managed_vec_item14ManagedVecItem16from_byte_readerpEs7_0B8_
FN:76,_RNCINvXINICs3o9EQk8eroe_14common_structss1J_0pEINtB8_11AssetConfigpENtNtNtNtNtCslPMlHj3qn2H_13multiversx_sc5types7managed7wrapped16managed_vec_item14ManagedVecItem16from_byte_readerpEs8_0B8_
FN:76,_RNCINvXINICs3o9EQk8eroe_14common_structss1J_0pEINtB8_11AssetConfigpENtNtNtNtNtCslPMlHj3qn2H_13multiversx_sc5types7managed7wrapped16managed_vec_item14ManagedVecItem16from_byte_readerpEs9_0B8_
FN:76,_RNCINvXINICs3o9EQk8eroe_14common_structss1J_0pEINtB8_11AssetConfigpENtNtNtNtNtCslPMlHj3qn2H_13multiversx_sc5types7managed7wrapped16managed_vec_item14ManagedVecItem16from_byte_readerpEsa_0B8_
FN:76,_RNCINvXINICs3o9EQk8eroe_14common_structss1J_0pEINtB8_11AssetConfigpENtNtNtNtNtCslPMlHj3qn2H_13multiversx_sc5types7managed7wrapped16managed_vec_item14ManagedVecItem16from_byte_readerpEsb_0B8_
FN:76,_RNCINvXINICs3o9EQk8eroe_14common_structss1J_0pEINtB8_11AssetConfigpENtNtNtNtNtCslPMlHj3qn2H_13multiversx_sc5types7managed7wrapped16managed_vec_item14ManagedVecItem16from_byte_readerpEsc_0B8_
FN:76,_RINvXINICs3o9EQk8eroe_14common_structss1J_0pEINtB6_11AssetConfigpENtNtNtNtNtCslPMlHj3qn2H_13multiversx_sc5types7managed7wrapped16managed_vec_item14ManagedVecItem26from_byte_reader_as_borrowpEB6_
FN:76,_RINvXINICs3o9EQk8eroe_14common_structss1J_0pEINtB6_11AssetConfigpENtNtNtNtNtCslPMlHj3qn2H_13multiversx_sc5types7managed7wrapped16managed_vec_item14ManagedVecItem16into_byte_writerppEB6_
FN:76,_RNCINvXINICs3o9EQk8eroe_14common_structss1J_0pEINtB8_11AssetConfigpENtNtNtNtNtCslPMlHj3qn2H_13multiversx_sc5types7managed7wrapped16managed_vec_item14ManagedVecItem16into_byte_writerppE0B8_
FN:76,_RNCINvXINICs3o9EQk8eroe_14common_structss1J_0pEINtB8_11AssetConfigpENtNtNtNtNtCslPMlHj3qn2H_13multiversx_sc5types7managed7wrapped16managed_vec_item14ManagedVecItem16into_byte_writerppEs_0B8_
FN:76,_RNCINvXINICs3o9EQk8eroe_14common_structss1J_0pEINtB8_11AssetConfigpENtNtNtNtNtCslPMlHj3qn2H_13multiversx_sc5types7managed7wrapped16managed_vec_item14ManagedVecItem16into_byte_writerppEs0_0B8_
FN:76,_RNCINvXINICs3o9EQk8eroe_14common_structss1J_0pEINtB8_11AssetConfigpENtNtNtNtNtCslPMlHj3qn2H_13multiversx_sc5types7managed7wrapped16managed_vec_item14ManagedVecItem16into_byte_writerppEs1_0B8_
FN:76,_RNCINvXINICs3o9EQk8eroe_14common_structss1J_0pEINtB8_11AssetConfigpENtNtNtNtNtCslPMlHj3qn2H_13multiversx_sc5types7managed7wrapped16managed_vec_item14ManagedVecItem16into_byte_writerppEs2_0B8_
FN:76,_RNCINvXINICs3o9EQk8eroe_14common_structss1J_0pEINtB8_11AssetConfigpENtNtNtNtNtCslPMlHj3qn2H_13multiversx_sc5types7managed7wrapped16managed_vec_item14ManagedVecItem16into_byte_writerppEs3_0B8_
FN:76,_RNCINvXINICs3o9EQk8eroe_14common_structss1J_0pEINtB8_11AssetConfigpENtNtNtNtNtCslPMlHj3qn2H_13multiversx_sc5types7managed7wrapped16managed_vec_item14ManagedVecItem16into_byte_writerppEs4_0B8_
FN:76,_RNCINvXINICs3o9EQk8eroe_14common_structss1J_0pEINtB8_11AssetConfigpENtNtNtNtNtCslPMlHj3qn2H_13multiversx_sc5types7managed7wrapped16managed_vec_item14ManagedVecItem16into_byte_writerppEs5_0B8_
FN:76,_RNCINvXINICs3o9EQk8eroe_14common_structss1J_0pEINtB8_11AssetConfigpENtNtNtNtNtCslPMlHj3qn2H_13multiversx_sc5types7managed7wrapped16managed_vec_item14ManagedVecItem16into_byte_writerppEs6_0B8_
FN:76,_RNCINvXINICs3o9EQk8eroe_14common_structss1J_0pEINtB8_11AssetConfigpENtNtNtNtNtCslPMlHj3qn2H_13multiversx_sc5types7managed7wrapped16managed_vec_item14ManagedVecItem16into_byte_writerppEs7_0B8_
FN:76,_RNCINvXINICs3o9EQk8eroe_14common_structss1J_0pEINtB8_11AssetConfigpENtNtNtNtNtCslPMlHj3qn2H_13multiversx_sc5types7managed7wrapped16managed_vec_item14ManagedVecItem16into_byte_writerppEs8_0B8_
FN:76,_RNCINvXINICs3o9EQk8eroe_14common_structss1J_0pEINtB8_11AssetConfigpENtNtNtNtNtCslPMlHj3qn2H_13multiversx_sc5types7managed7wrapped16managed_vec_item14ManagedVecItem16into_byte_writerppEs9_0B8_
FN:76,_RNCINvXINICs3o9EQk8eroe_14common_structss1J_0pEINtB8_11AssetConfigpENtNtNtNtNtCslPMlHj3qn2H_13multiversx_sc5types7managed7wrapped16managed_vec_item14ManagedVecItem16into_byte_writerppEsa_0B8_
FN:76,_RNCINvXINICs3o9EQk8eroe_14common_structss1J_0pEINtB8_11AssetConfigpENtNtNtNtNtCslPMlHj3qn2H_13multiversx_sc5types7managed7wrapped16managed_vec_item14ManagedVecItem16into_byte_writerppEsb_0B8_
FN:76,_RNCINvXINICs3o9EQk8eroe_14common_structss1J_0pEINtB8_11AssetConfigpENtNtNtNtNtCslPMlHj3qn2H_13multiversx_sc5types7managed7wrapped16managed_vec_item14ManagedVecItem16into_byte_writerppEsc_0B8_
FN:76,_RINvXINICs3o9EQk8eroe_14common_structss1K_0pEINtB6_11AssetConfigpENtNtNtCs5SUGlJDgeoS_19multiversx_sc_codec6single6top_en9TopEncode24top_encode_or_handle_errppEB6_
FN:76,_RINvXINICs3o9EQk8eroe_14common_structss1L_0pEINtB6_11AssetConfigpENtNtNtCs5SUGlJDgeoS_19multiversx_sc_codec6single6top_de9TopDecode24top_decode_or_handle_errppEB6_
FN:76,_RINvXINICs3o9EQk8eroe_14common_structss1M_0pEINtB6_11AssetConfigpENtNtNtCs5SUGlJDgeoS_19multiversx_sc_codec6single9nested_en12NestedEncode24dep_encode_or_handle_errppEB6_
FN:76,_RINvXINICs3o9EQk8eroe_14common_structss1N_0pEINtB6_11AssetConfigpENtNtNtCs5SUGlJDgeoS_19multiversx_sc_codec6single9nested_de12NestedDecode24dep_decode_or_handle_errppEB6_
FN:75,_RNvXINICs3o9EQk8eroe_14common_structss1I_0pEINtB5_11AssetConfigpENtNtNtCslPMlHj3qn2H_13multiversx_sc3abi8type_abi7TypeAbi9type_nameB5_
FN:75,_RINvXINICs3o9EQk8eroe_14common_structss1I_0pEINtB6_11AssetConfigpENtNtNtCslPMlHj3qn2H_13multiversx_sc3abi8type_abi7TypeAbi25provide_type_descriptionspEB6_
FN:111,_RINvXINICs3o9EQk8eroe_14common_structss1B_0pEINtB6_23AssetExtendedConfigViewpENtNtNtNtNtCslPMlHj3qn2H_13multiversx_sc5types7managed7wrapped16managed_vec_item14ManagedVecItem16from_byte_readerpEB6_
FN:111,_RNCINvXINICs3o9EQk8eroe_14common_structss1B_0pEINtB8_23AssetExtendedConfigViewpENtNtNtNtNtCslPMlHj3qn2H_13multiversx_sc5types7managed7wrapped16managed_vec_item14ManagedVecItem16from_byte_readerpE0B8_
FN:111,_RNCINvXINICs3o9EQk8eroe_14common_structss1B_0pEINtB8_23AssetExtendedConfigViewpENtNtNtNtNtCslPMlHj3qn2H_13multiversx_sc5types7managed7wrapped16managed_vec_item14ManagedVecItem16from_byte_readerpEs_0B8_
FN:111,_RNCINvXINICs3o9EQk8eroe_14common_structss1B_0pEINtB8_23AssetExtendedConfigViewpENtNtNtNtNtCslPMlHj3qn2H_13multiversx_sc5types7managed7wrapped16managed_vec_item14ManagedVecItem16from_byte_readerpEs0_0B8_
FN:111,_RNCINvXINICs3o9EQk8eroe_14common_structss1B_0pEINtB8_23AssetExtendedConfigViewpENtNtNtNtNtCslPMlHj3qn2H_13multiversx_sc5types7managed7wrapped16managed_vec_item14ManagedVecItem16from_byte_readerpEs1_0B8_
FN:111,_RINvXINICs3o9EQk8eroe_14common_structss1B_0pEINtB6_23AssetExtendedConfigViewpENtNtNtNtNtCslPMlHj3qn2H_13multiversx_sc5types7managed7wrapped16managed_vec_item14ManagedVecItem26from_byte_reader_as_borrowpEB6_
FN:111,_RINvXINICs3o9EQk8eroe_14common_structss1B_0pEINtB6_23AssetExtendedConfigViewpENtNtNtNtNtCslPMlHj3qn2H_13multiversx_sc5types7managed7wrapped16managed_vec_item14ManagedVecItem16into_byte_writerppEB6_
FN:111,_RNCINvXINICs3o9EQk8eroe_14common_structss1B_0pEINtB8_23AssetExtendedConfigViewpENtNtNtNtNtCslPMlHj3qn2H_13multiversx_sc5types7managed7wrapped16managed_vec_item14ManagedVecItem16into_byte_writerppE0B8_
FN:111,_RNCINvXINICs3o9EQk8eroe_14common_structss1B_0pEINtB8_23AssetExtendedConfigViewpENtNtNtNtNtCslPMlHj3qn2H_13multiversx_sc5types7managed7wrapped16managed_vec_item14ManagedVecItem16into_byte_writerppEs_0B8_
FN:111,_RNCINvXINICs3o9EQk8eroe_14common_structss1B_0pEINtB8_23AssetExtendedConfigViewpENtNtNtNtNtCslPMlHj3qn2H_13multiversx_sc5types7managed7wrapped16managed_vec_item14ManagedVecItem16into_byte_writerppEs0_0B8_
FN:111,_RNCINvXINICs3o9EQk8eroe_14common_structss1B_0pEINtB8_23AssetExtendedConfigViewpENtNtNtNtNtCslPMlHj3qn2H_13multiversx_sc5types7managed7wrapped16managed_vec_item14ManagedVecItem16into_byte_writerppEs1_0B8_
FN:111,_RINvXINICs3o9EQk8eroe_14common_structss1C_0pEINtB6_23AssetExtendedConfigViewpENtNtNtCs5SUGlJDgeoS_19multiversx_sc_codec6single6top_en9TopEncode24top_encode_or_handle_errppEB6_
FN:111,_RINvXINICs3o9EQk8eroe_14common_structss1D_0pEINtB6_23AssetExtendedConfigViewpENtNtNtCs5SUGlJDgeoS_19multiversx_sc_codec6single6top_de9TopDecode24top_decode_or_handle_errppEB6_
FN:111,_RINvXINICs3o9EQk8eroe_14common_structss1E_0pEINtB6_23AssetExtendedConfigViewpENtNtNtCs5SUGlJDgeoS_19multiversx_sc_codec6single9nested_en12NestedEncode24dep_encode_or_handle_errppEB6_
FN:111,_RINvXINICs3o9EQk8eroe_14common_structss1F_0pEINtB6_23AssetExtendedConfigViewpENtNtNtCs5SUGlJDgeoS_19multiversx_sc_codec6single9nested_de12NestedDecode24dep_decode_or_handle_errppEB6_
FN:110,_RNvXINICs3o9EQk8eroe_14common_structss1A_0pEINtB5_23AssetExtendedConfigViewpENtNtNtCslPMlHj3qn2H_13multiversx_sc3abi8type_abi7TypeAbi9type_nameB5_
FN:110,_RINvXINICs3o9EQk8eroe_14common_structss1A_0pEINtB6_23AssetExtendedConfigViewpENtNtNtCslPMlHj3qn2H_13multiversx_sc3abi8type_abi7TypeAbi25provide_type_descriptionspEB6_
FN:120,_RINvXINICs3o9EQk8eroe_14common_structss1t_0pEINtB6_13EModeCategorypENtNtNtNtNtCslPMlHj3qn2H_13multiversx_sc5types7managed7wrapped16managed_vec_item14ManagedVecItem16from_byte_readerpEB6_
FN:120,_RNCINvXINICs3o9EQk8eroe_14common_structss1t_0pEINtB8_13EModeCategorypENtNtNtNtNtCslPMlHj3qn2H_13multiversx_sc5types7managed7wrapped16managed_vec_item14ManagedVecItem16from_byte_readerpE0B8_
FN:120,_RNCINvXINICs3o9EQk8eroe_14common_structss1t_0pEINtB8_13EModeCategorypENtNtNtNtNtCslPMlHj3qn2H_13multiversx_sc5types7managed7wrapped16managed_vec_item14ManagedVecItem16from_byte_readerpEs_0B8_
FN:120,_RNCINvXINICs3o9EQk8eroe_14common_structss1t_0pEINtB8_13EModeCategorypENtNtNtNtNtCslPMlHj3qn2H_13multiversx_sc5types7managed7wrapped16managed_vec_item14ManagedVecItem16from_byte_readerpEs0_0B8_
FN:120,_RNCINvXINICs3o9EQk8eroe_14common_structss1t_0pEINtB8_13EModeCategorypENtNtNtNtNtCslPMlHj3qn2H_13multiversx_sc5types7managed7wrapped16managed_vec_item14ManagedVecItem16from_byte_readerpEs1_0B8_
FN:120,_RNCINvXINICs3o9EQk8eroe_14common_structss1t_0pEINtB8_13EModeCategorypENtNtNtNtNtCslPMlHj3qn2H_13multiversx_sc5types7managed7wrapped16managed_vec_item14ManagedVecItem16from_byte_readerpEs2_0B8_
FN:120,_RINvXINICs3o9EQk8eroe_14common_structss1t_0pEINtB6_13EModeCategorypENtNtNtNtNtCslPMlHj3qn2H_13multiversx_sc5types7managed7wrapped16managed_vec_item14ManagedVecItem26from_byte_reader_as_borrowpEB6_
FN:120,_RINvXINICs3o9EQk8eroe_14common_structss1t_0pEINtB6_13EModeCategorypENtNtNtNtNtCslPMlHj3qn2H_13multiversx_sc5types7managed7wrapped16managed_vec_item14ManagedVecItem16into_byte_writerppEB6_
FN:120,_RNCINvXINICs3o9EQk8eroe_14common_structss1t_0pEINtB8_13EModeCategorypENtNtNtNtNtCslPMlHj3qn2H_13multiversx_sc5types7managed7wrapped16managed_vec_item14ManagedVecItem16into_byte_writerppE0B8_
FN:120,_RNCINvXINICs3o9EQk8eroe_14common_structss1t_0pEINtB8_13EModeCategorypENtNtNtNtNtCslPMlHj3qn2H_13multiversx_sc5types7managed7wrapped16managed_vec_item14ManagedVecItem16into_byte_writerppEs_0B8_
FN:120,_RNCINvXINICs3o9EQk8eroe_14common_structss1t_0pEINtB8_13EModeCategorypENtNtNtNtNtCslPMlHj3qn2H_13multiversx_sc5types7managed7wrapped16managed_vec_item14ManagedVecItem16into_byte_writerppEs0_0B8_
FN:120,_RNCINvXINICs3o9EQk8eroe_14common_structss1t_0pEINtB8_13EModeCategorypENtNtNtNtNtCslPMlHj3qn2H_13multiversx_sc5types7managed7wrapped16managed_vec_item14ManagedVecItem16into_byte_writerppEs1_0B8_
FN:120,_RNCINvXINICs3o9EQk8eroe_14common_structss1t_0pEINtB8_13EModeCategorypENtNtNtNtNtCslPMlHj3qn2H_13multiversx_sc5types7managed7wrapped16managed_vec_item14ManagedVecItem16into_byte_writerppEs2_0B8_
FN:120,_RINvXINICs3o9EQk8eroe_14common_structss1u_0pEINtB6_13EModeCategorypENtNtNtCs5SUGlJDgeoS_19multiversx_sc_codec6single6top_en9TopEncode24top_encode_or_handle_errppEB6_
FN:120,_RINvXINICs3o9EQk8eroe_14common_structss1v_0pEINtB6_13EModeCategorypENtNtNtCs5SUGlJDgeoS_19multiversx_sc_codec6single6top_de9TopDecode24top_decode_or_handle_errppEB6_
FN:120,_RINvXINICs3o9EQk8eroe_14common_structss1w_0pEINtB6_13EModeCategorypENtNtNtCs5SUGlJDgeoS_19multiversx_sc_codec6single9nested_en12NestedEncode24dep_encode_or_handle_errppEB6_
FN:120,_RINvXINICs3o9EQk8eroe_14common_structss1x_0pEINtB6_13EModeCategorypENtNtNtCs5SUGlJDgeoS_19multiversx_sc_codec6single9nested_de12NestedDecode24dep_decode_or_handle_errppEB6_
FN:119,_RNvXINICs3o9EQk8eroe_14common_structss1s_0pEINtB5_13EModeCategorypENtNtNtCslPMlHj3qn2H_13multiversx_sc3abi8type_abi7TypeAbi9type_nameB5_
FN:119,_RINvXINICs3o9EQk8eroe_14common_structss1s_0pEINtB6_13EModeCategorypENtNtNtCslPMlHj3qn2H_13multiversx_sc3abi8type_abi7TypeAbi25provide_type_descriptionspEB6_
FN:130,_RINvXs1l_Cs3o9EQk8eroe_14common_structsNtB7_16EModeAssetConfigNtNtNtNtNtCslPMlHj3qn2H_13multiversx_sc5types7managed7wrapped16managed_vec_item14ManagedVecItem16from_byte_readerpEB7_
FN:130,_RNCINvXs1l_Cs3o9EQk8eroe_14common_structsNtB9_16EModeAssetConfigNtNtNtNtNtCslPMlHj3qn2H_13multiversx_sc5types7managed7wrapped16managed_vec_item14ManagedVecItem16from_byte_readerpE0B9_
FN:130,_RNCINvXs1l_Cs3o9EQk8eroe_14common_structsNtB9_16EModeAssetConfigNtNtNtNtNtCslPMlHj3qn2H_13multiversx_sc5types7managed7wrapped16managed_vec_item14ManagedVecItem16from_byte_readerpEs_0B9_
FN:130,_RINvXs1l_Cs3o9EQk8eroe_14common_structsNtB7_16EModeAssetConfigNtNtNtNtNtCslPMlHj3qn2H_13multiversx_sc5types7managed7wrapped16managed_vec_item14ManagedVecItem26from_byte_reader_as_borrowpEB7_
FN:130,_RINvXs1l_Cs3o9EQk8eroe_14common_structsNtB7_16EModeAssetConfigNtNtNtNtNtCslPMlHj3qn2H_13multiversx_sc5types7managed7wrapped16managed_vec_item14ManagedVecItem16into_byte_writerppEB7_
FN:130,_RNCINvXs1l_Cs3o9EQk8eroe_14common_structsNtB9_16EModeAssetConfigNtNtNtNtNtCslPMlHj3qn2H_13multiversx_sc5types7managed7wrapped16managed_vec_item14ManagedVecItem16into_byte_writerppE0B9_
FN:130,_RNCINvXs1l_Cs3o9EQk8eroe_14common_structsNtB9_16EModeAssetConfigNtNtNtNtNtCslPMlHj3qn2H_13multiversx_sc5types7managed7wrapped16managed_vec_item14ManagedVecItem16into_byte_writerppEs_0B9_
FN:130,_RINvXs1m_Cs3o9EQk8eroe_14common_structsNtB7_16EModeAssetConfigNtNtNtCs5SUGlJDgeoS_19multiversx_sc_codec6single6top_en9TopEncode24top_encode_or_handle_errppEB7_
FN:130,_RINvXs1n_Cs3o9EQk8eroe_14common_structsNtB7_16EModeAssetConfigNtNtNtCs5SUGlJDgeoS_19multiversx_sc_codec6single6top_de9TopDecode24top_decode_or_handle_errppEB7_
FN:130,_RINvXs1o_Cs3o9EQk8eroe_14common_structsNtB7_16EModeAssetConfigNtNtNtCs5SUGlJDgeoS_19multiversx_sc_codec6single9nested_en12NestedEncode24dep_encode_or_handle_errppEB7_
FN:130,_RINvXs1p_Cs3o9EQk8eroe_14common_structsNtB7_16EModeAssetConfigNtNtNtCs5SUGlJDgeoS_19multiversx_sc_codec6single9nested_de12NestedDecode24dep_decode_or_handle_errppEB7_
FN:129,_RNvXs1k_Cs3o9EQk8eroe_14common_structsNtB6_16EModeAssetConfigNtNtNtCslPMlHj3qn2H_13multiversx_sc3abi8type_abi7TypeAbi9type_name
FN:129,_RINvXs1k_Cs3o9EQk8eroe_14common_structsNtB7_16EModeAssetConfigNtNtNtCslPMlHj3qn2H_13multiversx_sc3abi8type_abi7TypeAbi25provide_type_descriptionspEB7_
FN:137,_RINvXs1d_Cs3o9EQk8eroe_14common_structsNtB7_20NftAccountAttributesNtNtNtCs5SUGlJDgeoS_19multiversx_sc_codec6single9nested_en12NestedEncode24dep_encode_or_handle_errppEB7_
FN:137,_RINvXs1e_Cs3o9EQk8eroe_14common_structsNtB7_20NftAccountAttributesNtNtNtCs5SUGlJDgeoS_19multiversx_sc_codec6single9nested_de12NestedDecode24dep_decode_or_handle_errppEB7_
FN:137,_RINvXs1f_Cs3o9EQk8eroe_14common_structsNtB7_20NftAccountAttributesNtNtNtCs5SUGlJDgeoS_19multiversx_sc_codec6single6top_en9TopEncode24top_encode_or_handle_errppEB7_
FN:137,_RINvXs1g_Cs3o9EQk8eroe_14common_structsNtB7_20NftAccountAttributesNtNtNtCs5SUGlJDgeoS_19multiversx_sc_codec6single6top_de9TopDecode24top_decode_or_handle_errppEB7_
FN:136,_RNvXs1c_Cs3o9EQk8eroe_14common_structsNtB6_20NftAccountAttributesNtNtNtCslPMlHj3qn2H_13multiversx_sc3abi8type_abi7TypeAbi9type_name
FN:136,_RINvXs1c_Cs3o9EQk8eroe_14common_structsNtB7_20NftAccountAttributesNtNtNtCslPMlHj3qn2H_13multiversx_sc3abi8type_abi7TypeAbi25provide_type_descriptionspEB7_
FN:146,_RINvXINICs3o9EQk8eroe_14common_structss10_0pEINtB6_25EgldOrEsdtTokenPaymentNewpENtNtNtNtNtCslPMlHj3qn2H_13multiversx_sc5types7managed7wrapped16managed_vec_item14ManagedVecItem16from_byte_readerpEB6_
FN:146,_RNCINvXINICs3o9EQk8eroe_14common_structss10_0pEINtB8_25EgldOrEsdtTokenPaymentNewpENtNtNtNtNtCslPMlHj3qn2H_13multiversx_sc5types7managed7wrapped16managed_vec_item14ManagedVecItem16from_byte_readerpE0B8_
FN:146,_RNCINvXINICs3o9EQk8eroe_14common_structss10_0pEINtB8_25EgldOrEsdtTokenPaymentNewpENtNtNtNtNtCslPMlHj3qn2H_13multiversx_sc5types7managed7wrapped16managed_vec_item14ManagedVecItem16from_byte_readerpEs_0B8_
FN:146,_RNCINvXINICs3o9EQk8eroe_14common_structss10_0pEINtB8_25EgldOrEsdtTokenPaymentNewpENtNtNtNtNtCslPMlHj3qn2H_13multiversx_sc5types7managed7wrapped16managed_vec_item14ManagedVecItem16from_byte_readerpEs0_0B8_
FN:146,_RINvXINICs3o9EQk8eroe_14common_structss10_0pEINtB6_25EgldOrEsdtTokenPaymentNewpENtNtNtNtNtCslPMlHj3qn2H_13multiversx_sc5types7managed7wrapped16managed_vec_item14ManagedVecItem26from_byte_reader_as_borrowpEB6_
FN:146,_RINvXINICs3o9EQk8eroe_14common_structss10_0pEINtB6_25EgldOrEsdtTokenPaymentNewpENtNtNtNtNtCslPMlHj3qn2H_13multiversx_sc5types7managed7wrapped16managed_vec_item14ManagedVecItem16into_byte_writerppEB6_
FN:146,_RNCINvXINICs3o9EQk8eroe_14common_structss10_0pEINtB8_25EgldOrEsdtTokenPaymentNewpENtNtNtNtNtCslPMlHj3qn2H_13multiversx_sc5types7managed7wrapped16managed_vec_item14ManagedVecItem16into_byte_writerppE0B8_
FN:146,_RNCINvXINICs3o9EQk8eroe_14common_structss10_0pEINtB8_25EgldOrEsdtTokenPaymentNewpENtNtNtNtNtCslPMlHj3qn2H_13multiversx_sc5types7managed7wrapped16managed_vec_item14ManagedVecItem16into_byte_writerppEs_0B8_
FN:146,_RNCINvXINICs3o9EQk8eroe_14common_structss10_0pEINtB8_25EgldOrEsdtTokenPaymentNewpENtNtNtNtNtCslPMlHj3qn2H_13multiversx_sc5types7managed7wrapped16managed_vec_item14ManagedVecItem16into_byte_writerppEs0_0B8_
FN:146,_RINvXINICs3o9EQk8eroe_14common_structss11_0pEINtB6_25EgldOrEsdtTokenPaymentNewpENtNtNtCs5SUGlJDgeoS_19multiversx_sc_codec6single6top_de9TopDecode24top_decode_or_handle_errppEB6_
FN:146,_RINvXINICs3o9EQk8eroe_14common_structss12_0pEINtB6_25EgldOrEsdtTokenPaymentNewpENtNtNtCs5SUGlJDgeoS_19multiversx_sc_codec6single6top_en9TopEncode24top_encode_or_handle_errppEB6_
FN:146,_RINvXINICs3o9EQk8eroe_14common_structss13_0pEINtB6_25EgldOrEsdtTokenPaymentNewpENtNtNtCs5SUGlJDgeoS_19multiversx_sc_codec6single9nested_de12NestedDecode24dep_decode_or_handle_errppEB6_
FN:146,_RINvXINICs3o9EQk8eroe_14common_structss14_0pEINtB6_25EgldOrEsdtTokenPaymentNewpENtNtNtCs5SUGlJDgeoS_19multiversx_sc_codec6single9nested_en12NestedEncode24dep_encode_or_handle_errppEB6_
FN:144,_RNvXINICs3o9EQk8eroe_14common_structssZ_0pEINtB5_25EgldOrEsdtTokenPaymentNewpENtNtNtCslPMlHj3qn2H_13multiversx_sc3abi8type_abi7TypeAbi9type_nameB5_
FN:144,_RINvXINICs3o9EQk8eroe_14common_structssZ_0pEINtB6_25EgldOrEsdtTokenPaymentNewpENtNtNtCslPMlHj3qn2H_13multiversx_sc3abi8type_abi7TypeAbi25provide_type_descriptionspEB6_
FN:156,_RINvXsO_Cs3o9EQk8eroe_14common_structsNtB6_13PricingMethodNtNtNtNtNtCslPMlHj3qn2H_13multiversx_sc5types7managed7wrapped16managed_vec_item14ManagedVecItem16from_byte_readerpEB6_
FN:156,_RINvXsO_Cs3o9EQk8eroe_14common_structsNtB6_13PricingMethodNtNtNtNtNtCslPMlHj3qn2H_13multiversx_sc5types7managed7wrapped16managed_vec_item14ManagedVecItem26from_byte_reader_as_borrowpEB6_
FN:156,_RINvXsO_Cs3o9EQk8eroe_14common_structsNtB6_13PricingMethodNtNtNtNtNtCslPMlHj3qn2H_13multiversx_sc5types7managed7wrapped16managed_vec_item14ManagedVecItem16into_byte_writerppEB6_
FN:156,_RINvXsP_Cs3o9EQk8eroe_14common_structsNtB6_13PricingMethodNtNtNtCs5SUGlJDgeoS_19multiversx_sc_codec6single9nested_en12NestedEncode24dep_encode_or_handle_errppEB6_
FN:156,_RINvXsQ_Cs3o9EQk8eroe_14common_structsNtB6_13PricingMethodNtNtNtCs5SUGlJDgeoS_19multiversx_sc_codec6single9nested_de12NestedDecode24dep_decode_or_handle_errppEB6_
FN:156,_RINvXsR_Cs3o9EQk8eroe_14common_structsNtB6_13PricingMethodNtNtNtCs5SUGlJDgeoS_19multiversx_sc_codec6single6top_en9TopEncode24top_encode_or_handle_errppEB6_
FN:156,_RINvXsS_Cs3o9EQk8eroe_14common_structsNtB6_13PricingMethodNtNtNtCs5SUGlJDgeoS_19multiversx_sc_codec6single6top_de9TopDecode24top_decode_or_handle_errppEB6_
FN:154,_RNvXsN_Cs3o9EQk8eroe_14common_structsNtB5_13PricingMethodNtNtNtCslPMlHj3qn2H_13multiversx_sc3abi8type_abi7TypeAbi9type_name
FN:154,_RINvXsN_Cs3o9EQk8eroe_14common_structsNtB6_13PricingMethodNtNtNtCslPMlHj3qn2H_13multiversx_sc3abi8type_abi7TypeAbi25provide_type_descriptionspEB6_
FN:168,_RINvXsC_Cs3o9EQk8eroe_14common_structsNtB6_10OracleTypeNtNtNtNtNtCslPMlHj3qn2H_13multiversx_sc5types7managed7wrapped16managed_vec_item14ManagedVecItem16from_byte_readerpEB6_
FN:168,_RINvXsC_Cs3o9EQk8eroe_14common_structsNtB6_10OracleTypeNtNtNtNtNtCslPMlHj3qn2H_13multiversx_sc5types7managed7wrapped16managed_vec_item14ManagedVecItem26from_byte_reader_as_borrowpEB6_
FN:168,_RINvXsC_Cs3o9EQk8eroe_14common_structsNtB6_10OracleTypeNtNtNtNtNtCslPMlHj3qn2H_13multiversx_sc5types7managed7wrapped16managed_vec_item14ManagedVecItem16into_byte_writerppEB6_
FN:168,_RINvXsD_Cs3o9EQk8eroe_14common_structsNtB6_10OracleTypeNtNtNtCs5SUGlJDgeoS_19multiversx_sc_codec6single9nested_en12NestedEncode24dep_encode_or_handle_errppEB6_
FN:168,_RINvXsE_Cs3o9EQk8eroe_14common_structsNtB6_10OracleTypeNtNtNtCs5SUGlJDgeoS_19multiversx_sc_codec6single9nested_de12NestedDecode24dep_decode_or_handle_errppEB6_
FN:168,_RINvXsF_Cs3o9EQk8eroe_14common_structsNtB6_10OracleTypeNtNtNtCs5SUGlJDgeoS_19multiversx_sc_codec6single6top_en9TopEncode24top_encode_or_handle_errppEB6_
FN:168,_RINvXsG_Cs3o9EQk8eroe_14common_structsNtB6_10OracleTypeNtNtNtCs5SUGlJDgeoS_19multiversx_sc_codec6single6top_de9TopDecode24top_decode_or_handle_errppEB6_
FN:166,_RNvXsB_Cs3o9EQk8eroe_14common_structsNtB5_10OracleTypeNtNtNtCslPMlHj3qn2H_13multiversx_sc3abi8type_abi7TypeAbi9type_name
FN:166,_RINvXsB_Cs3o9EQk8eroe_14common_structsNtB6_10OracleTypeNtNtNtCslPMlHj3qn2H_13multiversx_sc3abi8type_abi7TypeAbi25provide_type_descriptionspEB6_
FN:179,_RINvXsq_Cs3o9EQk8eroe_14common_structsNtB6_14ExchangeSourceNtNtNtNtNtCslPMlHj3qn2H_13multiversx_sc5types7managed7wrapped16managed_vec_item14ManagedVecItem16from_byte_readerpEB6_
FN:179,_RINvXsq_Cs3o9EQk8eroe_14common_structsNtB6_14ExchangeSourceNtNtNtNtNtCslPMlHj3qn2H_13multiversx_sc5types7managed7wrapped16managed_vec_item14ManagedVecItem26from_byte_reader_as_borrowpEB6_
FN:179,_RINvXsq_Cs3o9EQk8eroe_14common_structsNtB6_14ExchangeSourceNtNtNtNtNtCslPMlHj3qn2H_13multiversx_sc5types7managed7wrapped16managed_vec_item14ManagedVecItem16into_byte_writerppEB6_
FN:179,_RINvXsr_Cs3o9EQk8eroe_14common_structsNtB6_14ExchangeSourceNtNtNtCs5SUGlJDgeoS_19multiversx_sc_codec6single9nested_en12NestedEncode24dep_encode_or_handle_errppEB6_
FN:179,_RINvXss_Cs3o9EQk8eroe_14common_structsNtB6_14ExchangeSourceNtNtNtCs5SUGlJDgeoS_19multiversx_sc_codec6single9nested_de12NestedDecode24dep_decode_or_handle_errppEB6_
FN:179,_RINvXst_Cs3o9EQk8eroe_14common_structsNtB6_14ExchangeSourceNtNtNtCs5SUGlJDgeoS_19multiversx_sc_codec6single6top_en9TopEncode24top_encode_or_handle_errppEB6_
FN:179,_RINvXsu_Cs3o9EQk8eroe_14common_structsNtB6_14ExchangeSourceNtNtNtCs5SUGlJDgeoS_19multiversx_sc_codec6single6top_de9TopDecode24top_decode_or_handle_errppEB6_
FN:177,_RNvXsp_Cs3o9EQk8eroe_14common_structsNtB5_14ExchangeSourceNtNtNtCslPMlHj3qn2H_13multiversx_sc3abi8type_abi7TypeAbi9type_name
FN:177,_RINvXsp_Cs3o9EQk8eroe_14common_structsNtB6_14ExchangeSourceNtNtNtCslPMlHj3qn2H_13multiversx_sc3abi8type_abi7TypeAbi25provide_type_descriptionspEB6_
FN:190,_RINvXINICs3o9EQk8eroe_14common_structssi_0pEINtB6_14OracleProviderpENtNtNtNtNtCslPMlHj3qn2H_13multiversx_sc5types7managed7wrapped16managed_vec_item14ManagedVecItem16from_byte_readerpEB6_
FN:190,_RNCINvXINICs3o9EQk8eroe_14common_structssi_0pEINtB8_14OracleProviderpENtNtNtNtNtCslPMlHj3qn2H_13multiversx_sc5types7managed7wrapped16managed_vec_item14ManagedVecItem16from_byte_readerpE0B8_
FN:190,_RNCINvXINICs3o9EQk8eroe_14common_structssi_0pEINtB8_14OracleProviderpENtNtNtNtNtCslPMlHj3qn2H_13multiversx_sc5types7managed7wrapped16managed_vec_item14ManagedVecItem16from_byte_readerpEs_0B8_
FN:190,_RNCINvXINICs3o9EQk8eroe_14common_structssi_0pEINtB8_14OracleProviderpENtNtNtNtNtCslPMlHj3qn2H_13multiversx_sc5types7managed7wrapped16managed_vec_item14ManagedVecItem16from_byte_readerpEs0_0B8_
FN:190,_RNCINvXINICs3o9EQk8eroe_14common_structssi_0pEINtB8_14OracleProviderpENtNtNtNtNtCslPMlHj3qn2H_13multiversx_sc5types7managed7wrapped16managed_vec_item14ManagedVecItem16from_byte_readerpEs1_0B8_
FN:190,_RNCINvXINICs3o9EQk8eroe_14common_structssi_0pEINtB8_14OracleProviderpENtNtNtNtNtCslPMlHj3qn2H_13multiversx_sc5types7managed7wrapped16managed_vec_item14ManagedVecItem16from_byte_readerpEs2_0B8_
FN:190,_RNCINvXINICs3o9EQk8eroe_14common_structssi_0pEINtB8_14OracleProviderpENtNtNtNtNtCslPMlHj3qn2H_13multiversx_sc5types7managed7wrapped16managed_vec_item14ManagedVecItem16from_byte_readerpEs3_0B8_
FN:190,_RNCINvXINICs3o9EQk8eroe_14common_structssi_0pEINtB8_14OracleProviderpENtNtNtNtNtCslPMlHj3qn2H_13multiversx_sc5types7managed7wrapped16managed_vec_item14ManagedVecItem16from_byte_readerpEs4_0B8_
FN:190,_RNCINvXINICs3o9EQk8eroe_14common_structssi_0pEINtB8_14OracleProviderpENtNtNtNtNtCslPMlHj3qn2H_13multiversx_sc5types7managed7wrapped16managed_vec_item14ManagedVecItem16from_byte_readerpEs5_0B8_
FN:190,_RINvXINICs3o9EQk8eroe_14common_structssi_0pEINtB6_14OracleProviderpENtNtNtNtNtCslPMlHj3qn2H_13multiversx_sc5types7managed7wrapped16managed_vec_item14ManagedVecItem26from_byte_reader_as_borrowpEB6_
FN:190,_RINvXINICs3o9EQk8eroe_14common_structssi_0pEINtB6_14OracleProviderpENtNtNtNtNtCslPMlHj3qn2H_13multiversx_sc5types7managed7wrapped16managed_vec_item14ManagedVecItem16into_byte_writerppEB6_
FN:190,_RNCINvXINICs3o9EQk8eroe_14common_structssi_0pEINtB8_14OracleProviderpENtNtNtNtNtCslPMlHj3qn2H_13multiversx_sc5types7managed7wrapped16managed_vec_item14ManagedVecItem16into_byte_writerppE0B8_
FN:190,_RNCINvXINICs3o9EQk8eroe_14common_structssi_0pEINtB8_14OracleProviderpENtNtNtNtNtCslPMlHj3qn2H_13multiversx_sc5types7managed7wrapped16managed_vec_item14ManagedVecItem16into_byte_writerppEs_0B8_
FN:190,_RNCINvXINICs3o9EQk8eroe_14common_structssi_0pEINtB8_14OracleProviderpENtNtNtNtNtCslPMlHj3qn2H_13multiversx_sc5types7managed7wrapped16managed_vec_item14ManagedVecItem16into_byte_writerppEs0_0B8_
FN:190,_RNCINvXINICs3o9EQk8eroe_14common_structssi_0pEINtB8_14OracleProviderpENtNtNtNtNtCslPMlHj3qn2H_13multiversx_sc5types7managed7wrapped16managed_vec_item14ManagedVecItem16into_byte_writerppEs1_0B8_
FN:190,_RNCINvXINICs3o9EQk8eroe_14common_structssi_0pEINtB8_14OracleProviderpENtNtNtNtNtCslPMlHj3qn2H_13multiversx_sc5types7managed7wrapped16managed_vec_item14ManagedVecItem16into_byte_writerppEs2_0B8_
FN:190,_RNCINvXINICs3o9EQk8eroe_14common_structssi_0pEINtB8_14OracleProviderpENtNtNtNtNtCslPMlHj3qn2H_13multiversx_sc5types7managed7wrapped16managed_vec_item14ManagedVecItem16into_byte_writerppEs3_0B8_
FN:190,_RNCINvXINICs3o9EQk8eroe_14common_structssi_0pEINtB8_14OracleProviderpENtNtNtNtNtCslPMlHj3qn2H_13multiversx_sc5types7managed7wrapped16managed_vec_item14ManagedVecItem16into_byte_writerppEs4_0B8_
FN:190,_RNCINvXINICs3o9EQk8eroe_14common_structssi_0pEINtB8_14OracleProviderpENtNtNtNtNtCslPMlHj3qn2H_13multiversx_sc5types7managed7wrapped16managed_vec_item14ManagedVecItem16into_byte_writerppEs5_0B8_
FN:190,_RINvXINICs3o9EQk8eroe_14common_structssj_0pEINtB6_14OracleProviderpENtNtNtCs5SUGlJDgeoS_19multiversx_sc_codec6single6top_en9TopEncode24top_encode_or_handle_errppEB6_
FN:190,_RINvXINICs3o9EQk8eroe_14common_structssk_0pEINtB6_14OracleProviderpENtNtNtCs5SUGlJDgeoS_19multiversx_sc_codec6single6top_de9TopDecode24top_decode_or_handle_errppEB6_
FN:190,_RINvXINICs3o9EQk8eroe_14common_structssl_0pEINtB6_14OracleProviderpENtNtNtCs5SUGlJDgeoS_19multiversx_sc_codec6single9nested_en12NestedEncode24dep_encode_or_handle_errppEB6_
FN:190,_RINvXINICs3o9EQk8eroe_14common_structssm_0pEINtB6_14OracleProviderpENtNtNtCs5SUGlJDgeoS_19multiversx_sc_codec6single9nested_de12NestedDecode24dep_decode_or_handle_errppEB6_
FN:189,_RNvXINICs3o9EQk8eroe_14common_structssh_0pEINtB5_14OracleProviderpENtNtNtCslPMlHj3qn2H_13multiversx_sc3abi8type_abi7TypeAbi9type_nameB5_
FN:189,_RINvXINICs3o9EQk8eroe_14common_structssh_0pEINtB6_14OracleProviderpENtNtNtCslPMlHj3qn2H_13multiversx_sc3abi8type_abi7TypeAbi25provide_type_descriptionspEB6_
FN:203,_RINvXINICs3o9EQk8eroe_14common_structssa_0pEINtB6_14PriceFeedShortpENtNtNtCs5SUGlJDgeoS_19multiversx_sc_codec6single9nested_en12NestedEncode24dep_encode_or_handle_errppEB6_
FN:203,_RINvXINICs3o9EQk8eroe_14common_structssb_0pEINtB6_14PriceFeedShortpENtNtNtCs5SUGlJDgeoS_19multiversx_sc_codec6single9nested_de12NestedDecode24dep_decode_or_handle_errppEB6_
FN:203,_RINvXINICs3o9EQk8eroe_14common_structssc_0pEINtB6_14PriceFeedShortpENtNtNtCs5SUGlJDgeoS_19multiversx_sc_codec6single6top_en9TopEncode24top_encode_or_handle_errppEB6_
FN:203,_RINvXINICs3o9EQk8eroe_14common_structssd_0pEINtB6_14PriceFeedShortpENtNtNtCs5SUGlJDgeoS_19multiversx_sc_codec6single6top_de9TopDecode24top_decode_or_handle_errppEB6_
FN:202,_RNvXINICs3o9EQk8eroe_14common_structss9_0pEINtB5_14PriceFeedShortpENtNtNtCslPMlHj3qn2H_13multiversx_sc3abi8type_abi7TypeAbi9type_nameB5_
FN:202,_RINvXINICs3o9EQk8eroe_14common_structss9_0pEINtB6_14PriceFeedShortpENtNtNtCslPMlHj3qn2H_13multiversx_sc3abi8type_abi7TypeAbi25provide_type_descriptionspEB6_
FN:213,_RINvXINICs3o9EQk8eroe_14common_structss2_0pEINtB6_22OraclePriceFluctuationpENtNtNtNtNtCslPMlHj3qn2H_13multiversx_sc5types7managed7wrapped16managed_vec_item14ManagedVecItem16from_byte_readerpEB6_
FN:213,_RNCINvXINICs3o9EQk8eroe_14common_structss2_0pEINtB8_22OraclePriceFluctuationpENtNtNtNtNtCslPMlHj3qn2H_13multiversx_sc5types7managed7wrapped16managed_vec_item14ManagedVecItem16from_byte_readerpE0B8_
FN:213,_RNCINvXINICs3o9EQk8eroe_14common_structss2_0pEINtB8_22OraclePriceFluctuationpENtNtNtNtNtCslPMlHj3qn2H_13multiversx_sc5types7managed7wrapped16managed_vec_item14ManagedVecItem16from_byte_readerpEs_0B8_
FN:213,_RNCINvXINICs3o9EQk8eroe_14common_structss2_0pEINtB8_22OraclePriceFluctuationpENtNtNtNtNtCslPMlHj3qn2H_13multiversx_sc5types7managed7wrapped16managed_vec_item14ManagedVecItem16from_byte_readerpEs0_0B8_
FN:213,_RNCINvXINICs3o9EQk8eroe_14common_structss2_0pEINtB8_22OraclePriceFluctuationpENtNtNtNtNtCslPMlHj3qn2H_13multiversx_sc5types7managed7wrapped16managed_vec_item14ManagedVecItem16from_byte_readerpEs1_0B8_
FN:213,_RINvXINICs3o9EQk8eroe_14common_structss2_0pEINtB6_22OraclePriceFluctuationpENtNtNtNtNtCslPMlHj3qn2H_13multiversx_sc5types7managed7wrapped16managed_vec_item14ManagedVecItem26from_byte_reader_as_borrowpEB6_
FN:213,_RINvXINICs3o9EQk8eroe_14common_structss2_0pEINtB6_22OraclePriceFluctuationpENtNtNtNtNtCslPMlHj3qn2H_13multiversx_sc5types7managed7wrapped16managed_vec_item14ManagedVecItem16into_byte_writerppEB6_
FN:213,_RNCINvXINICs3o9EQk8eroe_14common_structss2_0pEINtB8_22OraclePriceFluctuationpENtNtNtNtNtCslPMlHj3qn2H_13multiversx_sc5types7managed7wrapped16managed_vec_item14ManagedVecItem16into_byte_writerppE0B8_
FN:213,_RNCINvXINICs3o9EQk8eroe_14common_structss2_0pEINtB8_22OraclePriceFluctuationpENtNtNtNtNtCslPMlHj3qn2H_13multiversx_sc5types7managed7wrapped16managed_vec_item14ManagedVecItem16into_byte_writerppEs_0B8_
FN:213,_RNCINvXINICs3o9EQk8eroe_14common_structss2_0pEINtB8_22OraclePriceFluctuationpENtNtNtNtNtCslPMlHj3qn2H_13multiversx_sc5types7managed7wrapped16managed_vec_item14ManagedVecItem16into_byte_writerppEs0_0B8_
FN:213,_RNCINvXINICs3o9EQk8eroe_14common_structss2_0pEINtB8_22OraclePriceFluctuationpENtNtNtNtNtCslPMlHj3qn2H_13multiversx_sc5types7managed7wrapped16managed_vec_item14ManagedVecItem16into_byte_writerppEs1_0B8_
FN:213,_RINvXINICs3o9EQk8eroe_14common_structss3_0pEINtB6_22OraclePriceFluctuationpENtNtNtCs5SUGlJDgeoS_19multiversx_sc_codec6single6top_en9TopEncode24top_encode_or_handle_errppEB6_
FN:213,_RINvXINICs3o9EQk8eroe_14common_structss4_0pEINtB6_22OraclePriceFluctuationpENtNtNtCs5SUGlJDgeoS_19multiversx_sc_codec6single6top_de9TopDecode24top_decode_or_handle_errppEB6_
FN:213,_RINvXINICs3o9EQk8eroe_14common_structss5_0pEINtB6_22OraclePriceFluctuationpENtNtNtCs5SUGlJDgeoS_19multiversx_sc_codec6single9nested_en12NestedEncode24dep_encode_or_handle_errppEB6_
FN:213,_RINvXINICs3o9EQk8eroe_14common_structss6_0pEINtB6_22OraclePriceFluctuationpENtNtNtCs5SUGlJDgeoS_19multiversx_sc_codec6single9nested_de12NestedDecode24dep_decode_or_handle_errppEB6_
FN:212,_RNvXINICs3o9EQk8eroe_14common_structss1_0pEINtB5_22OraclePriceFluctuationpENtNtNtCslPMlHj3qn2H_13multiversx_sc3abi8type_abi7TypeAbi9type_nameB5_
FN:212,_RINvXINICs3o9EQk8eroe_14common_structss1_0pEINtB6_22OraclePriceFluctuationpENtNtNtCslPMlHj3qn2H_13multiversx_sc3abi8type_abi7TypeAbi25provide_type_descriptionspEB6_
FN:146,_RINvXs10_Cs2eHPTk3TAlu_14common_structsINtB7_25EgldOrEsdtTokenPaymentNewINtNtNtNtCs1rODQd5oASQ_22multiversx_sc_scenario3api7impl_vh12vm_hooks_api10VMHooksApiNtNtB1d_9debug_api15DebugApiBackendEENtNtNtNtNtCslPMlHj3qn2H_13multiversx_sc5types7managed7wrapped16managed_vec_item14ManagedVecItem16from_byte_readerNCNvMs2_NtB3a_11managed_vecINtB53_10ManagedVecB18_BB_E7try_get0ECs8iyf5MSkCde_5tests
FN:146,_RINvXs10_Cs2eHPTk3TAlu_14common_structsINtB7_25EgldOrEsdtTokenPaymentNewINtNtNtNtCs1rODQd5oASQ_22multiversx_sc_scenario3api7impl_vh12vm_hooks_api10VMHooksApiNtNtB1d_9debug_api15DebugApiBackendEENtNtNtNtNtCslPMlHj3qn2H_13multiversx_sc5types7managed7wrapped16managed_vec_item14ManagedVecItem16from_byte_readerNCNvXs0_NtB3a_22managed_vec_owned_iterINtB53_23ManagedVecOwnedIteratorB18_BB_ENtNtNtNtCslGS7pEIChKc_4core4iter6traits8iterator8Iterator4next0ECs8iyf5MSkCde_5tests
FN:146,_RINvXs10_Cs2eHPTk3TAlu_14common_structsINtB7_25EgldOrEsdtTokenPaymentNewINtNtNtNtCs1rODQd5oASQ_22multiversx_sc_scenario3api7impl_vh12vm_hooks_api10VMHooksApiNtNtB1d_9debug_api15DebugApiBackendEENtNtNtNtNtCslPMlHj3qn2H_13multiversx_sc5types7managed7wrapped16managed_vec_item14ManagedVecItem16into_byte_writeruNCNvMs2_NtB3a_11managed_vecINtB54_10ManagedVecB18_BB_E4push0ECs8iyf5MSkCde_5tests
FN:146,_RINvXs10_Cs2eHPTk3TAlu_14common_structsINtB7_25EgldOrEsdtTokenPaymentNewINtNtNtNtCs1rODQd5oASQ_22multiversx_sc_scenario3api7impl_vh12vm_hooks_api10VMHooksApiNtNtB1d_9debug_api15DebugApiBackendEENtNtNtNtNtCslPMlHj3qn2H_13multiversx_sc5types7managed7wrapped16managed_vec_item14ManagedVecItem26from_byte_reader_as_borrowNCNvMs2_NtB3a_11managed_vecINtB5d_10ManagedVecB18_BB_E7try_get0ECs8iyf5MSkCde_5tests
FN:111,_RINvXs1B_Cs2eHPTk3TAlu_14common_structsINtB7_23AssetExtendedConfigViewINtNtNtNtCs1rODQd5oASQ_22multiversx_sc_scenario3api7impl_vh12vm_hooks_api10VMHooksApiNtNtB1b_9debug_api15DebugApiBackendEENtNtNtNtNtCslPMlHj3qn2H_13multiversx_sc5types7managed7wrapped16managed_vec_item14ManagedVecItem16from_byte_readerNCNvXs0_NtB38_22managed_vec_owned_iterINtB51_23ManagedVecOwnedIteratorB16_BB_ENtNtNtNtCslGS7pEIChKc_4core4iter6traits8iterator8Iterator4next0ECs8iyf5MSkCde_5tests
FN:111,_RINvXs1B_Cs2eHPTk3TAlu_14common_structsINtB7_23AssetExtendedConfigViewINtNtNtNtCs1rODQd5oASQ_22multiversx_sc_scenario3api7impl_vh12vm_hooks_api10VMHooksApiNtNtB1b_9debug_api15DebugApiBackendEENtNtNtNtNtCslPMlHj3qn2H_13multiversx_sc5types7managed7wrapped16managed_vec_item14ManagedVecItem16into_byte_writeruNCNvMs2_NtB38_11managed_vecINtB52_10ManagedVecB16_BB_E4push0ECs8iyf5MSkCde_5tests
FN:111,_RINvXs1E_Cs2eHPTk3TAlu_14common_structsINtB7_23AssetExtendedConfigViewINtNtNtNtCs1rODQd5oASQ_22multiversx_sc_scenario3api7impl_vh12vm_hooks_api10VMHooksApiNtNtB1b_9debug_api15DebugApiBackendEENtNtNtCs5SUGlJDgeoS_19multiversx_sc_codec6single9nested_en12NestedEncode24dep_encode_or_handle_errINtNtNtNtNtNtCslPMlHj3qn2H_13multiversx_sc5types7managed7wrapped7builder22managed_buffer_builder20ManagedBufferBuilderB16_EINtNtNtNtB4R_13contract_base8wrappers10serializer21ExitCodecErrorHandlerB16_EECs8iyf5MSkCde_5tests
FN:76,_RINvXs1J_Cs2eHPTk3TAlu_14common_structsINtB7_11AssetConfigINtNtNtNtCs1rODQd5oASQ_22multiversx_sc_scenario3api7impl_vh12vm_hooks_api10VMHooksApiNtNtBZ_9debug_api15DebugApiBackendEENtNtNtNtNtCslPMlHj3qn2H_13multiversx_sc5types7managed7wrapped16managed_vec_item14ManagedVecItem16from_byte_readerNCINvXs1B_B7_INtB7_23AssetExtendedConfigViewBU_EB2R_16from_byte_readerNCNvXs0_NtB2V_22managed_vec_owned_iterINtB5W_23ManagedVecOwnedIteratorBU_B4T_ENtNtNtNtCslGS7pEIChKc_4core4iter6traits8iterator8Iterator4next0E0ECs8iyf5MSkCde_5tests
FN:76,_RINvXs1J_Cs2eHPTk3TAlu_14common_structsINtB7_11AssetConfigINtNtNtNtCs1rODQd5oASQ_22multiversx_sc_scenario3api7impl_vh12vm_hooks_api10VMHooksApiNtNtBZ_9debug_api15DebugApiBackendEENtNtNtNtNtCslPMlHj3qn2H_13multiversx_sc5types7managed7wrapped16managed_vec_item14ManagedVecItem16into_byte_writeruNCINvXs1B_B7_INtB7_23AssetExtendedConfigViewBU_EB2R_16into_byte_writeruNCNvMs2_NtB2V_11managed_vecINtB5Y_10ManagedVecBU_B4U_E4push0E0ECs8iyf5MSkCde_5tests
FN:76,_RINvXs1K_Cs2eHPTk3TAlu_14common_structsINtB7_11AssetConfigINtNtNtNtCs1rODQd5oASQ_22multiversx_sc_scenario3api7impl_vh12vm_hooks_api10VMHooksApiNtNtBZ_9debug_api15DebugApiBackendEENtNtNtCs5SUGlJDgeoS_19multiversx_sc_codec6single6top_en9TopEncode24top_encode_or_handle_errINtNtNtCslPMlHj3qn2H_13multiversx_sc2io6finish16ApiOutputAdapterBU_EINtNtNtNtB4r_13contract_base8wrappers10serializer21ExitCodecErrorHandlerBU_EECs8iyf5MSkCde_5tests
FN:76,_RINvXs1K_Cs2eHPTk3TAlu_14common_structsINtB7_11AssetConfigINtNtNtNtCs1rODQd5oASQ_22multiversx_sc_scenario3api7impl_vh12vm_hooks_api10VMHooksApiNtNtBZ_9debug_api15DebugApiBackendEENtNtNtCs5SUGlJDgeoS_19multiversx_sc_codec6single6top_en9TopEncode24top_encode_or_handle_errINtNtNtCslPMlHj3qn2H_13multiversx_sc7storage11storage_set16StorageSetOutputBU_EINtNtNtNtB4r_13contract_base8wrappers10serializer21ExitCodecErrorHandlerBU_EECs8iyf5MSkCde_5tests
FN:76,_RINvXs1K_Cs2eHPTk3TAlu_14common_structsINtB7_11AssetConfigINtNtNtNtCs1rODQd5oASQ_22multiversx_sc_scenario3api7impl_vh12vm_hooks_api10VMHooksApiNtNtBZ_9debug_api15DebugApiBackendEENtNtNtCs5SUGlJDgeoS_19multiversx_sc_codec6single6top_en9TopEncode24top_encode_or_handle_errQINtNtNtNtNtCslPMlHj3qn2H_13multiversx_sc5types7managed5basic14managed_buffer13ManagedBufferBU_EINtNtNtNtB4w_13contract_base8wrappers10serializer21ExitCodecErrorHandlerBU_EECs8iyf5MSkCde_5tests
FN:76,_RINvXs1L_Cs2eHPTk3TAlu_14common_structsINtB7_11AssetConfigINtNtNtNtCs1rODQd5oASQ_22multiversx_sc_scenario3api7impl_vh12vm_hooks_api10VMHooksApiNtNtBZ_9debug_api15DebugApiBackendEENtNtNtCs5SUGlJDgeoS_19multiversx_sc_codec6single6top_de9TopDecode24top_decode_or_handle_errINtNtNtCslPMlHj3qn2H_13multiversx_sc7storage11storage_get15StorageGetInputBU_EINtB4n_22StorageGetErrorHandlerBU_EECs8iyf5MSkCde_5tests
FN:76,_RINvXs1M_Cs2eHPTk3TAlu_14common_structsINtB7_11AssetConfigINtNtNtNtCs1rODQd5oASQ_22multiversx_sc_scenario3api7impl_vh12vm_hooks_api10VMHooksApiNtNtBZ_9debug_api15DebugApiBackendEENtNtNtCs5SUGlJDgeoS_19multiversx_sc_codec6single9nested_en12NestedEncode24dep_encode_or_handle_errINtNtNtNtNtNtCslPMlHj3qn2H_13multiversx_sc5types7managed7wrapped7builder22managed_buffer_builder20ManagedBufferBuilderBU_EINtNtNtNtB4E_13contract_base8wrappers10serializer21ExitCodecErrorHandlerBU_EECs8iyf5MSkCde_5tests
FN:29,_RINvXs1S_Cs2eHPTk3TAlu_14common_structsINtB7_15AccountPositionINtNtNtNtCs1rODQd5oASQ_22multiversx_sc_scenario3api7impl_vh12vm_hooks_api10VMHooksApiNtNtB13_9debug_api15DebugApiBackendEENtNtNtNtNtCslPMlHj3qn2H_13multiversx_sc5types7managed7wrapped16managed_vec_item14ManagedVecItem16from_byte_readerNCNvMs2_NtB30_11managed_vecINtB4T_10ManagedVecBY_BB_E7try_get0ECs8iyf5MSkCde_5tests
FN:29,_RINvXs1S_Cs2eHPTk3TAlu_14common_structsINtB7_15AccountPositionINtNtNtNtCs1rODQd5oASQ_22multiversx_sc_scenario3api7impl_vh12vm_hooks_api10VMHooksApiNtNtB13_9debug_api15DebugApiBackendEENtNtNtNtNtCslPMlHj3qn2H_13multiversx_sc5types7managed7wrapped16managed_vec_item14ManagedVecItem16from_byte_readerNCNvXs0_NtB30_22managed_vec_owned_iterINtB4T_23ManagedVecOwnedIteratorBY_BB_ENtNtNtNtCslGS7pEIChKc_4core4iter6traits8iterator8Iterator4next0ECs8iyf5MSkCde_5tests
FN:29,_RINvXs1S_Cs2eHPTk3TAlu_14common_structsINtB7_15AccountPositionINtNtNtNtCs1rODQd5oASQ_22multiversx_sc_scenario3api7impl_vh12vm_hooks_api10VMHooksApiNtNtB13_9debug_api15DebugApiBackendEENtNtNtNtNtCslPMlHj3qn2H_13multiversx_sc5types7managed7wrapped16managed_vec_item14ManagedVecItem16into_byte_writerINtNtCslGS7pEIChKc_4core6result6ResultuNtNtNtNtB36_3api13managed_types18managed_buffer_api17InvalidSliceErrorENCNvMs2_NtB30_11managed_vecINtB6F_10ManagedVecBY_BB_E3set0ECs8iyf5MSkCde_5tests
FN:29,_RINvXs1S_Cs2eHPTk3TAlu_14common_structsINtB7_15AccountPositionINtNtNtNtCs1rODQd5oASQ_22multiversx_sc_scenario3api7impl_vh12vm_hooks_api10VMHooksApiNtNtB13_9debug_api15DebugApiBackendEENtNtNtNtNtCslPMlHj3qn2H_13multiversx_sc5types7managed7wrapped16managed_vec_item14ManagedVecItem16into_byte_writeruNCNvMs2_NtB30_11managed_vecINtB4U_10ManagedVecBY_BB_E4push0ECs8iyf5MSkCde_5tests
FN:29,_RINvXs1S_Cs2eHPTk3TAlu_14common_structsINtB7_15AccountPositionINtNtNtNtCs1rODQd5oASQ_22multiversx_sc_scenario3api7impl_vh12vm_hooks_api10VMHooksApiNtNtB13_9debug_api15DebugApiBackendEENtNtNtNtNtCslPMlHj3qn2H_13multiversx_sc5types7managed7wrapped16managed_vec_item14ManagedVecItem26from_byte_reader_as_borrowNCNvMs2_NtB30_11managed_vecINtB53_10ManagedVecBY_BB_E7try_get0ECs8iyf5MSkCde_5tests
FN:29,_RINvXs1T_Cs2eHPTk3TAlu_14common_structsINtB7_15AccountPositionINtNtNtNtCs1rODQd5oASQ_22multiversx_sc_scenario3api7impl_vh12vm_hooks_api10VMHooksApiNtNtB13_9debug_api15DebugApiBackendEENtNtNtCs5SUGlJDgeoS_19multiversx_sc_codec6single9nested_en12NestedEncode24dep_encode_or_handle_errINtNtNtNtNtNtCslPMlHj3qn2H_13multiversx_sc5types7managed7wrapped7builder22managed_buffer_builder20ManagedBufferBuilderBY_EINtNtNtNtB4J_13contract_base8wrappers10serializer21ExitCodecErrorHandlerBY_EECs8iyf5MSkCde_5tests
FN:29,_RINvXs1V_Cs2eHPTk3TAlu_14common_structsINtB7_15AccountPositionINtNtNtNtCs1rODQd5oASQ_22multiversx_sc_scenario3api7impl_vh12vm_hooks_api10VMHooksApiNtNtB13_9debug_api15DebugApiBackendEENtNtNtCs5SUGlJDgeoS_19multiversx_sc_codec6single6top_en9TopEncode24top_encode_or_handle_errINtNtNtCslPMlHj3qn2H_13multiversx_sc2io6finish16ApiOutputAdapterBY_EINtNtNtNtB4w_13contract_base8wrappers10serializer21ExitCodecErrorHandlerBY_EECs8iyf5MSkCde_5tests
FN:29,_RINvXs1V_Cs2eHPTk3TAlu_14common_structsINtB7_15AccountPositionINtNtNtNtCs1rODQd5oASQ_22multiversx_sc_scenario3api7impl_vh12vm_hooks_api10VMHooksApiNtNtB13_9debug_api15DebugApiBackendEENtNtNtCs5SUGlJDgeoS_19multiversx_sc_codec6single6top_en9TopEncode24top_encode_or_handle_errINtNtNtCslPMlHj3qn2H_13multiversx_sc7storage11storage_set16StorageSetOutputBY_EINtNtNtNtB4w_13contract_base8wrappers10serializer21ExitCodecErrorHandlerBY_EECs8iyf5MSkCde_5tests
FN:29,_RINvXs1V_Cs2eHPTk3TAlu_14common_structsINtB7_15AccountPositionINtNtNtNtCs1rODQd5oASQ_22multiversx_sc_scenario3api7impl_vh12vm_hooks_api10VMHooksApiNtNtB13_9debug_api15DebugApiBackendEENtNtNtCs5SUGlJDgeoS_19multiversx_sc_codec6single6top_en9TopEncode24top_encode_or_handle_errQINtNtNtNtNtCslPMlHj3qn2H_13multiversx_sc5types7managed5basic14managed_buffer13ManagedBufferBY_EINtNtNtNtB4B_13contract_base8wrappers10serializer21ExitCodecErrorHandlerBY_EECs8iyf5MSkCde_5tests
FN:29,_RINvXs1W_Cs2eHPTk3TAlu_14common_structsINtB7_15AccountPositionINtNtNtNtCs1rODQd5oASQ_22multiversx_sc_scenario3api7impl_vh12vm_hooks_api10VMHooksApiNtNtB13_9debug_api15DebugApiBackendEENtNtNtCs5SUGlJDgeoS_19multiversx_sc_codec6single6top_de9TopDecode24top_decode_or_handle_errINtNtNtCslPMlHj3qn2H_13multiversx_sc2io12arg_de_input14ArgDecodeInputBY_EINtNtB4u_17arg_error_handler15ArgErrorHandlerBY_EECs8iyf5MSkCde_5tests
FN:29,_RINvXs1W_Cs2eHPTk3TAlu_14common_structsINtB7_15AccountPositionINtNtNtNtCs1rODQd5oASQ_22multiversx_sc_scenario3api7impl_vh12vm_hooks_api10VMHooksApiNtNtB13_9debug_api15DebugApiBackendEENtNtNtCs5SUGlJDgeoS_19multiversx_sc_codec6single6top_de9TopDecode24top_decode_or_handle_errINtNtNtCslPMlHj3qn2H_13multiversx_sc7storage11storage_get15StorageGetInputBY_EINtB4s_22StorageGetErrorHandlerBY_EECs8iyf5MSkCde_5tests
FN:29,_RINvXs1W_Cs2eHPTk3TAlu_14common_structsINtB7_15AccountPositionINtNtNtNtCs1rODQd5oASQ_22multiversx_sc_scenario3api7impl_vh12vm_hooks_api10VMHooksApiNtNtB13_9debug_api15DebugApiBackendEENtNtNtCs5SUGlJDgeoS_19multiversx_sc_codec6single6top_de9TopDecode24top_decode_or_handle_errINtNtNtNtNtCslPMlHj3qn2H_13multiversx_sc5types7managed5basic14managed_buffer13ManagedBufferBY_EINtNtNtB4A_2io17arg_error_handler15ArgErrorHandlerBY_EECs8iyf5MSkCde_5tests
FN:137,_RINvXs1f_Cs2eHPTk3TAlu_14common_structsNtB7_20NftAccountAttributesNtNtNtCs5SUGlJDgeoS_19multiversx_sc_codec6single6top_en9TopEncode24top_encode_or_handle_errINtNtNtCslPMlHj3qn2H_13multiversx_sc2io6finish16ApiOutputAdapterINtNtNtNtCs1rODQd5oASQ_22multiversx_sc_scenario3api7impl_vh12vm_hooks_api10VMHooksApiNtNtB3C_9debug_api15DebugApiBackendEEINtNtNtNtB2C_13contract_base8wrappers10serializer21ExitCodecErrorHandlerB3x_EECs8iyf5MSkCde_5tests
FN:137,_RINvXs1f_Cs2eHPTk3TAlu_14common_structsNtB7_20NftAccountAttributesNtNtNtCs5SUGlJDgeoS_19multiversx_sc_codec6single6top_en9TopEncode24top_encode_or_handle_errINtNtNtCslPMlHj3qn2H_13multiversx_sc7storage11storage_set16StorageSetOutputINtNtNtNtCs1rODQd5oASQ_22multiversx_sc_scenario3api7impl_vh12vm_hooks_api10VMHooksApiNtNtB3N_9debug_api15DebugApiBackendEEINtNtNtNtB2C_13contract_base8wrappers10serializer21ExitCodecErrorHandlerB3I_EECs8iyf5MSkCde_5tests
FN:137,_RINvXs1f_Cs2eHPTk3TAlu_14common_structsNtB7_20NftAccountAttributesNtNtNtCs5SUGlJDgeoS_19multiversx_sc_codec6single6top_en9TopEncode24top_encode_or_handle_errQINtNtCshTKFwE22Rw2_5alloc3vec3VechENtNtB18_17codec_err_handler19DefaultErrorHandlerECs8iyf5MSkCde_5tests
FN:137,_RINvXs1f_Cs2eHPTk3TAlu_14common_structsNtB7_20NftAccountAttributesNtNtNtCs5SUGlJDgeoS_19multiversx_sc_codec6single6top_en9TopEncode24top_encode_or_handle_errQINtNtNtNtNtCslPMlHj3qn2H_13multiversx_sc5types7managed5basic14managed_buffer13ManagedBufferINtNtNtNtCs1rODQd5oASQ_22multiversx_sc_scenario3api7impl_vh12vm_hooks_api10VMHooksApiNtNtB44_9debug_api15DebugApiBackendEEINtNtNtNtB2H_13contract_base8wrappers10serializer21ExitCodecErrorHandlerB3Z_EECs8iyf5MSkCde_5tests
FN:137,_RINvXs1g_Cs2eHPTk3TAlu_14common_structsNtB7_20NftAccountAttributesNtNtNtCs5SUGlJDgeoS_19multiversx_sc_codec6single6top_de9TopDecode24top_decode_or_handle_errINtNtNtCslPMlHj3qn2H_13multiversx_sc7storage11storage_get15StorageGetInputINtNtNtNtCs1rODQd5oASQ_22multiversx_sc_scenario3api7impl_vh12vm_hooks_api10VMHooksApiNtNtB3M_9debug_api15DebugApiBackendEEINtB2y_22StorageGetErrorHandlerB3H_EECs8iyf5MSkCde_5tests
FN:137,_RINvXs1g_Cs2eHPTk3TAlu_14common_structsNtB7_20NftAccountAttributesNtNtNtCs5SUGlJDgeoS_19multiversx_sc_codec6single6top_de9TopDecode24top_decode_or_handle_errINtNtNtNtNtCslPMlHj3qn2H_13multiversx_sc5types7managed5basic14managed_buffer13ManagedBufferINtNtNtNtCs1rODQd5oASQ_22multiversx_sc_scenario3api7impl_vh12vm_hooks_api10VMHooksApiNtNtB43_9debug_api15DebugApiBackendEEINtNtNtNtB2G_13contract_base8wrappers10serializer21ExitCodecErrorHandlerB3Y_EECs8iyf5MSkCde_5tests
FN:130,_RINvXs1m_Cs2eHPTk3TAlu_14common_structsNtB7_16EModeAssetConfigNtNtNtCs5SUGlJDgeoS_19multiversx_sc_codec6single6top_en9TopEncode24top_encode_or_handle_errINtNtNtCslPMlHj3qn2H_13multiversx_sc2io6finish16ApiOutputAdapterINtNtNtNtCs1rODQd5oASQ_22multiversx_sc_scenario3api7impl_vh12vm_hooks_api10VMHooksApiNtNtB3y_9debug_api15DebugApiBackendEEINtNtNtNtB2y_13contract_base8wrappers10serializer21ExitCodecErrorHandlerB3t_EECs8iyf5MSkCde_5tests
FN:130,_RINvXs1m_Cs2eHPTk3TAlu_14common_structsNtB7_16EModeAssetConfigNtNtNtCs5SUGlJDgeoS_19multiversx_sc_codec6single6top_en9TopEncode24top_encode_or_handle_errINtNtNtCslPMlHj3qn2H_13multiversx_sc7storage11storage_set16StorageSetOutputINtNtNtNtCs1rODQd5oASQ_22multiversx_sc_scenario3api7impl_vh12vm_hooks_api10VMHooksApiNtNtB3J_9debug_api15DebugApiBackendEEINtNtNtNtB2y_13contract_base8wrappers10serializer21ExitCodecErrorHandlerB3E_EECs8iyf5MSkCde_5tests
FN:130,_RINvXs1m_Cs2eHPTk3TAlu_14common_structsNtB7_16EModeAssetConfigNtNtNtCs5SUGlJDgeoS_19multiversx_sc_codec6single6top_en9TopEncode24top_encode_or_handle_errQINtNtNtNtNtCslPMlHj3qn2H_13multiversx_sc5types7managed5basic14managed_buffer13ManagedBufferINtNtNtNtCs1rODQd5oASQ_22multiversx_sc_scenario3api7impl_vh12vm_hooks_api10VMHooksApiNtNtB40_9debug_api15DebugApiBackendEEINtNtNtNtB2D_13contract_base8wrappers10serializer21ExitCodecErrorHandlerB3V_EECs8iyf5MSkCde_5tests
FN:130,_RINvXs1n_Cs2eHPTk3TAlu_14common_structsNtB7_16EModeAssetConfigNtNtNtCs5SUGlJDgeoS_19multiversx_sc_codec6single6top_de9TopDecode24top_decode_or_handle_errINtNtNtCslPMlHj3qn2H_13multiversx_sc2io12arg_de_input14ArgDecodeInputINtNtNtNtCs1rODQd5oASQ_22multiversx_sc_scenario3api7impl_vh12vm_hooks_api10VMHooksApiNtNtB3D_9debug_api15DebugApiBackendEEINtNtB2w_17arg_error_handler15ArgErrorHandlerB3y_EECs8iyf5MSkCde_5tests
FN:130,_RINvXs1n_Cs2eHPTk3TAlu_14common_structsNtB7_16EModeAssetConfigNtNtNtCs5SUGlJDgeoS_19multiversx_sc_codec6single6top_de9TopDecode24top_decode_or_handle_errINtNtNtCslPMlHj3qn2H_13multiversx_sc7storage11storage_get15StorageGetInputINtNtNtNtCs1rODQd5oASQ_22multiversx_sc_scenario3api7impl_vh12vm_hooks_api10VMHooksApiNtNtB3I_9debug_api15DebugApiBackendEEINtB2u_22StorageGetErrorHandlerB3D_EECs8iyf5MSkCde_5tests
FN:120,_RINvXs1u_Cs2eHPTk3TAlu_14common_structsINtB7_13EModeCategoryINtNtNtNtCs1rODQd5oASQ_22multiversx_sc_scenario3api7impl_vh12vm_hooks_api10VMHooksApiNtNtB11_9debug_api15DebugApiBackendEENtNtNtCs5SUGlJDgeoS_19multiversx_sc_codec6single6top_en9TopEncode24top_encode_or_handle_errINtNtNtCslPMlHj3qn2H_13multiversx_sc2io6finish16ApiOutputAdapterBW_EINtNtNtNtB4u_13contract_base8wrappers10serializer21ExitCodecErrorHandlerBW_EECs8iyf5MSkCde_5tests
FN:120,_RINvXs1u_Cs2eHPTk3TAlu_14common_structsINtB7_13EModeCategoryINtNtNtNtCs1rODQd5oASQ_22multiversx_sc_scenario3api7impl_vh12vm_hooks_api10VMHooksApiNtNtB11_9debug_api15DebugApiBackendEENtNtNtCs5SUGlJDgeoS_19multiversx_sc_codec6single6top_en9TopEncode24top_encode_or_handle_errINtNtNtCslPMlHj3qn2H_13multiversx_sc7storage11storage_set16StorageSetOutputBW_EINtNtNtNtB4u_13contract_base8wrappers10serializer21ExitCodecErrorHandlerBW_EECs8iyf5MSkCde_5tests
FN:120,_RINvXs1u_Cs2eHPTk3TAlu_14common_structsINtB7_13EModeCategoryINtNtNtNtCs1rODQd5oASQ_22multiversx_sc_scenario3api7impl_vh12vm_hooks_api10VMHooksApiNtNtB11_9debug_api15DebugApiBackendEENtNtNtCs5SUGlJDgeoS_19multiversx_sc_codec6single6top_en9TopEncode24top_encode_or_handle_errQINtNtNtNtNtCslPMlHj3qn2H_13multiversx_sc5types7managed5basic14managed_buffer13ManagedBufferBW_EINtNtNtNtB4z_13contract_base8wrappers10serializer21ExitCodecErrorHandlerBW_EECs8iyf5MSkCde_5tests
FN:120,_RINvXs1v_Cs2eHPTk3TAlu_14common_structsINtB7_13EModeCategoryINtNtNtNtCs1rODQd5oASQ_22multiversx_sc_scenario3api7impl_vh12vm_hooks_api10VMHooksApiNtNtB11_9debug_api15DebugApiBackendEENtNtNtCs5SUGlJDgeoS_19multiversx_sc_codec6single6top_de9TopDecode24top_decode_or_handle_errINtNtNtCslPMlHj3qn2H_13multiversx_sc2io12arg_de_input14ArgDecodeInputBW_EINtNtB4s_17arg_error_handler15ArgErrorHandlerBW_EECs8iyf5MSkCde_5tests
FN:120,_RINvXs1v_Cs2eHPTk3TAlu_14common_structsINtB7_13EModeCategoryINtNtNtNtCs1rODQd5oASQ_22multiversx_sc_scenario3api7impl_vh12vm_hooks_api10VMHooksApiNtNtB11_9debug_api15DebugApiBackendEENtNtNtCs5SUGlJDgeoS_19multiversx_sc_codec6single6top_de9TopDecode24top_decode_or_handle_errINtNtNtCslPMlHj3qn2H_13multiversx_sc7storage11storage_get15StorageGetInputBW_EINtB4q_22StorageGetErrorHandlerBW_EECs8iyf5MSkCde_5tests
FN:20,_RINvXs21_Cs2eHPTk3TAlu_14common_structsNtB7_19AccountPositionTypeNtNtNtNtNtCslPMlHj3qn2H_13multiversx_sc5types7managed7wrapped16managed_vec_item14ManagedVecItem16from_byte_readerNCINvXs1S_B7_INtB7_15AccountPositionINtNtNtNtCs1rODQd5oASQ_22multiversx_sc_scenario3api7impl_vh12vm_hooks_api10VMHooksApiNtNtB3v_9debug_api15DebugApiBackendEEB11_16from_byte_readerNCNvMs2_NtB15_11managed_vecINtB5S_10ManagedVecB3q_B33_E7try_get0E0ECs8iyf5MSkCde_5tests
FN:20,_RINvXs21_Cs2eHPTk3TAlu_14common_structsNtB7_19AccountPositionTypeNtNtNtNtNtCslPMlHj3qn2H_13multiversx_sc5types7managed7wrapped16managed_vec_item14ManagedVecItem16from_byte_readerNCINvXs1S_B7_INtB7_15AccountPositionINtNtNtNtCs1rODQd5oASQ_22multiversx_sc_scenario3api7impl_vh12vm_hooks_api10VMHooksApiNtNtB3v_9debug_api15DebugApiBackendEEB11_16from_byte_readerNCNvXs0_NtB15_22managed_vec_owned_iterINtB5S_23ManagedVecOwnedIteratorB3q_B33_ENtNtNtNtCslGS7pEIChKc_4core4iter6traits8iterator8Iterator4next0E0ECs8iyf5MSkCde_5tests
FN:20,_RINvXs21_Cs2eHPTk3TAlu_14common_structsNtB7_19AccountPositionTypeNtNtNtNtNtCslPMlHj3qn2H_13multiversx_sc5types7managed7wrapped16managed_vec_item14ManagedVecItem16into_byte_writeruNCINvXs1S_B7_INtB7_15AccountPositionINtNtNtNtCs1rODQd5oASQ_22multiversx_sc_scenario3api7impl_vh12vm_hooks_api10VMHooksApiNtNtB3w_9debug_api15DebugApiBackendEEB11_16into_byte_writerINtNtCslGS7pEIChKc_4core6result6ResultuNtNtNtNtB1b_3api13managed_types18managed_buffer_api17InvalidSliceErrorENCNvMs2_NtB15_11managed_vecINtB7F_10ManagedVecB3r_B34_E3set0E0ECs8iyf5MSkCde_5tests
FN:20,_RINvXs21_Cs2eHPTk3TAlu_14common_structsNtB7_19AccountPositionTypeNtNtNtNtNtCslPMlHj3qn2H_13multiversx_sc5types7managed7wrapped16managed_vec_item14ManagedVecItem16into_byte_writeruNCINvXs1S_B7_INtB7_15AccountPositionINtNtNtNtCs1rODQd5oASQ_22multiversx_sc_scenario3api7impl_vh12vm_hooks_api10VMHooksApiNtNtB3w_9debug_api15DebugApiBackendEEB11_16into_byte_writeruNCNvMs2_NtB15_11managed_vecINtB5U_10ManagedVecB3r_B34_E4push0E0ECs8iyf5MSkCde_5tests
FN:20,_RINvXs22_Cs2eHPTk3TAlu_14common_structsNtB7_19AccountPositionTypeNtNtNtCs5SUGlJDgeoS_19multiversx_sc_codec6single9nested_en12NestedEncode24dep_encode_or_handle_errINtNtNtNtNtCslPMlHj3qn2H_13multiversx_sc5types7managed5basic14managed_buffer13ManagedBufferINtNtNtNtCs1rODQd5oASQ_22multiversx_sc_scenario3api7impl_vh12vm_hooks_api10VMHooksApiNtNtB49_9debug_api15DebugApiBackendEEINtNtNtNtB2M_13contract_base8wrappers10serializer21ExitCodecErrorHandlerB44_EECs8iyf5MSkCde_5tests
FN:20,_RINvXs22_Cs2eHPTk3TAlu_14common_structsNtB7_19AccountPositionTypeNtNtNtCs5SUGlJDgeoS_19multiversx_sc_codec6single9nested_en12NestedEncode24dep_encode_or_handle_errINtNtNtNtNtNtCslPMlHj3qn2H_13multiversx_sc5types7managed7wrapped7builder22managed_buffer_builder20ManagedBufferBuilderINtNtNtNtCs1rODQd5oASQ_22multiversx_sc_scenario3api7impl_vh12vm_hooks_api10VMHooksApiNtNtB4A_9debug_api15DebugApiBackendEEINtNtNtNtB2O_13contract_base8wrappers10serializer21ExitCodecErrorHandlerB4v_EECs8iyf5MSkCde_5tests
FN:20,_RINvXs23_Cs2eHPTk3TAlu_14common_structsNtB7_19AccountPositionTypeNtNtNtCs5SUGlJDgeoS_19multiversx_sc_codec6single9nested_de12NestedDecode24dep_decode_or_handle_errINtNtNtNtNtCslPMlHj3qn2H_13multiversx_sc5types7managed10codec_util30managed_buffer_nested_de_input30ManagedBufferNestedDecodeInputINtNtNtNtCs1rODQd5oASQ_22multiversx_sc_scenario3api7impl_vh12vm_hooks_api10VMHooksApiNtNtB4M_9debug_api15DebugApiBackendEEINtNtNtB2M_2io17arg_error_handler15ArgErrorHandlerB4H_EECs8iyf5MSkCde_5tests
FN:20,_RINvXs23_Cs2eHPTk3TAlu_14common_structsNtB7_19AccountPositionTypeNtNtNtCs5SUGlJDgeoS_19multiversx_sc_codec6single9nested_de12NestedDecode24dep_decode_or_handle_errINtNtNtNtNtCslPMlHj3qn2H_13multiversx_sc5types7managed10codec_util30managed_buffer_nested_de_input30ManagedBufferNestedDecodeInputINtNtNtNtCs1rODQd5oASQ_22multiversx_sc_scenario3api7impl_vh12vm_hooks_api10VMHooksApiNtNtB4M_9debug_api15DebugApiBackendEEINtNtNtB2M_7storage11storage_get22StorageGetErrorHandlerB4H_EECs8iyf5MSkCde_5tests
FN:7,_RINvXs2d_Cs2eHPTk3TAlu_14common_structsINtB7_10PoolParamsINtNtNtNtCs1rODQd5oASQ_22multiversx_sc_scenario3api7impl_vh12vm_hooks_api10VMHooksApiNtNtBY_9debug_api15DebugApiBackendEENtNtNtCs5SUGlJDgeoS_19multiversx_sc_codec6single6top_en9TopEncode24top_encode_or_handle_errINtNtNtCslPMlHj3qn2H_13multiversx_sc2io6finish16ApiOutputAdapterBT_EINtNtNtNtB4q_13contract_base8wrappers10serializer21ExitCodecErrorHandlerBT_EECs8iyf5MSkCde_5tests
FN:7,_RINvXs2d_Cs2eHPTk3TAlu_14common_structsINtB7_10PoolParamsINtNtNtNtCs1rODQd5oASQ_22multiversx_sc_scenario3api7impl_vh12vm_hooks_api10VMHooksApiNtNtBY_9debug_api15DebugApiBackendEENtNtNtCs5SUGlJDgeoS_19multiversx_sc_codec6single6top_en9TopEncode24top_encode_or_handle_errINtNtNtCslPMlHj3qn2H_13multiversx_sc7storage11storage_set16StorageSetOutputBT_EINtNtNtNtB4q_13contract_base8wrappers10serializer21ExitCodecErrorHandlerBT_EECs8iyf5MSkCde_5tests
FN:7,_RINvXs2e_Cs2eHPTk3TAlu_14common_structsINtB7_10PoolParamsINtNtNtNtCs1rODQd5oASQ_22multiversx_sc_scenario3api7impl_vh12vm_hooks_api10VMHooksApiNtNtBY_9debug_api15DebugApiBackendEENtNtNtCs5SUGlJDgeoS_19multiversx_sc_codec6single6top_de9TopDecode24top_decode_or_handle_errINtNtNtCslPMlHj3qn2H_13multiversx_sc7storage11storage_get15StorageGetInputBT_EINtB4m_22StorageGetErrorHandlerBT_EECs8iyf5MSkCde_5tests
FN:213,_RINvXs5_Cs2eHPTk3TAlu_14common_structsINtB6_22OraclePriceFluctuationINtNtNtNtCs1rODQd5oASQ_22multiversx_sc_scenario3api7impl_vh12vm_hooks_api10VMHooksApiNtNtB19_9debug_api15DebugApiBackendEENtNtNtCs5SUGlJDgeoS_19multiversx_sc_codec6single9nested_en12NestedEncode24dep_encode_or_handle_errINtNtNtNtNtNtCslPMlHj3qn2H_13multiversx_sc5types7managed7wrapped7builder22managed_buffer_builder20ManagedBufferBuilderB14_EINtNtNtNtB4P_13contract_base8wrappers10serializer21ExitCodecErrorHandlerB14_EECs8iyf5MSkCde_5tests
FN:213,_RINvXs6_Cs2eHPTk3TAlu_14common_structsINtB6_22OraclePriceFluctuationINtNtNtNtCs1rODQd5oASQ_22multiversx_sc_scenario3api7impl_vh12vm_hooks_api10VMHooksApiNtNtB19_9debug_api15DebugApiBackendEENtNtNtCs5SUGlJDgeoS_19multiversx_sc_codec6single9nested_de12NestedDecode24dep_decode_or_handle_errINtNtNtNtNtCslPMlHj3qn2H_13multiversx_sc5types7managed10codec_util30managed_buffer_nested_de_input30ManagedBufferNestedDecodeInputB14_EINtNtNtB4N_7storage11storage_get22StorageGetErrorHandlerB14_EECs8iyf5MSkCde_5tests
FN:168,_RINvXsD_Cs2eHPTk3TAlu_14common_structsNtB6_10OracleTypeNtNtNtCs5SUGlJDgeoS_19multiversx_sc_codec6single9nested_en12NestedEncode24dep_encode_or_handle_errINtNtNtNtNtNtCslPMlHj3qn2H_13multiversx_sc5types7managed7wrapped7builder22managed_buffer_builder20ManagedBufferBuilderINtNtNtNtCs1rODQd5oASQ_22multiversx_sc_scenario3api7impl_vh12vm_hooks_api10VMHooksApiNtNtB4q_9debug_api15DebugApiBackendEEINtNtNtNtB2E_13contract_base8wrappers10serializer21ExitCodecErrorHandlerB4l_EECs8iyf5MSkCde_5tests
FN:168,_RINvXsE_Cs2eHPTk3TAlu_14common_structsNtB6_10OracleTypeNtNtNtCs5SUGlJDgeoS_19multiversx_sc_codec6single9nested_de12NestedDecode24dep_decode_or_handle_errINtNtNtNtNtCslPMlHj3qn2H_13multiversx_sc5types7managed10codec_util30managed_buffer_nested_de_input30ManagedBufferNestedDecodeInputINtNtNtNtCs1rODQd5oASQ_22multiversx_sc_scenario3api7impl_vh12vm_hooks_api10VMHooksApiNtNtB4C_9debug_api15DebugApiBackendEEINtNtNtB2C_7storage11storage_get22StorageGetErrorHandlerB4x_EECs8iyf5MSkCde_5tests
FN:168,_RINvXsF_Cs2eHPTk3TAlu_14common_structsNtB6_10OracleTypeNtNtNtCs5SUGlJDgeoS_19multiversx_sc_codec6single6top_en9TopEncode24top_encode_or_handle_errQINtNtNtNtNtCslPMlHj3qn2H_13multiversx_sc5types7managed5basic14managed_buffer13ManagedBufferINtNtNtNtCs1rODQd5oASQ_22multiversx_sc_scenario3api7impl_vh12vm_hooks_api10VMHooksApiNtNtB3T_10static_api16StaticApiBackendEEINtNtNtNtB2w_13contract_base8wrappers10serializer21ExitCodecErrorHandlerB3O_EECs8iyf5MSkCde_5tests
FN:168,_RINvXsG_Cs2eHPTk3TAlu_14common_structsNtB6_10OracleTypeNtNtNtCs5SUGlJDgeoS_19multiversx_sc_codec6single6top_de9TopDecode24top_decode_or_handle_errINtNtNtCslPMlHj3qn2H_13multiversx_sc2io12arg_de_input14ArgDecodeInputINtNtNtNtCs1rODQd5oASQ_22multiversx_sc_scenario3api7impl_vh12vm_hooks_api10VMHooksApiNtNtB3w_9debug_api15DebugApiBackendEEINtNtB2p_17arg_error_handler15ArgErrorHandlerB3r_EECs8iyf5MSkCde_5tests
FN:156,_RINvXsP_Cs2eHPTk3TAlu_14common_structsNtB6_13PricingMethodNtNtNtCs5SUGlJDgeoS_19multiversx_sc_codec6single9nested_en12NestedEncode24dep_encode_or_handle_errINtNtNtNtNtNtCslPMlHj3qn2H_13multiversx_sc5types7managed7wrapped7builder22managed_buffer_builder20ManagedBufferBuilderINtNtNtNtCs1rODQd5oASQ_22multiversx_sc_scenario3api7impl_vh12vm_hooks_api10VMHooksApiNtNtB4t_9debug_api15DebugApiBackendEEINtNtNtNtB2H_13contract_base8wrappers10serializer21ExitCodecErrorHandlerB4o_EECs8iyf5MSkCde_5tests
FN:156,_RINvXsQ_Cs2eHPTk3TAlu_14common_structsNtB6_13PricingMethodNtNtNtCs5SUGlJDgeoS_19multiversx_sc_codec6single9nested_de12NestedDecode24dep_decode_or_handle_errINtNtNtNtNtCslPMlHj3qn2H_13multiversx_sc5types7managed10codec_util30managed_buffer_nested_de_input30ManagedBufferNestedDecodeInputINtNtNtNtCs1rODQd5oASQ_22multiversx_sc_scenario3api7impl_vh12vm_hooks_api10VMHooksApiNtNtB4F_9debug_api15DebugApiBackendEEINtNtNtB2F_7storage11storage_get22StorageGetErrorHandlerB4A_EECs8iyf5MSkCde_5tests
FN:156,_RINvXsR_Cs2eHPTk3TAlu_14common_structsNtB6_13PricingMethodNtNtNtCs5SUGlJDgeoS_19multiversx_sc_codec6single6top_en9TopEncode24top_encode_or_handle_errQINtNtNtNtNtCslPMlHj3qn2H_13multiversx_sc5types7managed5basic14managed_buffer13ManagedBufferINtNtNtNtCs1rODQd5oASQ_22multiversx_sc_scenario3api7impl_vh12vm_hooks_api10VMHooksApiNtNtB3W_10static_api16StaticApiBackendEEINtNtNtNtB2z_13contract_base8wrappers10serializer21ExitCodecErrorHandlerB3R_EECs8iyf5MSkCde_5tests
FN:156,_RINvXsS_Cs2eHPTk3TAlu_14common_structsNtB6_13PricingMethodNtNtNtCs5SUGlJDgeoS_19multiversx_sc_codec6single6top_de9TopDecode24top_decode_or_handle_errINtNtNtCslPMlHj3qn2H_13multiversx_sc2io12arg_de_input14ArgDecodeInputINtNtNtNtCs1rODQd5oASQ_22multiversx_sc_scenario3api7impl_vh12vm_hooks_api10VMHooksApiNtNtB3z_9debug_api15DebugApiBackendEEINtNtB2s_17arg_error_handler15ArgErrorHandlerB3u_EECs8iyf5MSkCde_5tests
FN:203,_RINvXsc_Cs2eHPTk3TAlu_14common_structsINtB6_14PriceFeedShortINtNtNtNtCs1rODQd5oASQ_22multiversx_sc_scenario3api7impl_vh12vm_hooks_api10VMHooksApiNtNtB11_9debug_api15DebugApiBackendEENtNtNtCs5SUGlJDgeoS_19multiversx_sc_codec6single6top_en9TopEncode24top_encode_or_handle_errINtNtNtCslPMlHj3qn2H_13multiversx_sc2io6finish16ApiOutputAdapterBW_EINtNtNtNtB4u_13contract_base8wrappers10serializer21ExitCodecErrorHandlerBW_EECs8iyf5MSkCde_5tests
FN:190,_RINvXsj_Cs2eHPTk3TAlu_14common_structsINtB6_14OracleProviderINtNtNtNtCs1rODQd5oASQ_22multiversx_sc_scenario3api7impl_vh12vm_hooks_api10VMHooksApiNtNtB11_9debug_api15DebugApiBackendEENtNtNtCs5SUGlJDgeoS_19multiversx_sc_codec6single6top_en9TopEncode24top_encode_or_handle_errINtNtNtCslPMlHj3qn2H_13multiversx_sc2io6finish16ApiOutputAdapterBW_EINtNtNtNtB4u_13contract_base8wrappers10serializer21ExitCodecErrorHandlerBW_EECs8iyf5MSkCde_5tests
FN:190,_RINvXsj_Cs2eHPTk3TAlu_14common_structsINtB6_14OracleProviderINtNtNtNtCs1rODQd5oASQ_22multiversx_sc_scenario3api7impl_vh12vm_hooks_api10VMHooksApiNtNtB11_9debug_api15DebugApiBackendEENtNtNtCs5SUGlJDgeoS_19multiversx_sc_codec6single6top_en9TopEncode24top_encode_or_handle_errINtNtNtCslPMlHj3qn2H_13multiversx_sc7storage11storage_set16StorageSetOutputBW_EINtNtNtNtB4u_13contract_base8wrappers10serializer21ExitCodecErrorHandlerBW_EECs8iyf5MSkCde_5tests
FN:190,_RINvXsk_Cs2eHPTk3TAlu_14common_structsINtB6_14OracleProviderINtNtNtNtCs1rODQd5oASQ_22multiversx_sc_scenario3api7impl_vh12vm_hooks_api10VMHooksApiNtNtB11_9debug_api15DebugApiBackendEENtNtNtCs5SUGlJDgeoS_19multiversx_sc_codec6single6top_de9TopDecode24top_decode_or_handle_errINtNtNtCslPMlHj3qn2H_13multiversx_sc7storage11storage_get15StorageGetInputBW_EINtB4q_22StorageGetErrorHandlerBW_EECs8iyf5MSkCde_5tests
FN:179,_RINvXsr_Cs2eHPTk3TAlu_14common_structsNtB6_14ExchangeSourceNtNtNtCs5SUGlJDgeoS_19multiversx_sc_codec6single9nested_en12NestedEncode24dep_encode_or_handle_errINtNtNtNtNtNtCslPMlHj3qn2H_13multiversx_sc5types7managed7wrapped7builder22managed_buffer_builder20ManagedBufferBuilderINtNtNtNtCs1rODQd5oASQ_22multiversx_sc_scenario3api7impl_vh12vm_hooks_api10VMHooksApiNtNtB4u_9debug_api15DebugApiBackendEEINtNtNtNtB2I_13contract_base8wrappers10serializer21ExitCodecErrorHandlerB4p_EECs8iyf5MSkCde_5tests
FN:179,_RINvXss_Cs2eHPTk3TAlu_14common_structsNtB6_14ExchangeSourceNtNtNtCs5SUGlJDgeoS_19multiversx_sc_codec6single9nested_de12NestedDecode24dep_decode_or_handle_errINtNtNtNtNtCslPMlHj3qn2H_13multiversx_sc5types7managed10codec_util30managed_buffer_nested_de_input30ManagedBufferNestedDecodeInputINtNtNtNtCs1rODQd5oASQ_22multiversx_sc_scenario3api7impl_vh12vm_hooks_api10VMHooksApiNtNtB4G_9debug_api15DebugApiBackendEEINtNtNtB2G_7storage11storage_get22StorageGetErrorHandlerB4B_EECs8iyf5MSkCde_5tests
FN:179,_RINvXst_Cs2eHPTk3TAlu_14common_structsNtB6_14ExchangeSourceNtNtNtCs5SUGlJDgeoS_19multiversx_sc_codec6single6top_en9TopEncode24top_encode_or_handle_errQINtNtNtNtNtCslPMlHj3qn2H_13multiversx_sc5types7managed5basic14managed_buffer13ManagedBufferINtNtNtNtCs1rODQd5oASQ_22multiversx_sc_scenario3api7impl_vh12vm_hooks_api10VMHooksApiNtNtB3X_10static_api16StaticApiBackendEEINtNtNtNtB2A_13contract_base8wrappers10serializer21ExitCodecErrorHandlerB3S_EECs8iyf5MSkCde_5tests
FN:179,_RINvXsu_Cs2eHPTk3TAlu_14common_structsNtB6_14ExchangeSourceNtNtNtCs5SUGlJDgeoS_19multiversx_sc_codec6single6top_de9TopDecode24top_decode_or_handle_errINtNtNtCslPMlHj3qn2H_13multiversx_sc2io12arg_de_input14ArgDecodeInputINtNtNtNtCs1rODQd5oASQ_22multiversx_sc_scenario3api7impl_vh12vm_hooks_api10VMHooksApiNtNtB3A_9debug_api15DebugApiBackendEEINtNtB2t_17arg_error_handler15ArgErrorHandlerB3v_EECs8iyf5MSkCde_5tests
FN:146,_RNCINvXs10_Cs2eHPTk3TAlu_14common_structsINtB9_25EgldOrEsdtTokenPaymentNewINtNtNtNtCs1rODQd5oASQ_22multiversx_sc_scenario3api7impl_vh12vm_hooks_api10VMHooksApiNtNtB1f_9debug_api15DebugApiBackendEENtNtNtNtNtCslPMlHj3qn2H_13multiversx_sc5types7managed7wrapped16managed_vec_item14ManagedVecItem16from_byte_readerNCNvMs2_NtB3c_11managed_vecINtB55_10ManagedVecB1a_BD_E7try_get0E0Cs8iyf5MSkCde_5tests
FN:146,_RNCINvXs10_Cs2eHPTk3TAlu_14common_structsINtB9_25EgldOrEsdtTokenPaymentNewINtNtNtNtCs1rODQd5oASQ_22multiversx_sc_scenario3api7impl_vh12vm_hooks_api10VMHooksApiNtNtB1f_9debug_api15DebugApiBackendEENtNtNtNtNtCslPMlHj3qn2H_13multiversx_sc5types7managed7wrapped16managed_vec_item14ManagedVecItem16from_byte_readerNCNvMs2_NtB3c_11managed_vecINtB55_10ManagedVecB1a_BD_E7try_get0Es0_0Cs8iyf5MSkCde_5tests
FN:146,_RNCINvXs10_Cs2eHPTk3TAlu_14common_structsINtB9_25EgldOrEsdtTokenPaymentNewINtNtNtNtCs1rODQd5oASQ_22multiversx_sc_scenario3api7impl_vh12vm_hooks_api10VMHooksApiNtNtB1f_9debug_api15DebugApiBackendEENtNtNtNtNtCslPMlHj3qn2H_13multiversx_sc5types7managed7wrapped16managed_vec_item14ManagedVecItem16from_byte_readerNCNvMs2_NtB3c_11managed_vecINtB55_10ManagedVecB1a_BD_E7try_get0Es_0Cs8iyf5MSkCde_5tests
FN:146,_RNCINvXs10_Cs2eHPTk3TAlu_14common_structsINtB9_25EgldOrEsdtTokenPaymentNewINtNtNtNtCs1rODQd5oASQ_22multiversx_sc_scenario3api7impl_vh12vm_hooks_api10VMHooksApiNtNtB1f_9debug_api15DebugApiBackendEENtNtNtNtNtCslPMlHj3qn2H_13multiversx_sc5types7managed7wrapped16managed_vec_item14ManagedVecItem16from_byte_readerNCNvXs0_NtB3c_22managed_vec_owned_iterINtB55_23ManagedVecOwnedIteratorB1a_BD_ENtNtNtNtCslGS7pEIChKc_4core4iter6traits8iterator8Iterator4next0E0Cs8iyf5MSkCde_5tests
FN:146,_RNCINvXs10_Cs2eHPTk3TAlu_14common_structsINtB9_25EgldOrEsdtTokenPaymentNewINtNtNtNtCs1rODQd5oASQ_22multiversx_sc_scenario3api7impl_vh12vm_hooks_api10VMHooksApiNtNtB1f_9debug_api15DebugApiBackendEENtNtNtNtNtCslPMlHj3qn2H_13multiversx_sc5types7managed7wrapped16managed_vec_item14ManagedVecItem16from_byte_readerNCNvXs0_NtB3c_22managed_vec_owned_iterINtB55_23ManagedVecOwnedIteratorB1a_BD_ENtNtNtNtCslGS7pEIChKc_4core4iter6traits8iterator8Iterator4next0Es0_0Cs8iyf5MSkCde_5tests
FN:146,_RNCINvXs10_Cs2eHPTk3TAlu_14common_structsINtB9_25EgldOrEsdtTokenPaymentNewINtNtNtNtCs1rODQd5oASQ_22multiversx_sc_scenario3api7impl_vh12vm_hooks_api10VMHooksApiNtNtB1f_9debug_api15DebugApiBackendEENtNtNtNtNtCslPMlHj3qn2H_13multiversx_sc5types7managed7wrapped16managed_vec_item14ManagedVecItem16from_byte_readerNCNvXs0_NtB3c_22managed_vec_owned_iterINtB55_23ManagedVecOwnedIteratorB1a_BD_ENtNtNtNtCslGS7pEIChKc_4core4iter6traits8iterator8Iterator4next0Es_0Cs8iyf5MSkCde_5tests
FN:146,_RNCINvXs10_Cs2eHPTk3TAlu_14common_structsINtB9_25EgldOrEsdtTokenPaymentNewINtNtNtNtCs1rODQd5oASQ_22multiversx_sc_scenario3api7impl_vh12vm_hooks_api10VMHooksApiNtNtB1f_9debug_api15DebugApiBackendEENtNtNtNtNtCslPMlHj3qn2H_13multiversx_sc5types7managed7wrapped16managed_vec_item14ManagedVecItem16into_byte_writeruNCNvMs2_NtB3c_11managed_vecINtB56_10ManagedVecB1a_BD_E4push0E0Cs8iyf5MSkCde_5tests
FN:146,_RNCINvXs10_Cs2eHPTk3TAlu_14common_structsINtB9_25EgldOrEsdtTokenPaymentNewINtNtNtNtCs1rODQd5oASQ_22multiversx_sc_scenario3api7impl_vh12vm_hooks_api10VMHooksApiNtNtB1f_9debug_api15DebugApiBackendEENtNtNtNtNtCslPMlHj3qn2H_13multiversx_sc5types7managed7wrapped16managed_vec_item14ManagedVecItem16into_byte_writeruNCNvMs2_NtB3c_11managed_vecINtB56_10ManagedVecB1a_BD_E4push0Es0_0Cs8iyf5MSkCde_5tests
FN:146,_RNCINvXs10_Cs2eHPTk3TAlu_14common_structsINtB9_25EgldOrEsdtTokenPaymentNewINtNtNtNtCs1rODQd5oASQ_22multiversx_sc_scenario3api7impl_vh12vm_hooks_api10VMHooksApiNtNtB1f_9debug_api15DebugApiBackendEENtNtNtNtNtCslPMlHj3qn2H_13multiversx_sc5types7managed7wrapped16managed_vec_item14ManagedVecItem16into_byte_writeruNCNvMs2_NtB3c_11managed_vecINtB56_10ManagedVecB1a_BD_E4push0Es_0Cs8iyf5MSkCde_5tests
FN:111,_RNCINvXs1B_Cs2eHPTk3TAlu_14common_structsINtB9_23AssetExtendedConfigViewINtNtNtNtCs1rODQd5oASQ_22multiversx_sc_scenario3api7impl_vh12vm_hooks_api10VMHooksApiNtNtB1d_9debug_api15DebugApiBackendEENtNtNtNtNtCslPMlHj3qn2H_13multiversx_sc5types7managed7wrapped16managed_vec_item14ManagedVecItem16from_byte_readerNCNvXs0_NtB3a_22managed_vec_owned_iterINtB53_23ManagedVecOwnedIteratorB18_BD_ENtNtNtNtCslGS7pEIChKc_4core4iter6traits8iterator8Iterator4next0E0Cs8iyf5MSkCde_5tests
FN:111,_RNCINvXs1B_Cs2eHPTk3TAlu_14common_structsINtB9_23AssetExtendedConfigViewINtNtNtNtCs1rODQd5oASQ_22multiversx_sc_scenario3api7impl_vh12vm_hooks_api10VMHooksApiNtNtB1d_9debug_api15DebugApiBackendEENtNtNtNtNtCslPMlHj3qn2H_13multiversx_sc5types7managed7wrapped16managed_vec_item14ManagedVecItem16from_byte_readerNCNvXs0_NtB3a_22managed_vec_owned_iterINtB53_23ManagedVecOwnedIteratorB18_BD_ENtNtNtNtCslGS7pEIChKc_4core4iter6traits8iterator8Iterator4next0Es0_0Cs8iyf5MSkCde_5tests
FN:111,_RNCINvXs1B_Cs2eHPTk3TAlu_14common_structsINtB9_23AssetExtendedConfigViewINtNtNtNtCs1rODQd5oASQ_22multiversx_sc_scenario3api7impl_vh12vm_hooks_api10VMHooksApiNtNtB1d_9debug_api15DebugApiBackendEENtNtNtNtNtCslPMlHj3qn2H_13multiversx_sc5types7managed7wrapped16managed_vec_item14ManagedVecItem16from_byte_readerNCNvXs0_NtB3a_22managed_vec_owned_iterINtB53_23ManagedVecOwnedIteratorB18_BD_ENtNtNtNtCslGS7pEIChKc_4core4iter6traits8iterator8Iterator4next0Es1_0Cs8iyf5MSkCde_5tests
FN:111,_RNCINvXs1B_Cs2eHPTk3TAlu_14common_structsINtB9_23AssetExtendedConfigViewINtNtNtNtCs1rODQd5oASQ_22multiversx_sc_scenario3api7impl_vh12vm_hooks_api10VMHooksApiNtNtB1d_9debug_api15DebugApiBackendEENtNtNtNtNtCslPMlHj3qn2H_13multiversx_sc5types7managed7wrapped16managed_vec_item14ManagedVecItem16from_byte_readerNCNvXs0_NtB3a_22managed_vec_owned_iterINtB53_23ManagedVecOwnedIteratorB18_BD_ENtNtNtNtCslGS7pEIChKc_4core4iter6traits8iterator8Iterator4next0Es_0Cs8iyf5MSkCde_5tests
FN:111,_RNCINvXs1B_Cs2eHPTk3TAlu_14common_structsINtB9_23AssetExtendedConfigViewINtNtNtNtCs1rODQd5oASQ_22multiversx_sc_scenario3api7impl_vh12vm_hooks_api10VMHooksApiNtNtB1d_9debug_api15DebugApiBackendEENtNtNtNtNtCslPMlHj3qn2H_13multiversx_sc5types7managed7wrapped16managed_vec_item14ManagedVecItem16into_byte_writeruNCNvMs2_NtB3a_11managed_vecINtB54_10ManagedVecB18_BD_E4push0E0Cs8iyf5MSkCde_5tests
FN:111,_RNCINvXs1B_Cs2eHPTk3TAlu_14common_structsINtB9_23AssetExtendedConfigViewINtNtNtNtCs1rODQd5oASQ_22multiversx_sc_scenario3api7impl_vh12vm_hooks_api10VMHooksApiNtNtB1d_9debug_api15DebugApiBackendEENtNtNtNtNtCslPMlHj3qn2H_13multiversx_sc5types7managed7wrapped16managed_vec_item14ManagedVecItem16into_byte_writeruNCNvMs2_NtB3a_11managed_vecINtB54_10ManagedVecB18_BD_E4push0Es0_0Cs8iyf5MSkCde_5tests
FN:111,_RNCINvXs1B_Cs2eHPTk3TAlu_14common_structsINtB9_23AssetExtendedConfigViewINtNtNtNtCs1rODQd5oASQ_22multiversx_sc_scenario3api7impl_vh12vm_hooks_api10VMHooksApiNtNtB1d_9debug_api15DebugApiBackendEENtNtNtNtNtCslPMlHj3qn2H_13multiversx_sc5types7managed7wrapped16managed_vec_item14ManagedVecItem16into_byte_writeruNCNvMs2_NtB3a_11managed_vecINtB54_10ManagedVecB18_BD_E4push0Es1_0Cs8iyf5MSkCde_5tests
FN:111,_RNCINvXs1B_Cs2eHPTk3TAlu_14common_structsINtB9_23AssetExtendedConfigViewINtNtNtNtCs1rODQd5oASQ_22multiversx_sc_scenario3api7impl_vh12vm_hooks_api10VMHooksApiNtNtB1d_9debug_api15DebugApiBackendEENtNtNtNtNtCslPMlHj3qn2H_13multiversx_sc5types7managed7wrapped16managed_vec_item14ManagedVecItem16into_byte_writeruNCNvMs2_NtB3a_11managed_vecINtB54_10ManagedVecB18_BD_E4push0Es_0Cs8iyf5MSkCde_5tests
FN:76,_RNCINvXs1J_Cs2eHPTk3TAlu_14common_structsINtB9_11AssetConfigINtNtNtNtCs1rODQd5oASQ_22multiversx_sc_scenario3api7impl_vh12vm_hooks_api10VMHooksApiNtNtB11_9debug_api15DebugApiBackendEENtNtNtNtNtCslPMlHj3qn2H_13multiversx_sc5types7managed7wrapped16managed_vec_item14ManagedVecItem16from_byte_readerNCINvXs1B_B9_INtB9_23AssetExtendedConfigViewBW_EB2U_16from_byte_readerNCNvXs0_NtB2Y_22managed_vec_owned_iterINtB5Z_23ManagedVecOwnedIteratorBW_B4W_ENtNtNtNtCslGS7pEIChKc_4core4iter6traits8iterator8Iterator4next0E0E0Cs8iyf5MSkCde_5tests
FN:76,_RNCINvXs1J_Cs2eHPTk3TAlu_14common_structsINtB9_11AssetConfigINtNtNtNtCs1rODQd5oASQ_22multiversx_sc_scenario3api7impl_vh12vm_hooks_api10VMHooksApiNtNtB11_9debug_api15DebugApiBackendEENtNtNtNtNtCslPMlHj3qn2H_13multiversx_sc5types7managed7wrapped16managed_vec_item14ManagedVecItem16from_byte_readerNCINvXs1B_B9_INtB9_23AssetExtendedConfigViewBW_EB2U_16from_byte_readerNCNvXs0_NtB2Y_22managed_vec_owned_iterINtB5Z_23ManagedVecOwnedIteratorBW_B4W_ENtNtNtNtCslGS7pEIChKc_4core4iter6traits8iterator8Iterator4next0E0Es0_0Cs8iyf5MSkCde_5tests
FN:76,_RNCINvXs1J_Cs2eHPTk3TAlu_14common_structsINtB9_11AssetConfigINtNtNtNtCs1rODQd5oASQ_22multiversx_sc_scenario3api7impl_vh12vm_hooks_api10VMHooksApiNtNtB11_9debug_api15DebugApiBackendEENtNtNtNtNtCslPMlHj3qn2H_13multiversx_sc5types7managed7wrapped16managed_vec_item14ManagedVecItem16from_byte_readerNCINvXs1B_B9_INtB9_23AssetExtendedConfigViewBW_EB2U_16from_byte_readerNCNvXs0_NtB2Y_22managed_vec_owned_iterINtB5Z_23ManagedVecOwnedIteratorBW_B4W_ENtNtNtNtCslGS7pEIChKc_4core4iter6traits8iterator8Iterator4next0E0Es1_0Cs8iyf5MSkCde_5tests
FN:76,_RNCINvXs1J_Cs2eHPTk3TAlu_14common_structsINtB9_11AssetConfigINtNtNtNtCs1rODQd5oASQ_22multiversx_sc_scenario3api7impl_vh12vm_hooks_api10VMHooksApiNtNtB11_9debug_api15DebugApiBackendEENtNtNtNtNtCslPMlHj3qn2H_13multiversx_sc5types7managed7wrapped16managed_vec_item14ManagedVecItem16from_byte_readerNCINvXs1B_B9_INtB9_23AssetExtendedConfigViewBW_EB2U_16from_byte_readerNCNvXs0_NtB2Y_22managed_vec_owned_iterINtB5Z_23ManagedVecOwnedIteratorBW_B4W_ENtNtNtNtCslGS7pEIChKc_4core4iter6traits8iterator8Iterator4next0E0Es2_0Cs8iyf5MSkCde_5tests
FN:76,_RNCINvXs1J_Cs2eHPTk3TAlu_14common_structsINtB9_11AssetConfigINtNtNtNtCs1rODQd5oASQ_22multiversx_sc_scenario3api7impl_vh12vm_hooks_api10VMHooksApiNtNtB11_9debug_api15DebugApiBackendEENtNtNtNtNtCslPMlHj3qn2H_13multiversx_sc5types7managed7wrapped16managed_vec_item14ManagedVecItem16from_byte_readerNCINvXs1B_B9_INtB9_23AssetExtendedConfigViewBW_EB2U_16from_byte_readerNCNvXs0_NtB2Y_22managed_vec_owned_iterINtB5Z_23ManagedVecOwnedIteratorBW_B4W_ENtNtNtNtCslGS7pEIChKc_4core4iter6traits8iterator8Iterator4next0E0Es3_0Cs8iyf5MSkCde_5tests
FN:76,_RNCINvXs1J_Cs2eHPTk3TAlu_14common_structsINtB9_11AssetConfigINtNtNtNtCs1rODQd5oASQ_22multiversx_sc_scenario3api7impl_vh12vm_hooks_api10VMHooksApiNtNtB11_9debug_api15DebugApiBackendEENtNtNtNtNtCslPMlHj3qn2H_13multiversx_sc5types7managed7wrapped16managed_vec_item14ManagedVecItem16from_byte_readerNCINvXs1B_B9_INtB9_23AssetExtendedConfigViewBW_EB2U_16from_byte_readerNCNvXs0_NtB2Y_22managed_vec_owned_iterINtB5Z_23ManagedVecOwnedIteratorBW_B4W_ENtNtNtNtCslGS7pEIChKc_4core4iter6traits8iterator8Iterator4next0E0Es4_0Cs8iyf5MSkCde_5tests
FN:76,_RNCINvXs1J_Cs2eHPTk3TAlu_14common_structsINtB9_11AssetConfigINtNtNtNtCs1rODQd5oASQ_22multiversx_sc_scenario3api7impl_vh12vm_hooks_api10VMHooksApiNtNtB11_9debug_api15DebugApiBackendEENtNtNtNtNtCslPMlHj3qn2H_13multiversx_sc5types7managed7wrapped16managed_vec_item14ManagedVecItem16from_byte_readerNCINvXs1B_B9_INtB9_23AssetExtendedConfigViewBW_EB2U_16from_byte_readerNCNvXs0_NtB2Y_22managed_vec_owned_iterINtB5Z_23ManagedVecOwnedIteratorBW_B4W_ENtNtNtNtCslGS7pEIChKc_4core4iter6traits8iterator8Iterator4next0E0Es5_0Cs8iyf5MSkCde_5tests
FN:76,_RNCINvXs1J_Cs2eHPTk3TAlu_14common_structsINtB9_11AssetConfigINtNtNtNtCs1rODQd5oASQ_22multiversx_sc_scenario3api7impl_vh12vm_hooks_api10VMHooksApiNtNtB11_9debug_api15DebugApiBackendEENtNtNtNtNtCslPMlHj3qn2H_13multiversx_sc5types7managed7wrapped16managed_vec_item14ManagedVecItem16from_byte_readerNCINvXs1B_B9_INtB9_23AssetExtendedConfigViewBW_EB2U_16from_byte_readerNCNvXs0_NtB2Y_22managed_vec_owned_iterINtB5Z_23ManagedVecOwnedIteratorBW_B4W_ENtNtNtNtCslGS7pEIChKc_4core4iter6traits8iterator8Iterator4next0E0Es6_0Cs8iyf5MSkCde_5tests
FN:76,_RNCINvXs1J_Cs2eHPTk3TAlu_14common_structsINtB9_11AssetConfigINtNtNtNtCs1rODQd5oASQ_22multiversx_sc_scenario3api7impl_vh12vm_hooks_api10VMHooksApiNtNtB11_9debug_api15DebugApiBackendEENtNtNtNtNtCslPMlHj3qn2H_13multiversx_sc5types7managed7wrapped16managed_vec_item14ManagedVecItem16from_byte_readerNCINvXs1B_B9_INtB9_23AssetExtendedConfigViewBW_EB2U_16from_byte_readerNCNvXs0_NtB2Y_22managed_vec_owned_iterINtB5Z_23ManagedVecOwnedIteratorBW_B4W_ENtNtNtNtCslGS7pEIChKc_4core4iter6traits8iterator8Iterator4next0E0Es7_0Cs8iyf5MSkCde_5tests
FN:76,_RNCINvXs1J_Cs2eHPTk3TAlu_14common_structsINtB9_11AssetConfigINtNtNtNtCs1rODQd5oASQ_22multiversx_sc_scenario3api7impl_vh12vm_hooks_api10VMHooksApiNtNtB11_9debug_api15DebugApiBackendEENtNtNtNtNtCslPMlHj3qn2H_13multiversx_sc5types7managed7wrapped16managed_vec_item14ManagedVecItem16from_byte_readerNCINvXs1B_B9_INtB9_23AssetExtendedConfigViewBW_EB2U_16from_byte_readerNCNvXs0_NtB2Y_22managed_vec_owned_iterINtB5Z_23ManagedVecOwnedIteratorBW_B4W_ENtNtNtNtCslGS7pEIChKc_4core4iter6traits8iterator8Iterator4next0E0Es8_0Cs8iyf5MSkCde_5tests
FN:76,_RNCINvXs1J_Cs2eHPTk3TAlu_14common_structsINtB9_11AssetConfigINtNtNtNtCs1rODQd5oASQ_22multiversx_sc_scenario3api7impl_vh12vm_hooks_api10VMHooksApiNtNtB11_9debug_api15DebugApiBackendEENtNtNtNtNtCslPMlHj3qn2H_13multiversx_sc5types7managed7wrapped16managed_vec_item14ManagedVecItem16from_byte_readerNCINvXs1B_B9_INtB9_23AssetExtendedConfigViewBW_EB2U_16from_byte_readerNCNvXs0_NtB2Y_22managed_vec_owned_iterINtB5Z_23ManagedVecOwnedIteratorBW_B4W_ENtNtNtNtCslGS7pEIChKc_4core4iter6traits8iterator8Iterator4next0E0Es9_0Cs8iyf5MSkCde_5tests
FN:76,_RNCINvXs1J_Cs2eHPTk3TAlu_14common_structsINtB9_11AssetConfigINtNtNtNtCs1rODQd5oASQ_22multiversx_sc_scenario3api7impl_vh12vm_hooks_api10VMHooksApiNtNtB11_9debug_api15DebugApiBackendEENtNtNtNtNtCslPMlHj3qn2H_13multiversx_sc5types7managed7wrapped16managed_vec_item14ManagedVecItem16from_byte_readerNCINvXs1B_B9_INtB9_23AssetExtendedConfigViewBW_EB2U_16from_byte_readerNCNvXs0_NtB2Y_22managed_vec_owned_iterINtB5Z_23ManagedVecOwnedIteratorBW_B4W_ENtNtNtNtCslGS7pEIChKc_4core4iter6traits8iterator8Iterator4next0E0Es_0Cs8iyf5MSkCde_5tests
FN:76,_RNCINvXs1J_Cs2eHPTk3TAlu_14common_structsINtB9_11AssetConfigINtNtNtNtCs1rODQd5oASQ_22multiversx_sc_scenario3api7impl_vh12vm_hooks_api10VMHooksApiNtNtB11_9debug_api15DebugApiBackendEENtNtNtNtNtCslPMlHj3qn2H_13multiversx_sc5types7managed7wrapped16managed_vec_item14ManagedVecItem16from_byte_readerNCINvXs1B_B9_INtB9_23AssetExtendedConfigViewBW_EB2U_16from_byte_readerNCNvXs0_NtB2Y_22managed_vec_owned_iterINtB5Z_23ManagedVecOwnedIteratorBW_B4W_ENtNtNtNtCslGS7pEIChKc_4core4iter6traits8iterator8Iterator4next0E0Esa_0Cs8iyf5MSkCde_5tests
FN:76,_RNCINvXs1J_Cs2eHPTk3TAlu_14common_structsINtB9_11AssetConfigINtNtNtNtCs1rODQd5oASQ_22multiversx_sc_scenario3api7impl_vh12vm_hooks_api10VMHooksApiNtNtB11_9debug_api15DebugApiBackendEENtNtNtNtNtCslPMlHj3qn2H_13multiversx_sc5types7managed7wrapped16managed_vec_item14ManagedVecItem16from_byte_readerNCINvXs1B_B9_INtB9_23AssetExtendedConfigViewBW_EB2U_16from_byte_readerNCNvXs0_NtB2Y_22managed_vec_owned_iterINtB5Z_23ManagedVecOwnedIteratorBW_B4W_ENtNtNtNtCslGS7pEIChKc_4core4iter6traits8iterator8Iterator4next0E0Esb_0Cs8iyf5MSkCde_5tests
FN:76,_RNCINvXs1J_Cs2eHPTk3TAlu_14common_structsINtB9_11AssetConfigINtNtNtNtCs1rODQd5oASQ_22multiversx_sc_scenario3api7impl_vh12vm_hooks_api10VMHooksApiNtNtB11_9debug_api15DebugApiBackendEENtNtNtNtNtCslPMlHj3qn2H_13multiversx_sc5types7managed7wrapped16managed_vec_item14ManagedVecItem16from_byte_readerNCINvXs1B_B9_INtB9_23AssetExtendedConfigViewBW_EB2U_16from_byte_readerNCNvXs0_NtB2Y_22managed_vec_owned_iterINtB5Z_23ManagedVecOwnedIteratorBW_B4W_ENtNtNtNtCslGS7pEIChKc_4core4iter6traits8iterator8Iterator4next0E0Esc_0Cs8iyf5MSkCde_5tests
FN:76,_RNCINvXs1J_Cs2eHPTk3TAlu_14common_structsINtB9_11AssetConfigINtNtNtNtCs1rODQd5oASQ_22multiversx_sc_scenario3api7impl_vh12vm_hooks_api10VMHooksApiNtNtB11_9debug_api15DebugApiBackendEENtNtNtNtNtCslPMlHj3qn2H_13multiversx_sc5types7managed7wrapped16managed_vec_item14ManagedVecItem16into_byte_writeruNCINvXs1B_B9_INtB9_23AssetExtendedConfigViewBW_EB2U_16into_byte_writeruNCNvMs2_NtB2Y_11managed_vecINtB61_10ManagedVecBW_B4X_E4push0E0E0Cs8iyf5MSkCde_5tests
FN:76,_RNCINvXs1J_Cs2eHPTk3TAlu_14common_structsINtB9_11AssetConfigINtNtNtNtCs1rODQd5oASQ_22multiversx_sc_scenario3api7impl_vh12vm_hooks_api10VMHooksApiNtNtB11_9debug_api15DebugApiBackendEENtNtNtNtNtCslPMlHj3qn2H_13multiversx_sc5types7managed7wrapped16managed_vec_item14ManagedVecItem16into_byte_writeruNCINvXs1B_B9_INtB9_23AssetExtendedConfigViewBW_EB2U_16into_byte_writeruNCNvMs2_NtB2Y_11managed_vecINtB61_10ManagedVecBW_B4X_E4push0E0Es0_0Cs8iyf5MSkCde_5tests
FN:76,_RNCINvXs1J_Cs2eHPTk3TAlu_14common_structsINtB9_11AssetConfigINtNtNtNtCs1rODQd5oASQ_22multiversx_sc_scenario3api7impl_vh12vm_hooks_api10VMHooksApiNtNtB11_9debug_api15DebugApiBackendEENtNtNtNtNtCslPMlHj3qn2H_13multiversx_sc5types7managed7wrapped16managed_vec_item14ManagedVecItem16into_byte_writeruNCINvXs1B_B9_INtB9_23AssetExtendedConfigViewBW_EB2U_16into_byte_writeruNCNvMs2_NtB2Y_11managed_vecINtB61_10ManagedVecBW_B4X_E4push0E0Es1_0Cs8iyf5MSkCde_5tests
FN:76,_RNCINvXs1J_Cs2eHPTk3TAlu_14common_structsINtB9_11AssetConfigINtNtNtNtCs1rODQd5oASQ_22multiversx_sc_scenario3api7impl_vh12vm_hooks_api10VMHooksApiNtNtB11_9debug_api15DebugApiBackendEENtNtNtNtNtCslPMlHj3qn2H_13multiversx_sc5types7managed7wrapped16managed_vec_item14ManagedVecItem16into_byte_writeruNCINvXs1B_B9_INtB9_23AssetExtendedConfigViewBW_EB2U_16into_byte_writeruNCNvMs2_NtB2Y_11managed_vecINtB61_10ManagedVecBW_B4X_E4push0E0Es2_0Cs8iyf5MSkCde_5tests
FN:76,_RNCINvXs1J_Cs2eHPTk3TAlu_14common_structsINtB9_11AssetConfigINtNtNtNtCs1rODQd5oASQ_22multiversx_sc_scenario3api7impl_vh12vm_hooks_api10VMHooksApiNtNtB11_9debug_api15DebugApiBackendEENtNtNtNtNtCslPMlHj3qn2H_13multiversx_sc5types7managed7wrapped16managed_vec_item14ManagedVecItem16into_byte_writeruNCINvXs1B_B9_INtB9_23AssetExtendedConfigViewBW_EB2U_16into_byte_writeruNCNvMs2_NtB2Y_11managed_vecINtB61_10ManagedVecBW_B4X_E4push0E0Es3_0Cs8iyf5MSkCde_5tests
FN:76,_RNCINvXs1J_Cs2eHPTk3TAlu_14common_structsINtB9_11AssetConfigINtNtNtNtCs1rODQd5oASQ_22multiversx_sc_scenario3api7impl_vh12vm_hooks_api10VMHooksApiNtNtB11_9debug_api15DebugApiBackendEENtNtNtNtNtCslPMlHj3qn2H_13multiversx_sc5types7managed7wrapped16managed_vec_item14ManagedVecItem16into_byte_writeruNCINvXs1B_B9_INtB9_23AssetExtendedConfigViewBW_EB2U_16into_byte_writeruNCNvMs2_NtB2Y_11managed_vecINtB61_10ManagedVecBW_B4X_E4push0E0Es4_0Cs8iyf5MSkCde_5tests
FN:76,_RNCINvXs1J_Cs2eHPTk3TAlu_14common_structsINtB9_11AssetConfigINtNtNtNtCs1rODQd5oASQ_22multiversx_sc_scenario3api7impl_vh12vm_hooks_api10VMHooksApiNtNtB11_9debug_api15DebugApiBackendEENtNtNtNtNtCslPMlHj3qn2H_13multiversx_sc5types7managed7wrapped16managed_vec_item14ManagedVecItem16into_byte_writeruNCINvXs1B_B9_INtB9_23AssetExtendedConfigViewBW_EB2U_16into_byte_writeruNCNvMs2_NtB2Y_11managed_vecINtB61_10ManagedVecBW_B4X_E4push0E0Es5_0Cs8iyf5MSkCde_5tests
FN:76,_RNCINvXs1J_Cs2eHPTk3TAlu_14common_structsINtB9_11AssetConfigINtNtNtNtCs1rODQd5oASQ_22multiversx_sc_scenario3api7impl_vh12vm_hooks_api10VMHooksApiNtNtB11_9debug_api15DebugApiBackendEENtNtNtNtNtCslPMlHj3qn2H_13multiversx_sc5types7managed7wrapped16managed_vec_item14ManagedVecItem16into_byte_writeruNCINvXs1B_B9_INtB9_23AssetExtendedConfigViewBW_EB2U_16into_byte_writeruNCNvMs2_NtB2Y_11managed_vecINtB61_10ManagedVecBW_B4X_E4push0E0Es6_0Cs8iyf5MSkCde_5tests
FN:76,_RNCINvXs1J_Cs2eHPTk3TAlu_14common_structsINtB9_11AssetConfigINtNtNtNtCs1rODQd5oASQ_22multiversx_sc_scenario3api7impl_vh12vm_hooks_api10VMHooksApiNtNtB11_9debug_api15DebugApiBackendEENtNtNtNtNtCslPMlHj3qn2H_13multiversx_sc5types7managed7wrapped16managed_vec_item14ManagedVecItem16into_byte_writeruNCINvXs1B_B9_INtB9_23AssetExtendedConfigViewBW_EB2U_16into_byte_writeruNCNvMs2_NtB2Y_11managed_vecINtB61_10ManagedVecBW_B4X_E4push0E0Es7_0Cs8iyf5MSkCde_5tests
FN:76,_RNCINvXs1J_Cs2eHPTk3TAlu_14common_structsINtB9_11AssetConfigINtNtNtNtCs1rODQd5oASQ_22multiversx_sc_scenario3api7impl_vh12vm_hooks_api10VMHooksApiNtNtB11_9debug_api15DebugApiBackendEENtNtNtNtNtCslPMlHj3qn2H_13multiversx_sc5types7managed7wrapped16managed_vec_item14ManagedVecItem16into_byte_writeruNCINvXs1B_B9_INtB9_23AssetExtendedConfigViewBW_EB2U_16into_byte_writeruNCNvMs2_NtB2Y_11managed_vecINtB61_10ManagedVecBW_B4X_E4push0E0Es8_0Cs8iyf5MSkCde_5tests
FN:76,_RNCINvXs1J_Cs2eHPTk3TAlu_14common_structsINtB9_11AssetConfigINtNtNtNtCs1rODQd5oASQ_22multiversx_sc_scenario3api7impl_vh12vm_hooks_api10VMHooksApiNtNtB11_9debug_api15DebugApiBackendEENtNtNtNtNtCslPMlHj3qn2H_13multiversx_sc5types7managed7wrapped16managed_vec_item14ManagedVecItem16into_byte_writeruNCINvXs1B_B9_INtB9_23AssetExtendedConfigViewBW_EB2U_16into_byte_writeruNCNvMs2_NtB2Y_11managed_vecINtB61_10ManagedVecBW_B4X_E4push0E0Es9_0Cs8iyf5MSkCde_5tests
FN:76,_RNCINvXs1J_Cs2eHPTk3TAlu_14common_structsINtB9_11AssetConfigINtNtNtNtCs1rODQd5oASQ_22multiversx_sc_scenario3api7impl_vh12vm_hooks_api10VMHooksApiNtNtB11_9debug_api15DebugApiBackendEENtNtNtNtNtCslPMlHj3qn2H_13multiversx_sc5types7managed7wrapped16managed_vec_item14ManagedVecItem16into_byte_writeruNCINvXs1B_B9_INtB9_23AssetExtendedConfigViewBW_EB2U_16into_byte_writeruNCNvMs2_NtB2Y_11managed_vecINtB61_10ManagedVecBW_B4X_E4push0E0Es_0Cs8iyf5MSkCde_5tests
FN:76,_RNCINvXs1J_Cs2eHPTk3TAlu_14common_structsINtB9_11AssetConfigINtNtNtNtCs1rODQd5oASQ_22multiversx_sc_scenario3api7impl_vh12vm_hooks_api10VMHooksApiNtNtB11_9debug_api15DebugApiBackendEENtNtNtNtNtCslPMlHj3qn2H_13multiversx_sc5types7managed7wrapped16managed_vec_item14ManagedVecItem16into_byte_writeruNCINvXs1B_B9_INtB9_23AssetExtendedConfigViewBW_EB2U_16into_byte_writeruNCNvMs2_NtB2Y_11managed_vecINtB61_10ManagedVecBW_B4X_E4push0E0Esa_0Cs8iyf5MSkCde_5tests
FN:76,_RNCINvXs1J_Cs2eHPTk3TAlu_14common_structsINtB9_11AssetConfigINtNtNtNtCs1rODQd5oASQ_22multiversx_sc_scenario3api7impl_vh12vm_hooks_api10VMHooksApiNtNtB11_9debug_api15DebugApiBackendEENtNtNtNtNtCslPMlHj3qn2H_13multiversx_sc5types7managed7wrapped16managed_vec_item14ManagedVecItem16into_byte_writeruNCINvXs1B_B9_INtB9_23AssetExtendedConfigViewBW_EB2U_16into_byte_writeruNCNvMs2_NtB2Y_11managed_vecINtB61_10ManagedVecBW_B4X_E4push0E0Esb_0Cs8iyf5MSkCde_5tests
FN:76,_RNCINvXs1J_Cs2eHPTk3TAlu_14common_structsINtB9_11AssetConfigINtNtNtNtCs1rODQd5oASQ_22multiversx_sc_scenario3api7impl_vh12vm_hooks_api10VMHooksApiNtNtB11_9debug_api15DebugApiBackendEENtNtNtNtNtCslPMlHj3qn2H_13multiversx_sc5types7managed7wrapped16managed_vec_item14ManagedVecItem16into_byte_writeruNCINvXs1B_B9_INtB9_23AssetExtendedConfigViewBW_EB2U_16into_byte_writeruNCNvMs2_NtB2Y_11managed_vecINtB61_10ManagedVecBW_B4X_E4push0E0Esc_0Cs8iyf5MSkCde_5tests
FN:29,_RNCINvXs1S_Cs2eHPTk3TAlu_14common_structsINtB9_15AccountPositionINtNtNtNtCs1rODQd5oASQ_22multiversx_sc_scenario3api7impl_vh12vm_hooks_api10VMHooksApiNtNtB15_9debug_api15DebugApiBackendEENtNtNtNtNtCslPMlHj3qn2H_13multiversx_sc5types7managed7wrapped16managed_vec_item14ManagedVecItem16from_byte_readerNCNvMs2_NtB32_11managed_vecINtB4V_10ManagedVecB10_BD_E7try_get0E0Cs8iyf5MSkCde_5tests
FN:29,_RNCINvXs1S_Cs2eHPTk3TAlu_14common_structsINtB9_15AccountPositionINtNtNtNtCs1rODQd5oASQ_22multiversx_sc_scenario3api7impl_vh12vm_hooks_api10VMHooksApiNtNtB15_9debug_api15DebugApiBackendEENtNtNtNtNtCslPMlHj3qn2H_13multiversx_sc5types7managed7wrapped16managed_vec_item14ManagedVecItem16from_byte_readerNCNvMs2_NtB32_11managed_vecINtB4V_10ManagedVecB10_BD_E7try_get0Es0_0Cs8iyf5MSkCde_5tests
FN:29,_RNCINvXs1S_Cs2eHPTk3TAlu_14common_structsINtB9_15AccountPositionINtNtNtNtCs1rODQd5oASQ_22multiversx_sc_scenario3api7impl_vh12vm_hooks_api10VMHooksApiNtNtB15_9debug_api15DebugApiBackendEENtNtNtNtNtCslPMlHj3qn2H_13multiversx_sc5types7managed7wrapped16managed_vec_item14ManagedVecItem16from_byte_readerNCNvMs2_NtB32_11managed_vecINtB4V_10ManagedVecB10_BD_E7try_get0Es1_0Cs8iyf5MSkCde_5tests
FN:29,_RNCINvXs1S_Cs2eHPTk3TAlu_14common_structsINtB9_15AccountPositionINtNtNtNtCs1rODQd5oASQ_22multiversx_sc_scenario3api7impl_vh12vm_hooks_api10VMHooksApiNtNtB15_9debug_api15DebugApiBackendEENtNtNtNtNtCslPMlHj3qn2H_13multiversx_sc5types7managed7wrapped16managed_vec_item14ManagedVecItem16from_byte_readerNCNvMs2_NtB32_11managed_vecINtB4V_10ManagedVecB10_BD_E7try_get0Es2_0Cs8iyf5MSkCde_5tests
FN:29,_RNCINvXs1S_Cs2eHPTk3TAlu_14common_structsINtB9_15AccountPositionINtNtNtNtCs1rODQd5oASQ_22multiversx_sc_scenario3api7impl_vh12vm_hooks_api10VMHooksApiNtNtB15_9debug_api15DebugApiBackendEENtNtNtNtNtCslPMlHj3qn2H_13multiversx_sc5types7managed7wrapped16managed_vec_item14ManagedVecItem16from_byte_readerNCNvMs2_NtB32_11managed_vecINtB4V_10ManagedVecB10_BD_E7try_get0Es3_0Cs8iyf5MSkCde_5tests
FN:29,_RNCINvXs1S_Cs2eHPTk3TAlu_14common_structsINtB9_15AccountPositionINtNtNtNtCs1rODQd5oASQ_22multiversx_sc_scenario3api7impl_vh12vm_hooks_api10VMHooksApiNtNtB15_9debug_api15DebugApiBackendEENtNtNtNtNtCslPMlHj3qn2H_13multiversx_sc5types7managed7wrapped16managed_vec_item14ManagedVecItem16from_byte_readerNCNvMs2_NtB32_11managed_vecINtB4V_10ManagedVecB10_BD_E7try_get0Es4_0Cs8iyf5MSkCde_5tests
FN:29,_RNCINvXs1S_Cs2eHPTk3TAlu_14common_structsINtB9_15AccountPositionINtNtNtNtCs1rODQd5oASQ_22multiversx_sc_scenario3api7impl_vh12vm_hooks_api10VMHooksApiNtNtB15_9debug_api15DebugApiBackendEENtNtNtNtNtCslPMlHj3qn2H_13multiversx_sc5types7managed7wrapped16managed_vec_item14ManagedVecItem16from_byte_readerNCNvMs2_NtB32_11managed_vecINtB4V_10ManagedVecB10_BD_E7try_get0Es5_0Cs8iyf5MSkCde_5tests
FN:29,_RNCINvXs1S_Cs2eHPTk3TAlu_14common_structsINtB9_15AccountPositionINtNtNtNtCs1rODQd5oASQ_22multiversx_sc_scenario3api7impl_vh12vm_hooks_api10VMHooksApiNtNtB15_9debug_api15DebugApiBackendEENtNtNtNtNtCslPMlHj3qn2H_13multiversx_sc5types7managed7wrapped16managed_vec_item14ManagedVecItem16from_byte_readerNCNvMs2_NtB32_11managed_vecINtB4V_10ManagedVecB10_BD_E7try_get0Es6_0Cs8iyf5MSkCde_5tests
FN:29,_RNCINvXs1S_Cs2eHPTk3TAlu_14common_structsINtB9_15AccountPositionINtNtNtNtCs1rODQd5oASQ_22multiversx_sc_scenario3api7impl_vh12vm_hooks_api10VMHooksApiNtNtB15_9debug_api15DebugApiBackendEENtNtNtNtNtCslPMlHj3qn2H_13multiversx_sc5types7managed7wrapped16managed_vec_item14ManagedVecItem16from_byte_readerNCNvMs2_NtB32_11managed_vecINtB4V_10ManagedVecB10_BD_E7try_get0Es7_0Cs8iyf5MSkCde_5tests
FN:29,_RNCINvXs1S_Cs2eHPTk3TAlu_14common_structsINtB9_15AccountPositionINtNtNtNtCs1rODQd5oASQ_22multiversx_sc_scenario3api7impl_vh12vm_hooks_api10VMHooksApiNtNtB15_9debug_api15DebugApiBackendEENtNtNtNtNtCslPMlHj3qn2H_13multiversx_sc5types7managed7wrapped16managed_vec_item14ManagedVecItem16from_byte_readerNCNvMs2_NtB32_11managed_vecINtB4V_10ManagedVecB10_BD_E7try_get0Es_0Cs8iyf5MSkCde_5tests
FN:29,_RNCINvXs1S_Cs2eHPTk3TAlu_14common_structsINtB9_15AccountPositionINtNtNtNtCs1rODQd5oASQ_22multiversx_sc_scenario3api7impl_vh12vm_hooks_api10VMHooksApiNtNtB15_9debug_api15DebugApiBackendEENtNtNtNtNtCslPMlHj3qn2H_13multiversx_sc5types7managed7wrapped16managed_vec_item14ManagedVecItem16from_byte_readerNCNvXs0_NtB32_22managed_vec_owned_iterINtB4V_23ManagedVecOwnedIteratorB10_BD_ENtNtNtNtCslGS7pEIChKc_4core4iter6traits8iterator8Iterator4next0E0Cs8iyf5MSkCde_5tests
FN:29,_RNCINvXs1S_Cs2eHPTk3TAlu_14common_structsINtB9_15AccountPositionINtNtNtNtCs1rODQd5oASQ_22multiversx_sc_scenario3api7impl_vh12vm_hooks_api10VMHooksApiNtNtB15_9debug_api15DebugApiBackendEENtNtNtNtNtCslPMlHj3qn2H_13multiversx_sc5types7managed7wrapped16managed_vec_item14ManagedVecItem16from_byte_readerNCNvXs0_NtB32_22managed_vec_owned_iterINtB4V_23ManagedVecOwnedIteratorB10_BD_ENtNtNtNtCslGS7pEIChKc_4core4iter6traits8iterator8Iterator4next0Es0_0Cs8iyf5MSkCde_5tests
FN:29,_RNCINvXs1S_Cs2eHPTk3TAlu_14common_structsINtB9_15AccountPositionINtNtNtNtCs1rODQd5oASQ_22multiversx_sc_scenario3api7impl_vh12vm_hooks_api10VMHooksApiNtNtB15_9debug_api15DebugApiBackendEENtNtNtNtNtCslPMlHj3qn2H_13multiversx_sc5types7managed7wrapped16managed_vec_item14ManagedVecItem16from_byte_readerNCNvXs0_NtB32_22managed_vec_owned_iterINtB4V_23ManagedVecOwnedIteratorB10_BD_ENtNtNtNtCslGS7pEIChKc_4core4iter6traits8iterator8Iterator4next0Es1_0Cs8iyf5MSkCde_5tests
FN:29,_RNCINvXs1S_Cs2eHPTk3TAlu_14common_structsINtB9_15AccountPositionINtNtNtNtCs1rODQd5oASQ_22multiversx_sc_scenario3api7impl_vh12vm_hooks_api10VMHooksApiNtNtB15_9debug_api15DebugApiBackendEENtNtNtNtNtCslPMlHj3qn2H_13multiversx_sc5types7managed7wrapped16managed_vec_item14ManagedVecItem16from_byte_readerNCNvXs0_NtB32_22managed_vec_owned_iterINtB4V_23ManagedVecOwnedIteratorB10_BD_ENtNtNtNtCslGS7pEIChKc_4core4iter6traits8iterator8Iterator4next0Es2_0Cs8iyf5MSkCde_5tests
FN:29,_RNCINvXs1S_Cs2eHPTk3TAlu_14common_structsINtB9_15AccountPositionINtNtNtNtCs1rODQd5oASQ_22multiversx_sc_scenario3api7impl_vh12vm_hooks_api10VMHooksApiNtNtB15_9debug_api15DebugApiBackendEENtNtNtNtNtCslPMlHj3qn2H_13multiversx_sc5types7managed7wrapped16managed_vec_item14ManagedVecItem16from_byte_readerNCNvXs0_NtB32_22managed_vec_owned_iterINtB4V_23ManagedVecOwnedIteratorB10_BD_ENtNtNtNtCslGS7pEIChKc_4core4iter6traits8iterator8Iterator4next0Es3_0Cs8iyf5MSkCde_5tests
FN:29,_RNCINvXs1S_Cs2eHPTk3TAlu_14common_structsINtB9_15AccountPositionINtNtNtNtCs1rODQd5oASQ_22multiversx_sc_scenario3api7impl_vh12vm_hooks_api10VMHooksApiNtNtB15_9debug_api15DebugApiBackendEENtNtNtNtNtCslPMlHj3qn2H_13multiversx_sc5types7managed7wrapped16managed_vec_item14ManagedVecItem16from_byte_readerNCNvXs0_NtB32_22managed_vec_owned_iterINtB4V_23ManagedVecOwnedIteratorB10_BD_ENtNtNtNtCslGS7pEIChKc_4core4iter6traits8iterator8Iterator4next0Es4_0Cs8iyf5MSkCde_5tests
FN:29,_RNCINvXs1S_Cs2eHPTk3TAlu_14common_structsINtB9_15AccountPositionINtNtNtNtCs1rODQd5oASQ_22multiversx_sc_scenario3api7impl_vh12vm_hooks_api10VMHooksApiNtNtB15_9debug_api15DebugApiBackendEENtNtNtNtNtCslPMlHj3qn2H_13multiversx_sc5types7managed7wrapped16managed_vec_item14ManagedVecItem16from_byte_readerNCNvXs0_NtB32_22managed_vec_owned_iterINtB4V_23ManagedVecOwnedIteratorB10_BD_ENtNtNtNtCslGS7pEIChKc_4core4iter6traits8iterator8Iterator4next0Es5_0Cs8iyf5MSkCde_5tests
FN:29,_RNCINvXs1S_Cs2eHPTk3TAlu_14common_structsINtB9_15AccountPositionINtNtNtNtCs1rODQd5oASQ_22multiversx_sc_scenario3api7impl_vh12vm_hooks_api10VMHooksApiNtNtB15_9debug_api15DebugApiBackendEENtNtNtNtNtCslPMlHj3qn2H_13multiversx_sc5types7managed7wrapped16managed_vec_item14ManagedVecItem16from_byte_readerNCNvXs0_NtB32_22managed_vec_owned_iterINtB4V_23ManagedVecOwnedIteratorB10_BD_ENtNtNtNtCslGS7pEIChKc_4core4iter6traits8iterator8Iterator4next0Es6_0Cs8iyf5MSkCde_5tests
FN:29,_RNCINvXs1S_Cs2eHPTk3TAlu_14common_structsINtB9_15AccountPositionINtNtNtNtCs1rODQd5oASQ_22multiversx_sc_scenario3api7impl_vh12vm_hooks_api10VMHooksApiNtNtB15_9debug_api15DebugApiBackendEENtNtNtNtNtCslPMlHj3qn2H_13multiversx_sc5types7managed7wrapped16managed_vec_item14ManagedVecItem16from_byte_readerNCNvXs0_NtB32_22managed_vec_owned_iterINtB4V_23ManagedVecOwnedIteratorB10_BD_ENtNtNtNtCslGS7pEIChKc_4core4iter6traits8iterator8Iterator4next0Es7_0Cs8iyf5MSkCde_5tests
FN:29,_RNCINvXs1S_Cs2eHPTk3TAlu_14common_structsINtB9_15AccountPositionINtNtNtNtCs1rODQd5oASQ_22multiversx_sc_scenario3api7impl_vh12vm_hooks_api10VMHooksApiNtNtB15_9debug_api15DebugApiBackendEENtNtNtNtNtCslPMlHj3qn2H_13multiversx_sc5types7managed7wrapped16managed_vec_item14ManagedVecItem16from_byte_readerNCNvXs0_NtB32_22managed_vec_owned_iterINtB4V_23ManagedVecOwnedIteratorB10_BD_ENtNtNtNtCslGS7pEIChKc_4core4iter6traits8iterator8Iterator4next0Es_0Cs8iyf5MSkCde_5tests
FN:29,_RNCINvXs1S_Cs2eHPTk3TAlu_14common_structsINtB9_15AccountPositionINtNtNtNtCs1rODQd5oASQ_22multiversx_sc_scenario3api7impl_vh12vm_hooks_api10VMHooksApiNtNtB15_9debug_api15DebugApiBackendEENtNtNtNtNtCslPMlHj3qn2H_13multiversx_sc5types7managed7wrapped16managed_vec_item14ManagedVecItem16into_byte_writerINtNtCslGS7pEIChKc_4core6result6ResultuNtNtNtNtB38_3api13managed_types18managed_buffer_api17InvalidSliceErrorENCNvMs2_NtB32_11managed_vecINtB6H_10ManagedVecB10_BD_E3set0E0Cs8iyf5MSkCde_5tests
FN:29,_RNCINvXs1S_Cs2eHPTk3TAlu_14common_structsINtB9_15AccountPositionINtNtNtNtCs1rODQd5oASQ_22multiversx_sc_scenario3api7impl_vh12vm_hooks_api10VMHooksApiNtNtB15_9debug_api15DebugApiBackendEENtNtNtNtNtCslPMlHj3qn2H_13multiversx_sc5types7managed7wrapped16managed_vec_item14ManagedVecItem16into_byte_writerINtNtCslGS7pEIChKc_4core6result6ResultuNtNtNtNtB38_3api13managed_types18managed_buffer_api17InvalidSliceErrorENCNvMs2_NtB32_11managed_vecINtB6H_10ManagedVecB10_BD_E3set0Es0_0Cs8iyf5MSkCde_5tests
FN:29,_RNCINvXs1S_Cs2eHPTk3TAlu_14common_structsINtB9_15AccountPositionINtNtNtNtCs1rODQd5oASQ_22multiversx_sc_scenario3api7impl_vh12vm_hooks_api10VMHooksApiNtNtB15_9debug_api15DebugApiBackendEENtNtNtNtNtCslPMlHj3qn2H_13multiversx_sc5types7managed7wrapped16managed_vec_item14ManagedVecItem16into_byte_writerINtNtCslGS7pEIChKc_4core6result6ResultuNtNtNtNtB38_3api13managed_types18managed_buffer_api17InvalidSliceErrorENCNvMs2_NtB32_11managed_vecINtB6H_10ManagedVecB10_BD_E3set0Es1_0Cs8iyf5MSkCde_5tests
FN:29,_RNCINvXs1S_Cs2eHPTk3TAlu_14common_structsINtB9_15AccountPositionINtNtNtNtCs1rODQd5oASQ_22multiversx_sc_scenario3api7impl_vh12vm_hooks_api10VMHooksApiNtNtB15_9debug_api15DebugApiBackendEENtNtNtNtNtCslPMlHj3qn2H_13multiversx_sc5types7managed7wrapped16managed_vec_item14ManagedVecItem16into_byte_writerINtNtCslGS7pEIChKc_4core6result6ResultuNtNtNtNtB38_3api13managed_types18managed_buffer_api17InvalidSliceErrorENCNvMs2_NtB32_11managed_vecINtB6H_10ManagedVecB10_BD_E3set0Es2_0Cs8iyf5MSkCde_5tests
FN:29,_RNCINvXs1S_Cs2eHPTk3TAlu_14common_structsINtB9_15AccountPositionINtNtNtNtCs1rODQd5oASQ_22multiversx_sc_scenario3api7impl_vh12vm_hooks_api10VMHooksApiNtNtB15_9debug_api15DebugApiBackendEENtNtNtNtNtCslPMlHj3qn2H_13multiversx_sc5types7managed7wrapped16managed_vec_item14ManagedVecItem16into_byte_writerINtNtCslGS7pEIChKc_4core6result6ResultuNtNtNtNtB38_3api13managed_types18managed_buffer_api17InvalidSliceErrorENCNvMs2_NtB32_11managed_vecINtB6H_10ManagedVecB10_BD_E3set0Es3_0Cs8iyf5MSkCde_5tests
FN:29,_RNCINvXs1S_Cs2eHPTk3TAlu_14common_structsINtB9_15AccountPositionINtNtNtNtCs1rODQd5oASQ_22multiversx_sc_scenario3api7impl_vh12vm_hooks_api10VMHooksApiNtNtB15_9debug_api15DebugApiBackendEENtNtNtNtNtCslPMlHj3qn2H_13multiversx_sc5types7managed7wrapped16managed_vec_item14ManagedVecItem16into_byte_writerINtNtCslGS7pEIChKc_4core6result6ResultuNtNtNtNtB38_3api13managed_types18managed_buffer_api17InvalidSliceErrorENCNvMs2_NtB32_11managed_vecINtB6H_10ManagedVecB10_BD_E3set0Es4_0Cs8iyf5MSkCde_5tests
FN:29,_RNCINvXs1S_Cs2eHPTk3TAlu_14common_structsINtB9_15AccountPositionINtNtNtNtCs1rODQd5oASQ_22multiversx_sc_scenario3api7impl_vh12vm_hooks_api10VMHooksApiNtNtB15_9debug_api15DebugApiBackendEENtNtNtNtNtCslPMlHj3qn2H_13multiversx_sc5types7managed7wrapped16managed_vec_item14ManagedVecItem16into_byte_writerINtNtCslGS7pEIChKc_4core6result6ResultuNtNtNtNtB38_3api13managed_types18managed_buffer_api17InvalidSliceErrorENCNvMs2_NtB32_11managed_vecINtB6H_10ManagedVecB10_BD_E3set0Es5_0Cs8iyf5MSkCde_5tests
FN:29,_RNCINvXs1S_Cs2eHPTk3TAlu_14common_structsINtB9_15AccountPositionINtNtNtNtCs1rODQd5oASQ_22multiversx_sc_scenario3api7impl_vh12vm_hooks_api10VMHooksApiNtNtB15_9debug_api15DebugApiBackendEENtNtNtNtNtCslPMlHj3qn2H_13multiversx_sc5types7managed7wrapped16managed_vec_item14ManagedVecItem16into_byte_writerINtNtCslGS7pEIChKc_4core6result6ResultuNtNtNtNtB38_3api13managed_types18managed_buffer_api17InvalidSliceErrorENCNvMs2_NtB32_11managed_vecINtB6H_10ManagedVecB10_BD_E3set0Es6_0Cs8iyf5MSkCde_5tests
FN:29,_RNCINvXs1S_Cs2eHPTk3TAlu_14common_structsINtB9_15AccountPositionINtNtNtNtCs1rODQd5oASQ_22multiversx_sc_scenario3api7impl_vh12vm_hooks_api10VMHooksApiNtNtB15_9debug_api15DebugApiBackendEENtNtNtNtNtCslPMlHj3qn2H_13multiversx_sc5types7managed7wrapped16managed_vec_item14ManagedVecItem16into_byte_writerINtNtCslGS7pEIChKc_4core6result6ResultuNtNtNtNtB38_3api13managed_types18managed_buffer_api17InvalidSliceErrorENCNvMs2_NtB32_11managed_vecINtB6H_10ManagedVecB10_BD_E3set0Es7_0Cs8iyf5MSkCde_5tests
FN:29,_RNCINvXs1S_Cs2eHPTk3TAlu_14common_structsINtB9_15AccountPositionINtNtNtNtCs1rODQd5oASQ_22multiversx_sc_scenario3api7impl_vh12vm_hooks_api10VMHooksApiNtNtB15_9debug_api15DebugApiBackendEENtNtNtNtNtCslPMlHj3qn2H_13multiversx_sc5types7managed7wrapped16managed_vec_item14ManagedVecItem16into_byte_writerINtNtCslGS7pEIChKc_4core6result6ResultuNtNtNtNtB38_3api13managed_types18managed_buffer_api17InvalidSliceErrorENCNvMs2_NtB32_11managed_vecINtB6H_10ManagedVecB10_BD_E3set0Es_0Cs8iyf5MSkCde_5tests
FN:29,_RNCINvXs1S_Cs2eHPTk3TAlu_14common_structsINtB9_15AccountPositionINtNtNtNtCs1rODQd5oASQ_22multiversx_sc_scenario3api7impl_vh12vm_hooks_api10VMHooksApiNtNtB15_9debug_api15DebugApiBackendEENtNtNtNtNtCslPMlHj3qn2H_13multiversx_sc5types7managed7wrapped16managed_vec_item14ManagedVecItem16into_byte_writeruNCNvMs2_NtB32_11managed_vecINtB4W_10ManagedVecB10_BD_E4push0E0Cs8iyf5MSkCde_5tests
FN:29,_RNCINvXs1S_Cs2eHPTk3TAlu_14common_structsINtB9_15AccountPositionINtNtNtNtCs1rODQd5oASQ_22multiversx_sc_scenario3api7impl_vh12vm_hooks_api10VMHooksApiNtNtB15_9debug_api15DebugApiBackendEENtNtNtNtNtCslPMlHj3qn2H_13multiversx_sc5types7managed7wrapped16managed_vec_item14ManagedVecItem16into_byte_writeruNCNvMs2_NtB32_11managed_vecINtB4W_10ManagedVecB10_BD_E4push0Es0_0Cs8iyf5MSkCde_5tests
FN:29,_RNCINvXs1S_Cs2eHPTk3TAlu_14common_structsINtB9_15AccountPositionINtNtNtNtCs1rODQd5oASQ_22multiversx_sc_scenario3api7impl_vh12vm_hooks_api10VMHooksApiNtNtB15_9debug_api15DebugApiBackendEENtNtNtNtNtCslPMlHj3qn2H_13multiversx_sc5types7managed7wrapped16managed_vec_item14ManagedVecItem16into_byte_writeruNCNvMs2_NtB32_11managed_vecINtB4W_10ManagedVecB10_BD_E4push0Es1_0Cs8iyf5MSkCde_5tests
FN:29,_RNCINvXs1S_Cs2eHPTk3TAlu_14common_structsINtB9_15AccountPositionINtNtNtNtCs1rODQd5oASQ_22multiversx_sc_scenario3api7impl_vh12vm_hooks_api10VMHooksApiNtNtB15_9debug_api15DebugApiBackendEENtNtNtNtNtCslPMlHj3qn2H_13multiversx_sc5types7managed7wrapped16managed_vec_item14ManagedVecItem16into_byte_writeruNCNvMs2_NtB32_11managed_vecINtB4W_10ManagedVecB10_BD_E4push0Es2_0Cs8iyf5MSkCde_5tests
FN:29,_RNCINvXs1S_Cs2eHPTk3TAlu_14common_structsINtB9_15AccountPositionINtNtNtNtCs1rODQd5oASQ_22multiversx_sc_scenario3api7impl_vh12vm_hooks_api10VMHooksApiNtNtB15_9debug_api15DebugApiBackendEENtNtNtNtNtCslPMlHj3qn2H_13multiversx_sc5types7managed7wrapped16managed_vec_item14ManagedVecItem16into_byte_writeruNCNvMs2_NtB32_11managed_vecINtB4W_10ManagedVecB10_BD_E4push0Es3_0Cs8iyf5MSkCde_5tests
FN:29,_RNCINvXs1S_Cs2eHPTk3TAlu_14common_structsINtB9_15AccountPositionINtNtNtNtCs1rODQd5oASQ_22multiversx_sc_scenario3api7impl_vh12vm_hooks_api10VMHooksApiNtNtB15_9debug_api15DebugApiBackendEENtNtNtNtNtCslPMlHj3qn2H_13multiversx_sc5types7managed7wrapped16managed_vec_item14ManagedVecItem16into_byte_writeruNCNvMs2_NtB32_11managed_vecINtB4W_10ManagedVecB10_BD_E4push0Es4_0Cs8iyf5MSkCde_5tests
FN:29,_RNCINvXs1S_Cs2eHPTk3TAlu_14common_structsINtB9_15AccountPositionINtNtNtNtCs1rODQd5oASQ_22multiversx_sc_scenario3api7impl_vh12vm_hooks_api10VMHooksApiNtNtB15_9debug_api15DebugApiBackendEENtNtNtNtNtCslPMlHj3qn2H_13multiversx_sc5types7managed7wrapped16managed_vec_item14ManagedVecItem16into_byte_writeruNCNvMs2_NtB32_11managed_vecINtB4W_10ManagedVecB10_BD_E4push0Es5_0Cs8iyf5MSkCde_5tests
FN:29,_RNCINvXs1S_Cs2eHPTk3TAlu_14common_structsINtB9_15AccountPositionINtNtNtNtCs1rODQd5oASQ_22multiversx_sc_scenario3api7impl_vh12vm_hooks_api10VMHooksApiNtNtB15_9debug_api15DebugApiBackendEENtNtNtNtNtCslPMlHj3qn2H_13multiversx_sc5types7managed7wrapped16managed_vec_item14ManagedVecItem16into_byte_writeruNCNvMs2_NtB32_11managed_vecINtB4W_10ManagedVecB10_BD_E4push0Es6_0Cs8iyf5MSkCde_5tests
FN:29,_RNCINvXs1S_Cs2eHPTk3TAlu_14common_structsINtB9_15AccountPositionINtNtNtNtCs1rODQd5oASQ_22multiversx_sc_scenario3api7impl_vh12vm_hooks_api10VMHooksApiNtNtB15_9debug_api15DebugApiBackendEENtNtNtNtNtCslPMlHj3qn2H_13multiversx_sc5types7managed7wrapped16managed_vec_item14ManagedVecItem16into_byte_writeruNCNvMs2_NtB32_11managed_vecINtB4W_10ManagedVecB10_BD_E4push0Es7_0Cs8iyf5MSkCde_5tests
FN:29,_RNCINvXs1S_Cs2eHPTk3TAlu_14common_structsINtB9_15AccountPositionINtNtNtNtCs1rODQd5oASQ_22multiversx_sc_scenario3api7impl_vh12vm_hooks_api10VMHooksApiNtNtB15_9debug_api15DebugApiBackendEENtNtNtNtNtCslPMlHj3qn2H_13multiversx_sc5types7managed7wrapped16managed_vec_item14ManagedVecItem16into_byte_writeruNCNvMs2_NtB32_11managed_vecINtB4W_10ManagedVecB10_BD_E4push0Es_0Cs8iyf5MSkCde_5tests
FN:70,_RNvMCs2eHPTk3TAlu_14common_structsINtB2_15AccountPositionINtNtNtNtCs1rODQd5oASQ_22multiversx_sc_scenario3api7impl_vh12vm_hooks_api10VMHooksApiNtNtBY_9debug_api15DebugApiBackendEE16get_total_amountCs8iyf5MSkCde_5tests
FN:44,_RNvMCs2eHPTk3TAlu_14common_structsINtB2_15AccountPositionINtNtNtNtCs1rODQd5oASQ_22multiversx_sc_scenario3api7impl_vh12vm_hooks_api10VMHooksApiNtNtBY_9debug_api15DebugApiBackendEE3newCs8iyf5MSkCde_5tests
FNDA:0,_RINvXINICs3o9EQk8eroe_14common_structss2d_0pEINtB6_10PoolParamspENtNtNtCs5SUGlJDgeoS_19multiversx_sc_codec6single6top_en9TopEncode24top_encode_or_handle_errppEB6_
FNDA:0,_RINvXINICs3o9EQk8eroe_14common_structss2e_0pEINtB6_10PoolParamspENtNtNtCs5SUGlJDgeoS_19multiversx_sc_codec6single6top_de9TopDecode24top_decode_or_handle_errppEB6_
FNDA:0,_RNvXINICs3o9EQk8eroe_14common_structss2c_0pEINtB5_10PoolParamspENtNtNtCslPMlHj3qn2H_13multiversx_sc3abi8type_abi7TypeAbi9type_nameB5_
FNDA:0,_RINvXINICs3o9EQk8eroe_14common_structss2c_0pEINtB6_10PoolParamspENtNtNtCslPMlHj3qn2H_13multiversx_sc3abi8type_abi7TypeAbi25provide_type_descriptionspEB6_
FNDA:0,_RINvXs21_Cs3o9EQk8eroe_14common_structsNtB7_19AccountPositionTypeNtNtNtNtNtCslPMlHj3qn2H_13multiversx_sc5types7managed7wrapped16managed_vec_item14ManagedVecItem16from_byte_readerpEB7_
FNDA:0,_RINvXs21_Cs3o9EQk8eroe_14common_structsNtB7_19AccountPositionTypeNtNtNtNtNtCslPMlHj3qn2H_13multiversx_sc5types7managed7wrapped16managed_vec_item14ManagedVecItem26from_byte_reader_as_borrowpEB7_
FNDA:0,_RINvXs21_Cs3o9EQk8eroe_14common_structsNtB7_19AccountPositionTypeNtNtNtNtNtCslPMlHj3qn2H_13multiversx_sc5types7managed7wrapped16managed_vec_item14ManagedVecItem16into_byte_writerppEB7_
FNDA:0,_RINvXs22_Cs3o9EQk8eroe_14common_structsNtB7_19AccountPositionTypeNtNtNtCs5SUGlJDgeoS_19multiversx_sc_codec6single9nested_en12NestedEncode24dep_encode_or_handle_errppEB7_
FNDA:0,_RINvXs23_Cs3o9EQk8eroe_14common_structsNtB7_19AccountPositionTypeNtNtNtCs5SUGlJDgeoS_19multiversx_sc_codec6single9nested_de12NestedDecode24dep_decode_or_handle_errppEB7_
FNDA:0,_RINvXs24_Cs3o9EQk8eroe_14common_structsNtB7_19AccountPositionTypeNtNtNtCs5SUGlJDgeoS_19multiversx_sc_codec6single6top_en9TopEncode24top_encode_or_handle_errppEB7_
FNDA:0,_RINvXs25_Cs3o9EQk8eroe_14common_structsNtB7_19AccountPositionTypeNtNtNtCs5SUGlJDgeoS_19multiversx_sc_codec6single6top_de9TopDecode24top_decode_or_handle_errppEB7_
FNDA:0,_RNvXs20_Cs3o9EQk8eroe_14common_structsNtB6_19AccountPositionTypeNtNtNtCslPMlHj3qn2H_13multiversx_sc3abi8type_abi7TypeAbi9type_name
FNDA:0,_RINvXs20_Cs3o9EQk8eroe_14common_structsNtB7_19AccountPositionTypeNtNtNtCslPMlHj3qn2H_13multiversx_sc3abi8type_abi7TypeAbi25provide_type_descriptionspEB7_
FNDA:0,_RINvXINICs3o9EQk8eroe_14common_structss1S_0pEINtB6_15AccountPositionpENtNtNtNtNtCslPMlHj3qn2H_13multiversx_sc5types7managed7wrapped16managed_vec_item14ManagedVecItem16from_byte_readerpEB6_
FNDA:0,_RNCINvXINICs3o9EQk8eroe_14common_structss1S_0pEINtB8_15AccountPositionpENtNtNtNtNtCslPMlHj3qn2H_13multiversx_sc5types7managed7wrapped16managed_vec_item14ManagedVecItem16from_byte_readerpE0B8_
FNDA:0,_RNCINvXINICs3o9EQk8eroe_14common_structss1S_0pEINtB8_15AccountPositionpENtNtNtNtNtCslPMlHj3qn2H_13multiversx_sc5types7managed7wrapped16managed_vec_item14ManagedVecItem16from_byte_readerpEs_0B8_
FNDA:0,_RNCINvXINICs3o9EQk8eroe_14common_structss1S_0pEINtB8_15AccountPositionpENtNtNtNtNtCslPMlHj3qn2H_13multiversx_sc5types7managed7wrapped16managed_vec_item14ManagedVecItem16from_byte_readerpEs0_0B8_
FNDA:0,_RNCINvXINICs3o9EQk8eroe_14common_structss1S_0pEINtB8_15AccountPositionpENtNtNtNtNtCslPMlHj3qn2H_13multiversx_sc5types7managed7wrapped16managed_vec_item14ManagedVecItem16from_byte_readerpEs1_0B8_
FNDA:0,_RNCINvXINICs3o9EQk8eroe_14common_structss1S_0pEINtB8_15AccountPositionpENtNtNtNtNtCslPMlHj3qn2H_13multiversx_sc5types7managed7wrapped16managed_vec_item14ManagedVecItem16from_byte_readerpEs2_0B8_
FNDA:0,_RNCINvXINICs3o9EQk8eroe_14common_structss1S_0pEINtB8_15AccountPositionpENtNtNtNtNtCslPMlHj3qn2H_13multiversx_sc5types7managed7wrapped16managed_vec_item14ManagedVecItem16from_byte_readerpEs3_0B8_
FNDA:0,_RNCINvXINICs3o9EQk8eroe_14common_structss1S_0pEINtB8_15AccountPositionpENtNtNtNtNtCslPMlHj3qn2H_13multiversx_sc5types7managed7wrapped16managed_vec_item14ManagedVecItem16from_byte_readerpEs4_0B8_
FNDA:0,_RNCINvXINICs3o9EQk8eroe_14common_structss1S_0pEINtB8_15AccountPositionpENtNtNtNtNtCslPMlHj3qn2H_13multiversx_sc5types7managed7wrapped16managed_vec_item14ManagedVecItem16from_byte_readerpEs5_0B8_
FNDA:0,_RNCINvXINICs3o9EQk8eroe_14common_structss1S_0pEINtB8_15AccountPositionpENtNtNtNtNtCslPMlHj3qn2H_13multiversx_sc5types7managed7wrapped16managed_vec_item14ManagedVecItem16from_byte_readerpEs6_0B8_
FNDA:0,_RNCINvXINICs3o9EQk8eroe_14common_structss1S_0pEINtB8_15AccountPositionpENtNtNtNtNtCslPMlHj3qn2H_13multiversx_sc5types7managed7wrapped16managed_vec_item14ManagedVecItem16from_byte_readerpEs7_0B8_
FNDA:0,_RINvXINICs3o9EQk8eroe_14common_structss1S_0pEINtB6_15AccountPositionpENtNtNtNtNtCslPMlHj3qn2H_13multiversx_sc5types7managed7wrapped16managed_vec_item14ManagedVecItem26from_byte_reader_as_borrowpEB6_
FNDA:0,_RINvXINICs3o9EQk8eroe_14common_structss1S_0pEINtB6_15AccountPositionpENtNtNtNtNtCslPMlHj3qn2H_13multiversx_sc5types7managed7wrapped16managed_vec_item14ManagedVecItem16into_byte_writerppEB6_
FNDA:0,_RNCINvXINICs3o9EQk8eroe_14common_structss1S_0pEINtB8_15AccountPositionpENtNtNtNtNtCslPMlHj3qn2H_13multiversx_sc5types7managed7wrapped16managed_vec_item14ManagedVecItem16into_byte_writerppE0B8_
FNDA:0,_RNCINvXINICs3o9EQk8eroe_14common_structss1S_0pEINtB8_15AccountPositionpENtNtNtNtNtCslPMlHj3qn2H_13multiversx_sc5types7managed7wrapped16managed_vec_item14ManagedVecItem16into_byte_writerppEs_0B8_
FNDA:0,_RNCINvXINICs3o9EQk8eroe_14common_structss1S_0pEINtB8_15AccountPositionpENtNtNtNtNtCslPMlHj3qn2H_13multiversx_sc5types7managed7wrapped16managed_vec_item14ManagedVecItem16into_byte_writerppEs0_0B8_
FNDA:0,_RNCINvXINICs3o9EQk8eroe_14common_structss1S_0pEINtB8_15AccountPositionpENtNtNtNtNtCslPMlHj3qn2H_13multiversx_sc5types7managed7wrapped16managed_vec_item14ManagedVecItem16into_byte_writerppEs1_0B8_
FNDA:0,_RNCINvXINICs3o9EQk8eroe_14common_structss1S_0pEINtB8_15AccountPositionpENtNtNtNtNtCslPMlHj3qn2H_13multiversx_sc5types7managed7wrapped16managed_vec_item14ManagedVecItem16into_byte_writerppEs2_0B8_
FNDA:0,_RNCINvXINICs3o9EQk8eroe_14common_structss1S_0pEINtB8_15AccountPositionpENtNtNtNtNtCslPMlHj3qn2H_13multiversx_sc5types7managed7wrapped16managed_vec_item14ManagedVecItem16into_byte_writerppEs3_0B8_
FNDA:0,_RNCINvXINICs3o9EQk8eroe_14common_structss1S_0pEINtB8_15AccountPositionpENtNtNtNtNtCslPMlHj3qn2H_13multiversx_sc5types7managed7wrapped16managed_vec_item14ManagedVecItem16into_byte_writerppEs4_0B8_
FNDA:0,_RNCINvXINICs3o9EQk8eroe_14common_structss1S_0pEINtB8_15AccountPositionpENtNtNtNtNtCslPMlHj3qn2H_13multiversx_sc5types7managed7wrapped16managed_vec_item14ManagedVecItem16into_byte_writerppEs5_0B8_
FNDA:0,_RNCINvXINICs3o9EQk8eroe_14common_structss1S_0pEINtB8_15AccountPositionpENtNtNtNtNtCslPMlHj3qn2H_13multiversx_sc5types7managed7wrapped16managed_vec_item14ManagedVecItem16into_byte_writerppEs6_0B8_
FNDA:0,_RNCINvXINICs3o9EQk8eroe_14common_structss1S_0pEINtB8_15AccountPositionpENtNtNtNtNtCslPMlHj3qn2H_13multiversx_sc5types7managed7wrapped16managed_vec_item14ManagedVecItem16into_byte_writerppEs7_0B8_
FNDA:0,_RINvXINICs3o9EQk8eroe_14common_structss1T_0pEINtB6_15AccountPositionpENtNtNtCs5SUGlJDgeoS_19multiversx_sc_codec6single9nested_en12NestedEncode24dep_encode_or_handle_errppEB6_
FNDA:0,_RINvXINICs3o9EQk8eroe_14common_structss1U_0pEINtB6_15AccountPositionpENtNtNtCs5SUGlJDgeoS_19multiversx_sc_codec6single9nested_de12NestedDecode24dep_decode_or_handle_errppEB6_
FNDA:0,_RINvXINICs3o9EQk8eroe_14common_structss1V_0pEINtB6_15AccountPositionpENtNtNtCs5SUGlJDgeoS_19multiversx_sc_codec6single6top_en9TopEncode24top_encode_or_handle_errppEB6_
FNDA:0,_RINvXINICs3o9EQk8eroe_14common_structss1W_0pEINtB6_15AccountPositionpENtNtNtCs5SUGlJDgeoS_19multiversx_sc_codec6single6top_de9TopDecode24top_decode_or_handle_errppEB6_
FNDA:0,_RNvXINICs3o9EQk8eroe_14common_structss1R_0pEINtB5_15AccountPositionpENtNtNtCslPMlHj3qn2H_13multiversx_sc3abi8type_abi7TypeAbi9type_nameB5_
FNDA:0,_RINvXINICs3o9EQk8eroe_14common_structss1R_0pEINtB6_15AccountPositionpENtNtNtCslPMlHj3qn2H_13multiversx_sc3abi8type_abi7TypeAbi25provide_type_descriptionspEB6_
FNDA:0,_RNvMCs3o9EQk8eroe_14common_structsINtB2_15AccountPositionpE3newB2_
FNDA:0,_RNvMCs3o9EQk8eroe_14common_structsINtB2_15AccountPositionpE16get_total_amountB2_
FNDA:0,_RINvXINICs3o9EQk8eroe_14common_structss1J_0pEINtB6_11AssetConfigpENtNtNtNtNtCslPMlHj3qn2H_13multiversx_sc5types7managed7wrapped16managed_vec_item14ManagedVecItem16from_byte_readerpEB6_
FNDA:0,_RNCINvXINICs3o9EQk8eroe_14common_structss1J_0pEINtB8_11AssetConfigpENtNtNtNtNtCslPMlHj3qn2H_13multiversx_sc5types7managed7wrapped16managed_vec_item14ManagedVecItem16from_byte_readerpE0B8_
FNDA:0,_RNCINvXINICs3o9EQk8eroe_14common_structss1J_0pEINtB8_11AssetConfigpENtNtNtNtNtCslPMlHj3qn2H_13multiversx_sc5types7managed7wrapped16managed_vec_item14ManagedVecItem16from_byte_readerpEs_0B8_
FNDA:0,_RNCINvXINICs3o9EQk8eroe_14common_structss1J_0pEINtB8_11AssetConfigpENtNtNtNtNtCslPMlHj3qn2H_13multiversx_sc5types7managed7wrapped16managed_vec_item14ManagedVecItem16from_byte_readerpEs0_0B8_
FNDA:0,_RNCINvXINICs3o9EQk8eroe_14common_structss1J_0pEINtB8_11AssetConfigpENtNtNtNtNtCslPMlHj3qn2H_13multiversx_sc5types7managed7wrapped16managed_vec_item14ManagedVecItem16from_byte_readerpEs1_0B8_
FNDA:0,_RNCINvXINICs3o9EQk8eroe_14common_structss1J_0pEINtB8_11AssetConfigpENtNtNtNtNtCslPMlHj3qn2H_13multiversx_sc5types7managed7wrapped16managed_vec_item14ManagedVecItem16from_byte_readerpEs2_0B8_
FNDA:0,_RNCINvXINICs3o9EQk8eroe_14common_structss1J_0pEINtB8_11AssetConfigpENtNtNtNtNtCslPMlHj3qn2H_13multiversx_sc5types7managed7wrapped16managed_vec_item14ManagedVecItem16from_byte_readerpEs3_0B8_
FNDA:0,_RNCINvXINICs3o9EQk8eroe_14common_structss1J_0pEINtB8_11AssetConfigpENtNtNtNtNtCslPMlHj3qn2H_13multiversx_sc5types7managed7wrapped16managed_vec_item14ManagedVecItem16from_byte_readerpEs4_0B8_
FNDA:0,_RNCINvXINICs3o9EQk8eroe_14common_structss1J_0pEINtB8_11AssetConfigpENtNtNtNtNtCslPMlHj3qn2H_13multiversx_sc5types7managed7wrapped16managed_vec_item14ManagedVecItem16from_byte_readerpEs5_0B8_
FNDA:0,_RNCINvXINICs3o9EQk8eroe_14common_structss1J_0pEINtB8_11AssetConfigpENtNtNtNtNtCslPMlHj3qn2H_13multiversx_sc5types7managed7wrapped16managed_vec_item14ManagedVecItem16from_byte_readerpEs6_0B8_
FNDA:0,_RNCINvXINICs3o9EQk8eroe_14common_structss1J_0pEINtB8_11AssetConfigpENtNtNtNtNtCslPMlHj3qn2H_13multiversx_sc5types7managed7wrapped16managed_vec_item14ManagedVecItem16from_byte_readerpEs7_0B8_
FNDA:0,_RNCINvXINICs3o9EQk8eroe_14common_structss1J_0pEINtB8_11AssetConfigpENtNtNtNtNtCslPMlHj3qn2H_13multiversx_sc5types7managed7wrapped16managed_vec_item14ManagedVecItem16from_byte_readerpEs8_0B8_
FNDA:0,_RNCINvXINICs3o9EQk8eroe_14common_structss1J_0pEINtB8_11AssetConfigpENtNtNtNtNtCslPMlHj3qn2H_13multiversx_sc5types7managed7wrapped16managed_vec_item14ManagedVecItem16from_byte_readerpEs9_0B8_
FNDA:0,_RNCINvXINICs3o9EQk8eroe_14common_structss1J_0pEINtB8_11AssetConfigpENtNtNtNtNtCslPMlHj3qn2H_13multiversx_sc5types7managed7wrapped16managed_vec_item14ManagedVecItem16from_byte_readerpEsa_0B8_
FNDA:0,_RNCINvXINICs3o9EQk8eroe_14common_structss1J_0pEINtB8_11AssetConfigpENtNtNtNtNtCslPMlHj3qn2H_13multiversx_sc5types7managed7wrapped16managed_vec_item14ManagedVecItem16from_byte_readerpEsb_0B8_
FNDA:0,_RNCINvXINICs3o9EQk8eroe_14common_structss1J_0pEINtB8_11AssetConfigpENtNtNtNtNtCslPMlHj3qn2H_13multiversx_sc5types7managed7wrapped16managed_vec_item14ManagedVecItem16from_byte_readerpEsc_0B8_
FNDA:0,_RINvXINICs3o9EQk8eroe_14common_structss1J_0pEINtB6_11AssetConfigpENtNtNtNtNtCslPMlHj3qn2H_13multiversx_sc5types7managed7wrapped16managed_vec_item14ManagedVecItem26from_byte_reader_as_borrowpEB6_
FNDA:0,_RINvXINICs3o9EQk8eroe_14common_structss1J_0pEINtB6_11AssetConfigpENtNtNtNtNtCslPMlHj3qn2H_13multiversx_sc5types7managed7wrapped16managed_vec_item14ManagedVecItem16into_byte_writerppEB6_
FNDA:0,_RNCINvXINICs3o9EQk8eroe_14common_structss1J_0pEINtB8_11AssetConfigpENtNtNtNtNtCslPMlHj3qn2H_13multiversx_sc5types7managed7wrapped16managed_vec_item14ManagedVecItem16into_byte_writerppE0B8_
FNDA:0,_RNCINvXINICs3o9EQk8eroe_14common_structss1J_0pEINtB8_11AssetConfigpENtNtNtNtNtCslPMlHj3qn2H_13multiversx_sc5types7managed7wrapped16managed_vec_item14ManagedVecItem16into_byte_writerppEs_0B8_
FNDA:0,_RNCINvXINICs3o9EQk8eroe_14common_structss1J_0pEINtB8_11AssetConfigpENtNtNtNtNtCslPMlHj3qn2H_13multiversx_sc5types7managed7wrapped16managed_vec_item14ManagedVecItem16into_byte_writerppEs0_0B8_
FNDA:0,_RNCINvXINICs3o9EQk8eroe_14common_structss1J_0pEINtB8_11AssetConfigpENtNtNtNtNtCslPMlHj3qn2H_13multiversx_sc5types7managed7wrapped16managed_vec_item14ManagedVecItem16into_byte_writerppEs1_0B8_
FNDA:0,_RNCINvXINICs3o9EQk8eroe_14common_structss1J_0pEINtB8_11AssetConfigpENtNtNtNtNtCslPMlHj3qn2H_13multiversx_sc5types7managed7wrapped16managed_vec_item14ManagedVecItem16into_byte_writerppEs2_0B8_
FNDA:0,_RNCINvXINICs3o9EQk8eroe_14common_structss1J_0pEINtB8_11AssetConfigpENtNtNtNtNtCslPMlHj3qn2H_13multiversx_sc5types7managed7wrapped16managed_vec_item14ManagedVecItem16into_byte_writerppEs3_0B8_
FNDA:0,_RNCINvXINICs3o9EQk8eroe_14common_structss1J_0pEINtB8_11AssetConfigpENtNtNtNtNtCslPMlHj3qn2H_13multiversx_sc5types7managed7wrapped16managed_vec_item14ManagedVecItem16into_byte_writerppEs4_0B8_
FNDA:0,_RNCINvXINICs3o9EQk8eroe_14common_structss1J_0pEINtB8_11AssetConfigpENtNtNtNtNtCslPMlHj3qn2H_13multiversx_sc5types7managed7wrapped16managed_vec_item14ManagedVecItem16into_byte_writerppEs5_0B8_
FNDA:0,_RNCINvXINICs3o9EQk8eroe_14common_structss1J_0pEINtB8_11AssetConfigpENtNtNtNtNtCslPMlHj3qn2H_13multiversx_sc5types7managed7wrapped16managed_vec_item14ManagedVecItem16into_byte_writerppEs6_0B8_
FNDA:0,_RNCINvXINICs3o9EQk8eroe_14common_structss1J_0pEINtB8_11AssetConfigpENtNtNtNtNtCslPMlHj3qn2H_13multiversx_sc5types7managed7wrapped16managed_vec_item14ManagedVecItem16into_byte_writerppEs7_0B8_
FNDA:0,_RNCINvXINICs3o9EQk8eroe_14common_structss1J_0pEINtB8_11AssetConfigpENtNtNtNtNtCslPMlHj3qn2H_13multiversx_sc5types7managed7wrapped16managed_vec_item14ManagedVecItem16into_byte_writerppEs8_0B8_
FNDA:0,_RNCINvXINICs3o9EQk8eroe_14common_structss1J_0pEINtB8_11AssetConfigpENtNtNtNtNtCslPMlHj3qn2H_13multiversx_sc5types7managed7wrapped16managed_vec_item14ManagedVecItem16into_byte_writerppEs9_0B8_
FNDA:0,_RNCINvXINICs3o9EQk8eroe_14common_structss1J_0pEINtB8_11AssetConfigpENtNtNtNtNtCslPMlHj3qn2H_13multiversx_sc5types7managed7wrapped16managed_vec_item14ManagedVecItem16into_byte_writerppEsa_0B8_
FNDA:0,_RNCINvXINICs3o9EQk8eroe_14common_structss1J_0pEINtB8_11AssetConfigpENtNtNtNtNtCslPMlHj3qn2H_13multiversx_sc5types7managed7wrapped16managed_vec_item14ManagedVecItem16into_byte_writerppEsb_0B8_
FNDA:0,_RNCINvXINICs3o9EQk8eroe_14common_structss1J_0pEINtB8_11AssetConfigpENtNtNtNtNtCslPMlHj3qn2H_13multiversx_sc5types7managed7wrapped16managed_vec_item14ManagedVecItem16into_byte_writerppEsc_0B8_
FNDA:0,_RINvXINICs3o9EQk8eroe_14common_structss1K_0pEINtB6_11AssetConfigpENtNtNtCs5SUGlJDgeoS_19multiversx_sc_codec6single6top_en9TopEncode24top_encode_or_handle_errppEB6_
FNDA:0,_RINvXINICs3o9EQk8eroe_14common_structss1L_0pEINtB6_11AssetConfigpENtNtNtCs5SUGlJDgeoS_19multiversx_sc_codec6single6top_de9TopDecode24top_decode_or_handle_errppEB6_
FNDA:0,_RINvXINICs3o9EQk8eroe_14common_structss1M_0pEINtB6_11AssetConfigpENtNtNtCs5SUGlJDgeoS_19multiversx_sc_codec6single9nested_en12NestedEncode24dep_encode_or_handle_errppEB6_
FNDA:0,_RINvXINICs3o9EQk8eroe_14common_structss1N_0pEINtB6_11AssetConfigpENtNtNtCs5SUGlJDgeoS_19multiversx_sc_codec6single9nested_de12NestedDecode24dep_decode_or_handle_errppEB6_
FNDA:0,_RNvXINICs3o9EQk8eroe_14common_structss1I_0pEINtB5_11AssetConfigpENtNtNtCslPMlHj3qn2H_13multiversx_sc3abi8type_abi7TypeAbi9type_nameB5_
FNDA:0,_RINvXINICs3o9EQk8eroe_14common_structss1I_0pEINtB6_11AssetConfigpENtNtNtCslPMlHj3qn2H_13multiversx_sc3abi8type_abi7TypeAbi25provide_type_descriptionspEB6_
FNDA:0,_RINvXINICs3o9EQk8eroe_14common_structss1B_0pEINtB6_23AssetExtendedConfigViewpENtNtNtNtNtCslPMlHj3qn2H_13multiversx_sc5types7managed7wrapped16managed_vec_item14ManagedVecItem16from_byte_readerpEB6_
FNDA:0,_RNCINvXINICs3o9EQk8eroe_14common_structss1B_0pEINtB8_23AssetExtendedConfigViewpENtNtNtNtNtCslPMlHj3qn2H_13multiversx_sc5types7managed7wrapped16managed_vec_item14ManagedVecItem16from_byte_readerpE0B8_
FNDA:0,_RNCINvXINICs3o9EQk8eroe_14common_structss1B_0pEINtB8_23AssetExtendedConfigViewpENtNtNtNtNtCslPMlHj3qn2H_13multiversx_sc5types7managed7wrapped16managed_vec_item14ManagedVecItem16from_byte_readerpEs_0B8_
FNDA:0,_RNCINvXINICs3o9EQk8eroe_14common_structss1B_0pEINtB8_23AssetExtendedConfigViewpENtNtNtNtNtCslPMlHj3qn2H_13multiversx_sc5types7managed7wrapped16managed_vec_item14ManagedVecItem16from_byte_readerpEs0_0B8_
FNDA:0,_RNCINvXINICs3o9EQk8eroe_14common_structss1B_0pEINtB8_23AssetExtendedConfigViewpENtNtNtNtNtCslPMlHj3qn2H_13multiversx_sc5types7managed7wrapped16managed_vec_item14ManagedVecItem16from_byte_readerpEs1_0B8_
FNDA:0,_RINvXINICs3o9EQk8eroe_14common_structss1B_0pEINtB6_23AssetExtendedConfigViewpENtNtNtNtNtCslPMlHj3qn2H_13multiversx_sc5types7managed7wrapped16managed_vec_item14ManagedVecItem26from_byte_reader_as_borrowpEB6_
FNDA:0,_RINvXINICs3o9EQk8eroe_14common_structss1B_0pEINtB6_23AssetExtendedConfigViewpENtNtNtNtNtCslPMlHj3qn2H_13multiversx_sc5types7managed7wrapped16managed_vec_item14ManagedVecItem16into_byte_writerppEB6_
FNDA:0,_RNCINvXINICs3o9EQk8eroe_14common_structss1B_0pEINtB8_23AssetExtendedConfigViewpENtNtNtNtNtCslPMlHj3qn2H_13multiversx_sc5types7managed7wrapped16managed_vec_item14ManagedVecItem16into_byte_writerppE0B8_
FNDA:0,_RNCINvXINICs3o9EQk8eroe_14common_structss1B_0pEINtB8_23AssetExtendedConfigViewpENtNtNtNtNtCslPMlHj3qn2H_13multiversx_sc5types7managed7wrapped16managed_vec_item14ManagedVecItem16into_byte_writerppEs_0B8_
FNDA:0,_RNCINvXINICs3o9EQk8eroe_14common_structss1B_0pEINtB8_23AssetExtendedConfigViewpENtNtNtNtNtCslPMlHj3qn2H_13multiversx_sc5types7managed7wrapped16managed_vec_item14ManagedVecItem16into_byte_writerppEs0_0B8_
FNDA:0,_RNCINvXINICs3o9EQk8eroe_14common_structss1B_0pEINtB8_23AssetExtendedConfigViewpENtNtNtNtNtCslPMlHj3qn2H_13multiversx_sc5types7managed7wrapped16managed_vec_item14ManagedVecItem16into_byte_writerppEs1_0B8_
FNDA:0,_RINvXINICs3o9EQk8eroe_14common_structss1C_0pEINtB6_23AssetExtendedConfigViewpENtNtNtCs5SUGlJDgeoS_19multiversx_sc_codec6single6top_en9TopEncode24top_encode_or_handle_errppEB6_
FNDA:0,_RINvXINICs3o9EQk8eroe_14common_structss1D_0pEINtB6_23AssetExtendedConfigViewpENtNtNtCs5SUGlJDgeoS_19multiversx_sc_codec6single6top_de9TopDecode24top_decode_or_handle_errppEB6_
FNDA:0,_RINvXINICs3o9EQk8eroe_14common_structss1E_0pEINtB6_23AssetExtendedConfigViewpENtNtNtCs5SUGlJDgeoS_19multiversx_sc_codec6single9nested_en12NestedEncode24dep_encode_or_handle_errppEB6_
FNDA:0,_RINvXINICs3o9EQk8eroe_14common_structss1F_0pEINtB6_23AssetExtendedConfigViewpENtNtNtCs5SUGlJDgeoS_19multiversx_sc_codec6single9nested_de12NestedDecode24dep_decode_or_handle_errppEB6_
FNDA:0,_RNvXINICs3o9EQk8eroe_14common_structss1A_0pEINtB5_23AssetExtendedConfigViewpENtNtNtCslPMlHj3qn2H_13multiversx_sc3abi8type_abi7TypeAbi9type_nameB5_
FNDA:0,_RINvXINICs3o9EQk8eroe_14common_structss1A_0pEINtB6_23AssetExtendedConfigViewpENtNtNtCslPMlHj3qn2H_13multiversx_sc3abi8type_abi7TypeAbi25provide_type_descriptionspEB6_
FNDA:0,_RINvXINICs3o9EQk8eroe_14common_structss1t_0pEINtB6_13EModeCategorypENtNtNtNtNtCslPMlHj3qn2H_13multiversx_sc5types7managed7wrapped16managed_vec_item14ManagedVecItem16from_byte_readerpEB6_
FNDA:0,_RNCINvXINICs3o9EQk8eroe_14common_structss1t_0pEINtB8_13EModeCategorypENtNtNtNtNtCslPMlHj3qn2H_13multiversx_sc5types7managed7wrapped16managed_vec_item14ManagedVecItem16from_byte_readerpE0B8_
FNDA:0,_RNCINvXINICs3o9EQk8eroe_14common_structss1t_0pEINtB8_13EModeCategorypENtNtNtNtNtCslPMlHj3qn2H_13multiversx_sc5types7managed7wrapped16managed_vec_item14ManagedVecItem16from_byte_readerpEs_0B8_
FNDA:0,_RNCINvXINICs3o9EQk8eroe_14common_structss1t_0pEINtB8_13EModeCategorypENtNtNtNtNtCslPMlHj3qn2H_13multiversx_sc5types7managed7wrapped16managed_vec_item14ManagedVecItem16from_byte_readerpEs0_0B8_
FNDA:0,_RNCINvXINICs3o9EQk8eroe_14common_structss1t_0pEINtB8_13EModeCategorypENtNtNtNtNtCslPMlHj3qn2H_13multiversx_sc5types7managed7wrapped16managed_vec_item14ManagedVecItem16from_byte_readerpEs1_0B8_
FNDA:0,_RNCINvXINICs3o9EQk8eroe_14common_structss1t_0pEINtB8_13EModeCategorypENtNtNtNtNtCslPMlHj3qn2H_13multiversx_sc5types7managed7wrapped16managed_vec_item14ManagedVecItem16from_byte_readerpEs2_0B8_
FNDA:0,_RINvXINICs3o9EQk8eroe_14common_structss1t_0pEINtB6_13EModeCategorypENtNtNtNtNtCslPMlHj3qn2H_13multiversx_sc5types7managed7wrapped16managed_vec_item14ManagedVecItem26from_byte_reader_as_borrowpEB6_
FNDA:0,_RINvXINICs3o9EQk8eroe_14common_structss1t_0pEINtB6_13EModeCategorypENtNtNtNtNtCslPMlHj3qn2H_13multiversx_sc5types7managed7wrapped16managed_vec_item14ManagedVecItem16into_byte_writerppEB6_
FNDA:0,_RNCINvXINICs3o9EQk8eroe_14common_structss1t_0pEINtB8_13EModeCategorypENtNtNtNtNtCslPMlHj3qn2H_13multiversx_sc5types7managed7wrapped16managed_vec_item14ManagedVecItem16into_byte_writerppE0B8_
FNDA:0,_RNCINvXINICs3o9EQk8eroe_14common_structss1t_0pEINtB8_13EModeCategorypENtNtNtNtNtCslPMlHj3qn2H_13multiversx_sc5types7managed7wrapped16managed_vec_item14ManagedVecItem16into_byte_writerppEs_0B8_
FNDA:0,_RNCINvXINICs3o9EQk8eroe_14common_structss1t_0pEINtB8_13EModeCategorypENtNtNtNtNtCslPMlHj3qn2H_13multiversx_sc5types7managed7wrapped16managed_vec_item14ManagedVecItem16into_byte_writerppEs0_0B8_
FNDA:0,_RNCINvXINICs3o9EQk8eroe_14common_structss1t_0pEINtB8_13EModeCategorypENtNtNtNtNtCslPMlHj3qn2H_13multiversx_sc5types7managed7wrapped16managed_vec_item14ManagedVecItem16into_byte_writerppEs1_0B8_
FNDA:0,_RNCINvXINICs3o9EQk8eroe_14common_structss1t_0pEINtB8_13EModeCategorypENtNtNtNtNtCslPMlHj3qn2H_13multiversx_sc5types7managed7wrapped16managed_vec_item14ManagedVecItem16into_byte_writerppEs2_0B8_
FNDA:0,_RINvXINICs3o9EQk8eroe_14common_structss1u_0pEINtB6_13EModeCategorypENtNtNtCs5SUGlJDgeoS_19multiversx_sc_codec6single6top_en9TopEncode24top_encode_or_handle_errppEB6_
FNDA:0,_RINvXINICs3o9EQk8eroe_14common_structss1v_0pEINtB6_13EModeCategorypENtNtNtCs5SUGlJDgeoS_19multiversx_sc_codec6single6top_de9TopDecode24top_decode_or_handle_errppEB6_
FNDA:0,_RINvXINICs3o9EQk8eroe_14common_structss1w_0pEINtB6_13EModeCategorypENtNtNtCs5SUGlJDgeoS_19multiversx_sc_codec6single9nested_en12NestedEncode24dep_encode_or_handle_errppEB6_
FNDA:0,_RINvXINICs3o9EQk8eroe_14common_structss1x_0pEINtB6_13EModeCategorypENtNtNtCs5SUGlJDgeoS_19multiversx_sc_codec6single9nested_de12NestedDecode24dep_decode_or_handle_errppEB6_
FNDA:0,_RNvXINICs3o9EQk8eroe_14common_structss1s_0pEINtB5_13EModeCategorypENtNtNtCslPMlHj3qn2H_13multiversx_sc3abi8type_abi7TypeAbi9type_nameB5_
FNDA:0,_RINvXINICs3o9EQk8eroe_14common_structss1s_0pEINtB6_13EModeCategorypENtNtNtCslPMlHj3qn2H_13multiversx_sc3abi8type_abi7TypeAbi25provide_type_descriptionspEB6_
FNDA:0,_RINvXs1l_Cs3o9EQk8eroe_14common_structsNtB7_16EModeAssetConfigNtNtNtNtNtCslPMlHj3qn2H_13multiversx_sc5types7managed7wrapped16managed_vec_item14ManagedVecItem16from_byte_readerpEB7_
FNDA:0,_RNCINvXs1l_Cs3o9EQk8eroe_14common_structsNtB9_16EModeAssetConfigNtNtNtNtNtCslPMlHj3qn2H_13multiversx_sc5types7managed7wrapped16managed_vec_item14ManagedVecItem16from_byte_readerpE0B9_
FNDA:0,_RNCINvXs1l_Cs3o9EQk8eroe_14common_structsNtB9_16EModeAssetConfigNtNtNtNtNtCslPMlHj3qn2H_13multiversx_sc5types7managed7wrapped16managed_vec_item14ManagedVecItem16from_byte_readerpEs_0B9_
FNDA:0,_RINvXs1l_Cs3o9EQk8eroe_14common_structsNtB7_16EModeAssetConfigNtNtNtNtNtCslPMlHj3qn2H_13multiversx_sc5types7managed7wrapped16managed_vec_item14ManagedVecItem26from_byte_reader_as_borrowpEB7_
FNDA:0,_RINvXs1l_Cs3o9EQk8eroe_14common_structsNtB7_16EModeAssetConfigNtNtNtNtNtCslPMlHj3qn2H_13multiversx_sc5types7managed7wrapped16managed_vec_item14ManagedVecItem16into_byte_writerppEB7_
FNDA:0,_RNCINvXs1l_Cs3o9EQk8eroe_14common_structsNtB9_16EModeAssetConfigNtNtNtNtNtCslPMlHj3qn2H_13multiversx_sc5types7managed7wrapped16managed_vec_item14ManagedVecItem16into_byte_writerppE0B9_
FNDA:0,_RNCINvXs1l_Cs3o9EQk8eroe_14common_structsNtB9_16EModeAssetConfigNtNtNtNtNtCslPMlHj3qn2H_13multiversx_sc5types7managed7wrapped16managed_vec_item14ManagedVecItem16into_byte_writerppEs_0B9_
FNDA:0,_RINvXs1m_Cs3o9EQk8eroe_14common_structsNtB7_16EModeAssetConfigNtNtNtCs5SUGlJDgeoS_19multiversx_sc_codec6single6top_en9TopEncode24top_encode_or_handle_errppEB7_
FNDA:0,_RINvXs1n_Cs3o9EQk8eroe_14common_structsNtB7_16EModeAssetConfigNtNtNtCs5SUGlJDgeoS_19multiversx_sc_codec6single6top_de9TopDecode24top_decode_or_handle_errppEB7_
FNDA:0,_RINvXs1o_Cs3o9EQk8eroe_14common_structsNtB7_16EModeAssetConfigNtNtNtCs5SUGlJDgeoS_19multiversx_sc_codec6single9nested_en12NestedEncode24dep_encode_or_handle_errppEB7_
FNDA:0,_RINvXs1p_Cs3o9EQk8eroe_14common_structsNtB7_16EModeAssetConfigNtNtNtCs5SUGlJDgeoS_19multiversx_sc_codec6single9nested_de12NestedDecode24dep_decode_or_handle_errppEB7_
FNDA:0,_RNvXs1k_Cs3o9EQk8eroe_14common_structsNtB6_16EModeAssetConfigNtNtNtCslPMlHj3qn2H_13multiversx_sc3abi8type_abi7TypeAbi9type_name
FNDA:0,_RINvXs1k_Cs3o9EQk8eroe_14common_structsNtB7_16EModeAssetConfigNtNtNtCslPMlHj3qn2H_13multiversx_sc3abi8type_abi7TypeAbi25provide_type_descriptionspEB7_
FNDA:0,_RINvXs1d_Cs3o9EQk8eroe_14common_structsNtB7_20NftAccountAttributesNtNtNtCs5SUGlJDgeoS_19multiversx_sc_codec6single9nested_en12NestedEncode24dep_encode_or_handle_errppEB7_
FNDA:0,_RINvXs1e_Cs3o9EQk8eroe_14common_structsNtB7_20NftAccountAttributesNtNtNtCs5SUGlJDgeoS_19multiversx_sc_codec6single9nested_de12NestedDecode24dep_decode_or_handle_errppEB7_
FNDA:0,_RINvXs1f_Cs3o9EQk8eroe_14common_structsNtB7_20NftAccountAttributesNtNtNtCs5SUGlJDgeoS_19multiversx_sc_codec6single6top_en9TopEncode24top_encode_or_handle_errppEB7_
FNDA:0,_RINvXs1g_Cs3o9EQk8eroe_14common_structsNtB7_20NftAccountAttributesNtNtNtCs5SUGlJDgeoS_19multiversx_sc_codec6single6top_de9TopDecode24top_decode_or_handle_errppEB7_
FNDA:0,_RNvXs1c_Cs3o9EQk8eroe_14common_structsNtB6_20NftAccountAttributesNtNtNtCslPMlHj3qn2H_13multiversx_sc3abi8type_abi7TypeAbi9type_name
FNDA:0,_RINvXs1c_Cs3o9EQk8eroe_14common_structsNtB7_20NftAccountAttributesNtNtNtCslPMlHj3qn2H_13multiversx_sc3abi8type_abi7TypeAbi25provide_type_descriptionspEB7_
FNDA:0,_RINvXINICs3o9EQk8eroe_14common_structss10_0pEINtB6_25EgldOrEsdtTokenPaymentNewpENtNtNtNtNtCslPMlHj3qn2H_13multiversx_sc5types7managed7wrapped16managed_vec_item14ManagedVecItem16from_byte_readerpEB6_
FNDA:0,_RNCINvXINICs3o9EQk8eroe_14common_structss10_0pEINtB8_25EgldOrEsdtTokenPaymentNewpENtNtNtNtNtCslPMlHj3qn2H_13multiversx_sc5types7managed7wrapped16managed_vec_item14ManagedVecItem16from_byte_readerpE0B8_
FNDA:0,_RNCINvXINICs3o9EQk8eroe_14common_structss10_0pEINtB8_25EgldOrEsdtTokenPaymentNewpENtNtNtNtNtCslPMlHj3qn2H_13multiversx_sc5types7managed7wrapped16managed_vec_item14ManagedVecItem16from_byte_readerpEs_0B8_
FNDA:0,_RNCINvXINICs3o9EQk8eroe_14common_structss10_0pEINtB8_25EgldOrEsdtTokenPaymentNewpENtNtNtNtNtCslPMlHj3qn2H_13multiversx_sc5types7managed7wrapped16managed_vec_item14ManagedVecItem16from_byte_readerpEs0_0B8_
FNDA:0,_RINvXINICs3o9EQk8eroe_14common_structss10_0pEINtB6_25EgldOrEsdtTokenPaymentNewpENtNtNtNtNtCslPMlHj3qn2H_13multiversx_sc5types7managed7wrapped16managed_vec_item14ManagedVecItem26from_byte_reader_as_borrowpEB6_
FNDA:0,_RINvXINICs3o9EQk8eroe_14common_structss10_0pEINtB6_25EgldOrEsdtTokenPaymentNewpENtNtNtNtNtCslPMlHj3qn2H_13multiversx_sc5types7managed7wrapped16managed_vec_item14ManagedVecItem16into_byte_writerppEB6_
FNDA:0,_RNCINvXINICs3o9EQk8eroe_14common_structss10_0pEINtB8_25EgldOrEsdtTokenPaymentNewpENtNtNtNtNtCslPMlHj3qn2H_13multiversx_sc5types7managed7wrapped16managed_vec_item14ManagedVecItem16into_byte_writerppE0B8_
FNDA:0,_RNCINvXINICs3o9EQk8eroe_14common_structss10_0pEINtB8_25EgldOrEsdtTokenPaymentNewpENtNtNtNtNtCslPMlHj3qn2H_13multiversx_sc5types7managed7wrapped16managed_vec_item14ManagedVecItem16into_byte_writerppEs_0B8_
FNDA:0,_RNCINvXINICs3o9EQk8eroe_14common_structss10_0pEINtB8_25EgldOrEsdtTokenPaymentNewpENtNtNtNtNtCslPMlHj3qn2H_13multiversx_sc5types7managed7wrapped16managed_vec_item14ManagedVecItem16into_byte_writerppEs0_0B8_
FNDA:0,_RINvXINICs3o9EQk8eroe_14common_structss11_0pEINtB6_25EgldOrEsdtTokenPaymentNewpENtNtNtCs5SUGlJDgeoS_19multiversx_sc_codec6single6top_de9TopDecode24top_decode_or_handle_errppEB6_
FNDA:0,_RINvXINICs3o9EQk8eroe_14common_structss12_0pEINtB6_25EgldOrEsdtTokenPaymentNewpENtNtNtCs5SUGlJDgeoS_19multiversx_sc_codec6single6top_en9TopEncode24top_encode_or_handle_errppEB6_
FNDA:0,_RINvXINICs3o9EQk8eroe_14common_structss13_0pEINtB6_25EgldOrEsdtTokenPaymentNewpENtNtNtCs5SUGlJDgeoS_19multiversx_sc_codec6single9nested_de12NestedDecode24dep_decode_or_handle_errppEB6_
FNDA:0,_RINvXINICs3o9EQk8eroe_14common_structss14_0pEINtB6_25EgldOrEsdtTokenPaymentNewpENtNtNtCs5SUGlJDgeoS_19multiversx_sc_codec6single9nested_en12NestedEncode24dep_encode_or_handle_errppEB6_
FNDA:0,_RNvXINICs3o9EQk8eroe_14common_structssZ_0pEINtB5_25EgldOrEsdtTokenPaymentNewpENtNtNtCslPMlHj3qn2H_13multiversx_sc3abi8type_abi7TypeAbi9type_nameB5_
FNDA:0,_RINvXINICs3o9EQk8eroe_14common_structssZ_0pEINtB6_25EgldOrEsdtTokenPaymentNewpENtNtNtCslPMlHj3qn2H_13multiversx_sc3abi8type_abi7TypeAbi25provide_type_descriptionspEB6_
FNDA:0,_RINvXsO_Cs3o9EQk8eroe_14common_structsNtB6_13PricingMethodNtNtNtNtNtCslPMlHj3qn2H_13multiversx_sc5types7managed7wrapped16managed_vec_item14ManagedVecItem16from_byte_readerpEB6_
FNDA:0,_RINvXsO_Cs3o9EQk8eroe_14common_structsNtB6_13PricingMethodNtNtNtNtNtCslPMlHj3qn2H_13multiversx_sc5types7managed7wrapped16managed_vec_item14ManagedVecItem26from_byte_reader_as_borrowpEB6_
FNDA:0,_RINvXsO_Cs3o9EQk8eroe_14common_structsNtB6_13PricingMethodNtNtNtNtNtCslPMlHj3qn2H_13multiversx_sc5types7managed7wrapped16managed_vec_item14ManagedVecItem16into_byte_writerppEB6_
FNDA:0,_RINvXsP_Cs3o9EQk8eroe_14common_structsNtB6_13PricingMethodNtNtNtCs5SUGlJDgeoS_19multiversx_sc_codec6single9nested_en12NestedEncode24dep_encode_or_handle_errppEB6_
FNDA:0,_RINvXsQ_Cs3o9EQk8eroe_14common_structsNtB6_13PricingMethodNtNtNtCs5SUGlJDgeoS_19multiversx_sc_codec6single9nested_de12NestedDecode24dep_decode_or_handle_errppEB6_
FNDA:0,_RINvXsR_Cs3o9EQk8eroe_14common_structsNtB6_13PricingMethodNtNtNtCs5SUGlJDgeoS_19multiversx_sc_codec6single6top_en9TopEncode24top_encode_or_handle_errppEB6_
FNDA:0,_RINvXsS_Cs3o9EQk8eroe_14common_structsNtB6_13PricingMethodNtNtNtCs5SUGlJDgeoS_19multiversx_sc_codec6single6top_de9TopDecode24top_decode_or_handle_errppEB6_
FNDA:0,_RNvXsN_Cs3o9EQk8eroe_14common_structsNtB5_13PricingMethodNtNtNtCslPMlHj3qn2H_13multiversx_sc3abi8type_abi7TypeAbi9type_name
FNDA:0,_RINvXsN_Cs3o9EQk8eroe_14common_structsNtB6_13PricingMethodNtNtNtCslPMlHj3qn2H_13multiversx_sc3abi8type_abi7TypeAbi25provide_type_descriptionspEB6_
FNDA:0,_RINvXsC_Cs3o9EQk8eroe_14common_structsNtB6_10OracleTypeNtNtNtNtNtCslPMlHj3qn2H_13multiversx_sc5types7managed7wrapped16managed_vec_item14ManagedVecItem16from_byte_readerpEB6_
FNDA:0,_RINvXsC_Cs3o9EQk8eroe_14common_structsNtB6_10OracleTypeNtNtNtNtNtCslPMlHj3qn2H_13multiversx_sc5types7managed7wrapped16managed_vec_item14ManagedVecItem26from_byte_reader_as_borrowpEB6_
FNDA:0,_RINvXsC_Cs3o9EQk8eroe_14common_structsNtB6_10OracleTypeNtNtNtNtNtCslPMlHj3qn2H_13multiversx_sc5types7managed7wrapped16managed_vec_item14ManagedVecItem16into_byte_writerppEB6_
FNDA:0,_RINvXsD_Cs3o9EQk8eroe_14common_structsNtB6_10OracleTypeNtNtNtCs5SUGlJDgeoS_19multiversx_sc_codec6single9nested_en12NestedEncode24dep_encode_or_handle_errppEB6_
FNDA:0,_RINvXsE_Cs3o9EQk8eroe_14common_structsNtB6_10OracleTypeNtNtNtCs5SUGlJDgeoS_19multiversx_sc_codec6single9nested_de12NestedDecode24dep_decode_or_handle_errppEB6_
FNDA:0,_RINvXsF_Cs3o9EQk8eroe_14common_structsNtB6_10OracleTypeNtNtNtCs5SUGlJDgeoS_19multiversx_sc_codec6single6top_en9TopEncode24top_encode_or_handle_errppEB6_
FNDA:0,_RINvXsG_Cs3o9EQk8eroe_14common_structsNtB6_10OracleTypeNtNtNtCs5SUGlJDgeoS_19multiversx_sc_codec6single6top_de9TopDecode24top_decode_or_handle_errppEB6_
FNDA:0,_RNvXsB_Cs3o9EQk8eroe_14common_structsNtB5_10OracleTypeNtNtNtCslPMlHj3qn2H_13multiversx_sc3abi8type_abi7TypeAbi9type_name
FNDA:0,_RINvXsB_Cs3o9EQk8eroe_14common_structsNtB6_10OracleTypeNtNtNtCslPMlHj3qn2H_13multiversx_sc3abi8type_abi7TypeAbi25provide_type_descriptionspEB6_
FNDA:0,_RINvXsq_Cs3o9EQk8eroe_14common_structsNtB6_14ExchangeSourceNtNtNtNtNtCslPMlHj3qn2H_13multiversx_sc5types7managed7wrapped16managed_vec_item14ManagedVecItem16from_byte_readerpEB6_
FNDA:0,_RINvXsq_Cs3o9EQk8eroe_14common_structsNtB6_14ExchangeSourceNtNtNtNtNtCslPMlHj3qn2H_13multiversx_sc5types7managed7wrapped16managed_vec_item14ManagedVecItem26from_byte_reader_as_borrowpEB6_
FNDA:0,_RINvXsq_Cs3o9EQk8eroe_14common_structsNtB6_14ExchangeSourceNtNtNtNtNtCslPMlHj3qn2H_13multiversx_sc5types7managed7wrapped16managed_vec_item14ManagedVecItem16into_byte_writerppEB6_
FNDA:0,_RINvXsr_Cs3o9EQk8eroe_14common_structsNtB6_14ExchangeSourceNtNtNtCs5SUGlJDgeoS_19multiversx_sc_codec6single9nested_en12NestedEncode24dep_encode_or_handle_errppEB6_
FNDA:0,_RINvXss_Cs3o9EQk8eroe_14common_structsNtB6_14ExchangeSourceNtNtNtCs5SUGlJDgeoS_19multiversx_sc_codec6single9nested_de12NestedDecode24dep_decode_or_handle_errppEB6_
FNDA:0,_RINvXst_Cs3o9EQk8eroe_14common_structsNtB6_14ExchangeSourceNtNtNtCs5SUGlJDgeoS_19multiversx_sc_codec6single6top_en9TopEncode24top_encode_or_handle_errppEB6_
FNDA:0,_RINvXsu_Cs3o9EQk8eroe_14common_structsNtB6_14ExchangeSourceNtNtNtCs5SUGlJDgeoS_19multiversx_sc_codec6single6top_de9TopDecode24top_decode_or_handle_errppEB6_
FNDA:0,_RNvXsp_Cs3o9EQk8eroe_14common_structsNtB5_14ExchangeSourceNtNtNtCslPMlHj3qn2H_13multiversx_sc3abi8type_abi7TypeAbi9type_name
FNDA:0,_RINvXsp_Cs3o9EQk8eroe_14common_structsNtB6_14ExchangeSourceNtNtNtCslPMlHj3qn2H_13multiversx_sc3abi8type_abi7TypeAbi25provide_type_descriptionspEB6_
FNDA:0,_RINvXINICs3o9EQk8eroe_14common_structssi_0pEINtB6_14OracleProviderpENtNtNtNtNtCslPMlHj3qn2H_13multiversx_sc5types7managed7wrapped16managed_vec_item14ManagedVecItem16from_byte_readerpEB6_
FNDA:0,_RNCINvXINICs3o9EQk8eroe_14common_structssi_0pEINtB8_14OracleProviderpENtNtNtNtNtCslPMlHj3qn2H_13multiversx_sc5types7managed7wrapped16managed_vec_item14ManagedVecItem16from_byte_readerpE0B8_
FNDA:0,_RNCINvXINICs3o9EQk8eroe_14common_structssi_0pEINtB8_14OracleProviderpENtNtNtNtNtCslPMlHj3qn2H_13multiversx_sc5types7managed7wrapped16managed_vec_item14ManagedVecItem16from_byte_readerpEs_0B8_
FNDA:0,_RNCINvXINICs3o9EQk8eroe_14common_structssi_0pEINtB8_14OracleProviderpENtNtNtNtNtCslPMlHj3qn2H_13multiversx_sc5types7managed7wrapped16managed_vec_item14ManagedVecItem16from_byte_readerpEs0_0B8_
FNDA:0,_RNCINvXINICs3o9EQk8eroe_14common_structssi_0pEINtB8_14OracleProviderpENtNtNtNtNtCslPMlHj3qn2H_13multiversx_sc5types7managed7wrapped16managed_vec_item14ManagedVecItem16from_byte_readerpEs1_0B8_
FNDA:0,_RNCINvXINICs3o9EQk8eroe_14common_structssi_0pEINtB8_14OracleProviderpENtNtNtNtNtCslPMlHj3qn2H_13multiversx_sc5types7managed7wrapped16managed_vec_item14ManagedVecItem16from_byte_readerpEs2_0B8_
FNDA:0,_RNCINvXINICs3o9EQk8eroe_14common_structssi_0pEINtB8_14OracleProviderpENtNtNtNtNtCslPMlHj3qn2H_13multiversx_sc5types7managed7wrapped16managed_vec_item14ManagedVecItem16from_byte_readerpEs3_0B8_
FNDA:0,_RNCINvXINICs3o9EQk8eroe_14common_structssi_0pEINtB8_14OracleProviderpENtNtNtNtNtCslPMlHj3qn2H_13multiversx_sc5types7managed7wrapped16managed_vec_item14ManagedVecItem16from_byte_readerpEs4_0B8_
FNDA:0,_RNCINvXINICs3o9EQk8eroe_14common_structssi_0pEINtB8_14OracleProviderpENtNtNtNtNtCslPMlHj3qn2H_13multiversx_sc5types7managed7wrapped16managed_vec_item14ManagedVecItem16from_byte_readerpEs5_0B8_
FNDA:0,_RINvXINICs3o9EQk8eroe_14common_structssi_0pEINtB6_14OracleProviderpENtNtNtNtNtCslPMlHj3qn2H_13multiversx_sc5types7managed7wrapped16managed_vec_item14ManagedVecItem26from_byte_reader_as_borrowpEB6_
FNDA:0,_RINvXINICs3o9EQk8eroe_14common_structssi_0pEINtB6_14OracleProviderpENtNtNtNtNtCslPMlHj3qn2H_13multiversx_sc5types7managed7wrapped16managed_vec_item14ManagedVecItem16into_byte_writerppEB6_
FNDA:0,_RNCINvXINICs3o9EQk8eroe_14common_structssi_0pEINtB8_14OracleProviderpENtNtNtNtNtCslPMlHj3qn2H_13multiversx_sc5types7managed7wrapped16managed_vec_item14ManagedVecItem16into_byte_writerppE0B8_
FNDA:0,_RNCINvXINICs3o9EQk8eroe_14common_structssi_0pEINtB8_14OracleProviderpENtNtNtNtNtCslPMlHj3qn2H_13multiversx_sc5types7managed7wrapped16managed_vec_item14ManagedVecItem16into_byte_writerppEs_0B8_
FNDA:0,_RNCINvXINICs3o9EQk8eroe_14common_structssi_0pEINtB8_14OracleProviderpENtNtNtNtNtCslPMlHj3qn2H_13multiversx_sc5types7managed7wrapped16managed_vec_item14ManagedVecItem16into_byte_writerppEs0_0B8_
FNDA:0,_RNCINvXINICs3o9EQk8eroe_14common_structssi_0pEINtB8_14OracleProviderpENtNtNtNtNtCslPMlHj3qn2H_13multiversx_sc5types7managed7wrapped16managed_vec_item14ManagedVecItem16into_byte_writerppEs1_0B8_
FNDA:0,_RNCINvXINICs3o9EQk8eroe_14common_structssi_0pEINtB8_14OracleProviderpENtNtNtNtNtCslPMlHj3qn2H_13multiversx_sc5types7managed7wrapped16managed_vec_item14ManagedVecItem16into_byte_writerppEs2_0B8_
FNDA:0,_RNCINvXINICs3o9EQk8eroe_14common_structssi_0pEINtB8_14OracleProviderpENtNtNtNtNtCslPMlHj3qn2H_13multiversx_sc5types7managed7wrapped16managed_vec_item14ManagedVecItem16into_byte_writerppEs3_0B8_
FNDA:0,_RNCINvXINICs3o9EQk8eroe_14common_structssi_0pEINtB8_14OracleProviderpENtNtNtNtNtCslPMlHj3qn2H_13multiversx_sc5types7managed7wrapped16managed_vec_item14ManagedVecItem16into_byte_writerppEs4_0B8_
FNDA:0,_RNCINvXINICs3o9EQk8eroe_14common_structssi_0pEINtB8_14OracleProviderpENtNtNtNtNtCslPMlHj3qn2H_13multiversx_sc5types7managed7wrapped16managed_vec_item14ManagedVecItem16into_byte_writerppEs5_0B8_
FNDA:0,_RINvXINICs3o9EQk8eroe_14common_structssj_0pEINtB6_14OracleProviderpENtNtNtCs5SUGlJDgeoS_19multiversx_sc_codec6single6top_en9TopEncode24top_encode_or_handle_errppEB6_
FNDA:0,_RINvXINICs3o9EQk8eroe_14common_structssk_0pEINtB6_14OracleProviderpENtNtNtCs5SUGlJDgeoS_19multiversx_sc_codec6single6top_de9TopDecode24top_decode_or_handle_errppEB6_
FNDA:0,_RINvXINICs3o9EQk8eroe_14common_structssl_0pEINtB6_14OracleProviderpENtNtNtCs5SUGlJDgeoS_19multiversx_sc_codec6single9nested_en12NestedEncode24dep_encode_or_handle_errppEB6_
FNDA:0,_RINvXINICs3o9EQk8eroe_14common_structssm_0pEINtB6_14OracleProviderpENtNtNtCs5SUGlJDgeoS_19multiversx_sc_codec6single9nested_de12NestedDecode24dep_decode_or_handle_errppEB6_
FNDA:0,_RNvXINICs3o9EQk8eroe_14common_structssh_0pEINtB5_14OracleProviderpENtNtNtCslPMlHj3qn2H_13multiversx_sc3abi8type_abi7TypeAbi9type_nameB5_
FNDA:0,_RINvXINICs3o9EQk8eroe_14common_structssh_0pEINtB6_14OracleProviderpENtNtNtCslPMlHj3qn2H_13multiversx_sc3abi8type_abi7TypeAbi25provide_type_descriptionspEB6_
FNDA:0,_RINvXINICs3o9EQk8eroe_14common_structssa_0pEINtB6_14PriceFeedShortpENtNtNtCs5SUGlJDgeoS_19multiversx_sc_codec6single9nested_en12NestedEncode24dep_encode_or_handle_errppEB6_
FNDA:0,_RINvXINICs3o9EQk8eroe_14common_structssb_0pEINtB6_14PriceFeedShortpENtNtNtCs5SUGlJDgeoS_19multiversx_sc_codec6single9nested_de12NestedDecode24dep_decode_or_handle_errppEB6_
FNDA:0,_RINvXINICs3o9EQk8eroe_14common_structssc_0pEINtB6_14PriceFeedShortpENtNtNtCs5SUGlJDgeoS_19multiversx_sc_codec6single6top_en9TopEncode24top_encode_or_handle_errppEB6_
FNDA:0,_RINvXINICs3o9EQk8eroe_14common_structssd_0pEINtB6_14PriceFeedShortpENtNtNtCs5SUGlJDgeoS_19multiversx_sc_codec6single6top_de9TopDecode24top_decode_or_handle_errppEB6_
FNDA:0,_RNvXINICs3o9EQk8eroe_14common_structss9_0pEINtB5_14PriceFeedShortpENtNtNtCslPMlHj3qn2H_13multiversx_sc3abi8type_abi7TypeAbi9type_nameB5_
FNDA:0,_RINvXINICs3o9EQk8eroe_14common_structss9_0pEINtB6_14PriceFeedShortpENtNtNtCslPMlHj3qn2H_13multiversx_sc3abi8type_abi7TypeAbi25provide_type_descriptionspEB6_
FNDA:0,_RINvXINICs3o9EQk8eroe_14common_structss2_0pEINtB6_22OraclePriceFluctuationpENtNtNtNtNtCslPMlHj3qn2H_13multiversx_sc5types7managed7wrapped16managed_vec_item14ManagedVecItem16from_byte_readerpEB6_
FNDA:0,_RNCINvXINICs3o9EQk8eroe_14common_structss2_0pEINtB8_22OraclePriceFluctuationpENtNtNtNtNtCslPMlHj3qn2H_13multiversx_sc5types7managed7wrapped16managed_vec_item14ManagedVecItem16from_byte_readerpE0B8_
FNDA:0,_RNCINvXINICs3o9EQk8eroe_14common_structss2_0pEINtB8_22OraclePriceFluctuationpENtNtNtNtNtCslPMlHj3qn2H_13multiversx_sc5types7managed7wrapped16managed_vec_item14ManagedVecItem16from_byte_readerpEs_0B8_
FNDA:0,_RNCINvXINICs3o9EQk8eroe_14common_structss2_0pEINtB8_22OraclePriceFluctuationpENtNtNtNtNtCslPMlHj3qn2H_13multiversx_sc5types7managed7wrapped16managed_vec_item14ManagedVecItem16from_byte_readerpEs0_0B8_
FNDA:0,_RNCINvXINICs3o9EQk8eroe_14common_structss2_0pEINtB8_22OraclePriceFluctuationpENtNtNtNtNtCslPMlHj3qn2H_13multiversx_sc5types7managed7wrapped16managed_vec_item14ManagedVecItem16from_byte_readerpEs1_0B8_
FNDA:0,_RINvXINICs3o9EQk8eroe_14common_structss2_0pEINtB6_22OraclePriceFluctuationpENtNtNtNtNtCslPMlHj3qn2H_13multiversx_sc5types7managed7wrapped16managed_vec_item14ManagedVecItem26from_byte_reader_as_borrowpEB6_
FNDA:0,_RINvXINICs3o9EQk8eroe_14common_structss2_0pEINtB6_22OraclePriceFluctuationpENtNtNtNtNtCslPMlHj3qn2H_13multiversx_sc5types7managed7wrapped16managed_vec_item14ManagedVecItem16into_byte_writerppEB6_
FNDA:0,_RNCINvXINICs3o9EQk8eroe_14common_structss2_0pEINtB8_22OraclePriceFluctuationpENtNtNtNtNtCslPMlHj3qn2H_13multiversx_sc5types7managed7wrapped16managed_vec_item14ManagedVecItem16into_byte_writerppE0B8_
FNDA:0,_RNCINvXINICs3o9EQk8eroe_14common_structss2_0pEINtB8_22OraclePriceFluctuationpENtNtNtNtNtCslPMlHj3qn2H_13multiversx_sc5types7managed7wrapped16managed_vec_item14ManagedVecItem16into_byte_writerppEs_0B8_
FNDA:0,_RNCINvXINICs3o9EQk8eroe_14common_structss2_0pEINtB8_22OraclePriceFluctuationpENtNtNtNtNtCslPMlHj3qn2H_13multiversx_sc5types7managed7wrapped16managed_vec_item14ManagedVecItem16into_byte_writerppEs0_0B8_
FNDA:0,_RNCINvXINICs3o9EQk8eroe_14common_structss2_0pEINtB8_22OraclePriceFluctuationpENtNtNtNtNtCslPMlHj3qn2H_13multiversx_sc5types7managed7wrapped16managed_vec_item14ManagedVecItem16into_byte_writerppEs1_0B8_
FNDA:0,_RINvXINICs3o9EQk8eroe_14common_structss3_0pEINtB6_22OraclePriceFluctuationpENtNtNtCs5SUGlJDgeoS_19multiversx_sc_codec6single6top_en9TopEncode24top_encode_or_handle_errppEB6_
FNDA:0,_RINvXINICs3o9EQk8eroe_14common_structss4_0pEINtB6_22OraclePriceFluctuationpENtNtNtCs5SUGlJDgeoS_19multiversx_sc_codec6single6top_de9TopDecode24top_decode_or_handle_errppEB6_
FNDA:0,_RINvXINICs3o9EQk8eroe_14common_structss5_0pEINtB6_22OraclePriceFluctuationpENtNtNtCs5SUGlJDgeoS_19multiversx_sc_codec6single9nested_en12NestedEncode24dep_encode_or_handle_errppEB6_
FNDA:0,_RINvXINICs3o9EQk8eroe_14common_structss6_0pEINtB6_22OraclePriceFluctuationpENtNtNtCs5SUGlJDgeoS_19multiversx_sc_codec6single9nested_de12NestedDecode24dep_decode_or_handle_errppEB6_
FNDA:0,_RNvXINICs3o9EQk8eroe_14common_structss1_0pEINtB5_22OraclePriceFluctuationpENtNtNtCslPMlHj3qn2H_13multiversx_sc3abi8type_abi7TypeAbi9type_nameB5_
FNDA:0,_RINvXINICs3o9EQk8eroe_14common_structss1_0pEINtB6_22OraclePriceFluctuationpENtNtNtCslPMlHj3qn2H_13multiversx_sc3abi8type_abi7TypeAbi25provide_type_descriptionspEB6_
FNDA:174,_RINvXs10_Cs2eHPTk3TAlu_14common_structsINtB7_25EgldOrEsdtTokenPaymentNewINtNtNtNtCs1rODQd5oASQ_22multiversx_sc_scenario3api7impl_vh12vm_hooks_api10VMHooksApiNtNtB1d_9debug_api15DebugApiBackendEENtNtNtNtNtCslPMlHj3qn2H_13multiversx_sc5types7managed7wrapped16managed_vec_item14ManagedVecItem16from_byte_readerNCNvMs2_NtB3a_11managed_vecINtB53_10ManagedVecB18_BB_E7try_get0ECs8iyf5MSkCde_5tests
FNDA:167,_RINvXs10_Cs2eHPTk3TAlu_14common_structsINtB7_25EgldOrEsdtTokenPaymentNewINtNtNtNtCs1rODQd5oASQ_22multiversx_sc_scenario3api7impl_vh12vm_hooks_api10VMHooksApiNtNtB1d_9debug_api15DebugApiBackendEENtNtNtNtNtCslPMlHj3qn2H_13multiversx_sc5types7managed7wrapped16managed_vec_item14ManagedVecItem16from_byte_readerNCNvXs0_NtB3a_22managed_vec_owned_iterINtB53_23ManagedVecOwnedIteratorB18_BB_ENtNtNtNtCslGS7pEIChKc_4core4iter6traits8iterator8Iterator4next0ECs8iyf5MSkCde_5tests
FNDA:180,_RINvXs10_Cs2eHPTk3TAlu_14common_structsINtB7_25EgldOrEsdtTokenPaymentNewINtNtNtNtCs1rODQd5oASQ_22multiversx_sc_scenario3api7impl_vh12vm_hooks_api10VMHooksApiNtNtB1d_9debug_api15DebugApiBackendEENtNtNtNtNtCslPMlHj3qn2H_13multiversx_sc5types7managed7wrapped16managed_vec_item14ManagedVecItem16into_byte_writeruNCNvMs2_NtB3a_11managed_vecINtB54_10ManagedVecB18_BB_E4push0ECs8iyf5MSkCde_5tests
FNDA:174,_RINvXs10_Cs2eHPTk3TAlu_14common_structsINtB7_25EgldOrEsdtTokenPaymentNewINtNtNtNtCs1rODQd5oASQ_22multiversx_sc_scenario3api7impl_vh12vm_hooks_api10VMHooksApiNtNtB1d_9debug_api15DebugApiBackendEENtNtNtNtNtCslPMlHj3qn2H_13multiversx_sc5types7managed7wrapped16managed_vec_item14ManagedVecItem26from_byte_reader_as_borrowNCNvMs2_NtB3a_11managed_vecINtB5d_10ManagedVecB18_BB_E7try_get0ECs8iyf5MSkCde_5tests
FNDA:0,_RINvXs1B_Cs2eHPTk3TAlu_14common_structsINtB7_23AssetExtendedConfigViewINtNtNtNtCs1rODQd5oASQ_22multiversx_sc_scenario3api7impl_vh12vm_hooks_api10VMHooksApiNtNtB1b_9debug_api15DebugApiBackendEENtNtNtNtNtCslPMlHj3qn2H_13multiversx_sc5types7managed7wrapped16managed_vec_item14ManagedVecItem16from_byte_readerNCNvXs0_NtB38_22managed_vec_owned_iterINtB51_23ManagedVecOwnedIteratorB16_BB_ENtNtNtNtCslGS7pEIChKc_4core4iter6traits8iterator8Iterator4next0ECs8iyf5MSkCde_5tests
FNDA:0,_RINvXs1B_Cs2eHPTk3TAlu_14common_structsINtB7_23AssetExtendedConfigViewINtNtNtNtCs1rODQd5oASQ_22multiversx_sc_scenario3api7impl_vh12vm_hooks_api10VMHooksApiNtNtB1b_9debug_api15DebugApiBackendEENtNtNtNtNtCslPMlHj3qn2H_13multiversx_sc5types7managed7wrapped16managed_vec_item14ManagedVecItem16into_byte_writeruNCNvMs2_NtB38_11managed_vecINtB52_10ManagedVecB16_BB_E4push0ECs8iyf5MSkCde_5tests
FNDA:0,_RINvXs1E_Cs2eHPTk3TAlu_14common_structsINtB7_23AssetExtendedConfigViewINtNtNtNtCs1rODQd5oASQ_22multiversx_sc_scenario3api7impl_vh12vm_hooks_api10VMHooksApiNtNtB1b_9debug_api15DebugApiBackendEENtNtNtCs5SUGlJDgeoS_19multiversx_sc_codec6single9nested_en12NestedEncode24dep_encode_or_handle_errINtNtNtNtNtNtCslPMlHj3qn2H_13multiversx_sc5types7managed7wrapped7builder22managed_buffer_builder20ManagedBufferBuilderB16_EINtNtNtNtB4R_13contract_base8wrappers10serializer21ExitCodecErrorHandlerB16_EECs8iyf5MSkCde_5tests
FNDA:0,_RINvXs1J_Cs2eHPTk3TAlu_14common_structsINtB7_11AssetConfigINtNtNtNtCs1rODQd5oASQ_22multiversx_sc_scenario3api7impl_vh12vm_hooks_api10VMHooksApiNtNtBZ_9debug_api15DebugApiBackendEENtNtNtNtNtCslPMlHj3qn2H_13multiversx_sc5types7managed7wrapped16managed_vec_item14ManagedVecItem16from_byte_readerNCINvXs1B_B7_INtB7_23AssetExtendedConfigViewBU_EB2R_16from_byte_readerNCNvXs0_NtB2V_22managed_vec_owned_iterINtB5W_23ManagedVecOwnedIteratorBU_B4T_ENtNtNtNtCslGS7pEIChKc_4core4iter6traits8iterator8Iterator4next0E0ECs8iyf5MSkCde_5tests
FNDA:0,_RINvXs1J_Cs2eHPTk3TAlu_14common_structsINtB7_11AssetConfigINtNtNtNtCs1rODQd5oASQ_22multiversx_sc_scenario3api7impl_vh12vm_hooks_api10VMHooksApiNtNtBZ_9debug_api15DebugApiBackendEENtNtNtNtNtCslPMlHj3qn2H_13multiversx_sc5types7managed7wrapped16managed_vec_item14ManagedVecItem16into_byte_writeruNCINvXs1B_B7_INtB7_23AssetExtendedConfigViewBU_EB2R_16into_byte_writeruNCNvMs2_NtB2V_11managed_vecINtB5Y_10ManagedVecBU_B4U_E4push0E0ECs8iyf5MSkCde_5tests
FNDA:0,_RINvXs1K_Cs2eHPTk3TAlu_14common_structsINtB7_11AssetConfigINtNtNtNtCs1rODQd5oASQ_22multiversx_sc_scenario3api7impl_vh12vm_hooks_api10VMHooksApiNtNtBZ_9debug_api15DebugApiBackendEENtNtNtCs5SUGlJDgeoS_19multiversx_sc_codec6single6top_en9TopEncode24top_encode_or_handle_errINtNtNtCslPMlHj3qn2H_13multiversx_sc2io6finish16ApiOutputAdapterBU_EINtNtNtNtB4r_13contract_base8wrappers10serializer21ExitCodecErrorHandlerBU_EECs8iyf5MSkCde_5tests
FNDA:658,_RINvXs1K_Cs2eHPTk3TAlu_14common_structsINtB7_11AssetConfigINtNtNtNtCs1rODQd5oASQ_22multiversx_sc_scenario3api7impl_vh12vm_hooks_api10VMHooksApiNtNtBZ_9debug_api15DebugApiBackendEENtNtNtCs5SUGlJDgeoS_19multiversx_sc_codec6single6top_en9TopEncode24top_encode_or_handle_errINtNtNtCslPMlHj3qn2H_13multiversx_sc7storage11storage_set16StorageSetOutputBU_EINtNtNtNtB4r_13contract_base8wrappers10serializer21ExitCodecErrorHandlerBU_EECs8iyf5MSkCde_5tests
FNDA:658,_RINvXs1K_Cs2eHPTk3TAlu_14common_structsINtB7_11AssetConfigINtNtNtNtCs1rODQd5oASQ_22multiversx_sc_scenario3api7impl_vh12vm_hooks_api10VMHooksApiNtNtBZ_9debug_api15DebugApiBackendEENtNtNtCs5SUGlJDgeoS_19multiversx_sc_codec6single6top_en9TopEncode24top_encode_or_handle_errQINtNtNtNtNtCslPMlHj3qn2H_13multiversx_sc5types7managed5basic14managed_buffer13ManagedBufferBU_EINtNtNtNtB4w_13contract_base8wrappers10serializer21ExitCodecErrorHandlerBU_EECs8iyf5MSkCde_5tests
FNDA:347,_RINvXs1L_Cs2eHPTk3TAlu_14common_structsINtB7_11AssetConfigINtNtNtNtCs1rODQd5oASQ_22multiversx_sc_scenario3api7impl_vh12vm_hooks_api10VMHooksApiNtNtBZ_9debug_api15DebugApiBackendEENtNtNtCs5SUGlJDgeoS_19multiversx_sc_codec6single6top_de9TopDecode24top_decode_or_handle_errINtNtNtCslPMlHj3qn2H_13multiversx_sc7storage11storage_get15StorageGetInputBU_EINtB4n_22StorageGetErrorHandlerBU_EECs8iyf5MSkCde_5tests
FNDA:0,_RINvXs1M_Cs2eHPTk3TAlu_14common_structsINtB7_11AssetConfigINtNtNtNtCs1rODQd5oASQ_22multiversx_sc_scenario3api7impl_vh12vm_hooks_api10VMHooksApiNtNtBZ_9debug_api15DebugApiBackendEENtNtNtCs5SUGlJDgeoS_19multiversx_sc_codec6single9nested_en12NestedEncode24dep_encode_or_handle_errINtNtNtNtNtNtCslPMlHj3qn2H_13multiversx_sc5types7managed7wrapped7builder22managed_buffer_builder20ManagedBufferBuilderBU_EINtNtNtNtB4E_13contract_base8wrappers10serializer21ExitCodecErrorHandlerBU_EECs8iyf5MSkCde_5tests
FNDA:10,_RINvXs1S_Cs2eHPTk3TAlu_14common_structsINtB7_15AccountPositionINtNtNtNtCs1rODQd5oASQ_22multiversx_sc_scenario3api7impl_vh12vm_hooks_api10VMHooksApiNtNtB13_9debug_api15DebugApiBackendEENtNtNtNtNtCslPMlHj3qn2H_13multiversx_sc5types7managed7wrapped16managed_vec_item14ManagedVecItem16from_byte_readerNCNvMs2_NtB30_11managed_vecINtB4T_10ManagedVecBY_BB_E7try_get0ECs8iyf5MSkCde_5tests
FNDA:80,_RINvXs1S_Cs2eHPTk3TAlu_14common_structsINtB7_15AccountPositionINtNtNtNtCs1rODQd5oASQ_22multiversx_sc_scenario3api7impl_vh12vm_hooks_api10VMHooksApiNtNtB13_9debug_api15DebugApiBackendEENtNtNtNtNtCslPMlHj3qn2H_13multiversx_sc5types7managed7wrapped16managed_vec_item14ManagedVecItem16from_byte_readerNCNvXs0_NtB30_22managed_vec_owned_iterINtB4T_23ManagedVecOwnedIteratorBY_BB_ENtNtNtNtCslGS7pEIChKc_4core4iter6traits8iterator8Iterator4next0ECs8iyf5MSkCde_5tests
FNDA:0,_RINvXs1S_Cs2eHPTk3TAlu_14common_structsINtB7_15AccountPositionINtNtNtNtCs1rODQd5oASQ_22multiversx_sc_scenario3api7impl_vh12vm_hooks_api10VMHooksApiNtNtB13_9debug_api15DebugApiBackendEENtNtNtNtNtCslPMlHj3qn2H_13multiversx_sc5types7managed7wrapped16managed_vec_item14ManagedVecItem16into_byte_writerINtNtCslGS7pEIChKc_4core6result6ResultuNtNtNtNtB36_3api13managed_types18managed_buffer_api17InvalidSliceErrorENCNvMs2_NtB30_11managed_vecINtB6F_10ManagedVecBY_BB_E3set0ECs8iyf5MSkCde_5tests
FNDA:840,_RINvXs1S_Cs2eHPTk3TAlu_14common_structsINtB7_15AccountPositionINtNtNtNtCs1rODQd5oASQ_22multiversx_sc_scenario3api7impl_vh12vm_hooks_api10VMHooksApiNtNtB13_9debug_api15DebugApiBackendEENtNtNtNtNtCslPMlHj3qn2H_13multiversx_sc5types7managed7wrapped16managed_vec_item14ManagedVecItem16into_byte_writeruNCNvMs2_NtB30_11managed_vecINtB4U_10ManagedVecBY_BB_E4push0ECs8iyf5MSkCde_5tests
FNDA:10,_RINvXs1S_Cs2eHPTk3TAlu_14common_structsINtB7_15AccountPositionINtNtNtNtCs1rODQd5oASQ_22multiversx_sc_scenario3api7impl_vh12vm_hooks_api10VMHooksApiNtNtB13_9debug_api15DebugApiBackendEENtNtNtNtNtCslPMlHj3qn2H_13multiversx_sc5types7managed7wrapped16managed_vec_item14ManagedVecItem26from_byte_reader_as_borrowNCNvMs2_NtB30_11managed_vecINtB53_10ManagedVecBY_BB_E7try_get0ECs8iyf5MSkCde_5tests
FNDA:4,_RINvXs1T_Cs2eHPTk3TAlu_14common_structsINtB7_15AccountPositionINtNtNtNtCs1rODQd5oASQ_22multiversx_sc_scenario3api7impl_vh12vm_hooks_api10VMHooksApiNtNtB13_9debug_api15DebugApiBackendEENtNtNtCs5SUGlJDgeoS_19multiversx_sc_codec6single9nested_en12NestedEncode24dep_encode_or_handle_errINtNtNtNtNtNtCslPMlHj3qn2H_13multiversx_sc5types7managed7wrapped7builder22managed_buffer_builder20ManagedBufferBuilderBY_EINtNtNtNtB4J_13contract_base8wrappers10serializer21ExitCodecErrorHandlerBY_EECs8iyf5MSkCde_5tests
FNDA:941,_RINvXs1V_Cs2eHPTk3TAlu_14common_structsINtB7_15AccountPositionINtNtNtNtCs1rODQd5oASQ_22multiversx_sc_scenario3api7impl_vh12vm_hooks_api10VMHooksApiNtNtB13_9debug_api15DebugApiBackendEENtNtNtCs5SUGlJDgeoS_19multiversx_sc_codec6single6top_en9TopEncode24top_encode_or_handle_errINtNtNtCslPMlHj3qn2H_13multiversx_sc2io6finish16ApiOutputAdapterBY_EINtNtNtNtB4w_13contract_base8wrappers10serializer21ExitCodecErrorHandlerBY_EECs8iyf5MSkCde_5tests
FNDA:941,_RINvXs1V_Cs2eHPTk3TAlu_14common_structsINtB7_15AccountPositionINtNtNtNtCs1rODQd5oASQ_22multiversx_sc_scenario3api7impl_vh12vm_hooks_api10VMHooksApiNtNtB13_9debug_api15DebugApiBackendEENtNtNtCs5SUGlJDgeoS_19multiversx_sc_codec6single6top_en9TopEncode24top_encode_or_handle_errINtNtNtCslPMlHj3qn2H_13multiversx_sc7storage11storage_set16StorageSetOutputBY_EINtNtNtNtB4w_13contract_base8wrappers10serializer21ExitCodecErrorHandlerBY_EECs8iyf5MSkCde_5tests
FNDA:1834,_RINvXs1V_Cs2eHPTk3TAlu_14common_structsINtB7_15AccountPositionINtNtNtNtCs1rODQd5oASQ_22multiversx_sc_scenario3api7impl_vh12vm_hooks_api10VMHooksApiNtNtB13_9debug_api15DebugApiBackendEENtNtNtCs5SUGlJDgeoS_19multiversx_sc_codec6single6top_en9TopEncode24top_encode_or_handle_errQINtNtNtNtNtCslPMlHj3qn2H_13multiversx_sc5types7managed5basic14managed_buffer13ManagedBufferBY_EINtNtNtNtB4B_13contract_base8wrappers10serializer21ExitCodecErrorHandlerBY_EECs8iyf5MSkCde_5tests
FNDA:941,_RINvXs1W_Cs2eHPTk3TAlu_14common_structsINtB7_15AccountPositionINtNtNtNtCs1rODQd5oASQ_22multiversx_sc_scenario3api7impl_vh12vm_hooks_api10VMHooksApiNtNtB13_9debug_api15DebugApiBackendEENtNtNtCs5SUGlJDgeoS_19multiversx_sc_codec6single6top_de9TopDecode24top_decode_or_handle_errINtNtNtCslPMlHj3qn2H_13multiversx_sc2io12arg_de_input14ArgDecodeInputBY_EINtNtB4u_17arg_error_handler15ArgErrorHandlerBY_EECs8iyf5MSkCde_5tests
FNDA:1759,_RINvXs1W_Cs2eHPTk3TAlu_14common_structsINtB7_15AccountPositionINtNtNtNtCs1rODQd5oASQ_22multiversx_sc_scenario3api7impl_vh12vm_hooks_api10VMHooksApiNtNtB13_9debug_api15DebugApiBackendEENtNtNtCs5SUGlJDgeoS_19multiversx_sc_codec6single6top_de9TopDecode24top_decode_or_handle_errINtNtNtCslPMlHj3qn2H_13multiversx_sc7storage11storage_get15StorageGetInputBY_EINtB4s_22StorageGetErrorHandlerBY_EECs8iyf5MSkCde_5tests
FNDA:941,_RINvXs1W_Cs2eHPTk3TAlu_14common_structsINtB7_15AccountPositionINtNtNtNtCs1rODQd5oASQ_22multiversx_sc_scenario3api7impl_vh12vm_hooks_api10VMHooksApiNtNtB13_9debug_api15DebugApiBackendEENtNtNtCs5SUGlJDgeoS_19multiversx_sc_codec6single6top_de9TopDecode24top_decode_or_handle_errINtNtNtNtNtCslPMlHj3qn2H_13multiversx_sc5types7managed5basic14managed_buffer13ManagedBufferBY_EINtNtNtB4A_2io17arg_error_handler15ArgErrorHandlerBY_EECs8iyf5MSkCde_5tests
FNDA:0,_RINvXs1f_Cs2eHPTk3TAlu_14common_structsNtB7_20NftAccountAttributesNtNtNtCs5SUGlJDgeoS_19multiversx_sc_codec6single6top_en9TopEncode24top_encode_or_handle_errINtNtNtCslPMlHj3qn2H_13multiversx_sc2io6finish16ApiOutputAdapterINtNtNtNtCs1rODQd5oASQ_22multiversx_sc_scenario3api7impl_vh12vm_hooks_api10VMHooksApiNtNtB3C_9debug_api15DebugApiBackendEEINtNtNtNtB2C_13contract_base8wrappers10serializer21ExitCodecErrorHandlerB3x_EECs8iyf5MSkCde_5tests
FNDA:80,_RINvXs1f_Cs2eHPTk3TAlu_14common_structsNtB7_20NftAccountAttributesNtNtNtCs5SUGlJDgeoS_19multiversx_sc_codec6single6top_en9TopEncode24top_encode_or_handle_errINtNtNtCslPMlHj3qn2H_13multiversx_sc7storage11storage_set16StorageSetOutputINtNtNtNtCs1rODQd5oASQ_22multiversx_sc_scenario3api7impl_vh12vm_hooks_api10VMHooksApiNtNtB3N_9debug_api15DebugApiBackendEEINtNtNtNtB2C_13contract_base8wrappers10serializer21ExitCodecErrorHandlerB3I_EECs8iyf5MSkCde_5tests
FNDA:2,_RINvXs1f_Cs2eHPTk3TAlu_14common_structsNtB7_20NftAccountAttributesNtNtNtCs5SUGlJDgeoS_19multiversx_sc_codec6single6top_en9TopEncode24top_encode_or_handle_errQINtNtCshTKFwE22Rw2_5alloc3vec3VechENtNtB18_17codec_err_handler19DefaultErrorHandlerECs8iyf5MSkCde_5tests
FNDA:213,_RINvXs1f_Cs2eHPTk3TAlu_14common_structsNtB7_20NftAccountAttributesNtNtNtCs5SUGlJDgeoS_19multiversx_sc_codec6single6top_en9TopEncode24top_encode_or_handle_errQINtNtNtNtNtCslPMlHj3qn2H_13multiversx_sc5types7managed5basic14managed_buffer13ManagedBufferINtNtNtNtCs1rODQd5oASQ_22multiversx_sc_scenario3api7impl_vh12vm_hooks_api10VMHooksApiNtNtB44_9debug_api15DebugApiBackendEEINtNtNtNtB2H_13contract_base8wrappers10serializer21ExitCodecErrorHandlerB3Z_EECs8iyf5MSkCde_5tests
FNDA:11,_RINvXs1g_Cs2eHPTk3TAlu_14common_structsNtB7_20NftAccountAttributesNtNtNtCs5SUGlJDgeoS_19multiversx_sc_codec6single6top_de9TopDecode24top_decode_or_handle_errINtNtNtCslPMlHj3qn2H_13multiversx_sc7storage11storage_get15StorageGetInputINtNtNtNtCs1rODQd5oASQ_22multiversx_sc_scenario3api7impl_vh12vm_hooks_api10VMHooksApiNtNtB3M_9debug_api15DebugApiBackendEEINtB2y_22StorageGetErrorHandlerB3H_EECs8iyf5MSkCde_5tests
FNDA:64,_RINvXs1g_Cs2eHPTk3TAlu_14common_structsNtB7_20NftAccountAttributesNtNtNtCs5SUGlJDgeoS_19multiversx_sc_codec6single6top_de9TopDecode24top_decode_or_handle_errINtNtNtNtNtCslPMlHj3qn2H_13multiversx_sc5types7managed5basic14managed_buffer13ManagedBufferINtNtNtNtCs1rODQd5oASQ_22multiversx_sc_scenario3api7impl_vh12vm_hooks_api10VMHooksApiNtNtB43_9debug_api15DebugApiBackendEEINtNtNtNtB2G_13contract_base8wrappers10serializer21ExitCodecErrorHandlerB3Y_EECs8iyf5MSkCde_5tests
FNDA:0,_RINvXs1m_Cs2eHPTk3TAlu_14common_structsNtB7_16EModeAssetConfigNtNtNtCs5SUGlJDgeoS_19multiversx_sc_codec6single6top_en9TopEncode24top_encode_or_handle_errINtNtNtCslPMlHj3qn2H_13multiversx_sc2io6finish16ApiOutputAdapterINtNtNtNtCs1rODQd5oASQ_22multiversx_sc_scenario3api7impl_vh12vm_hooks_api10VMHooksApiNtNtB3y_9debug_api15DebugApiBackendEEINtNtNtNtB2y_13contract_base8wrappers10serializer21ExitCodecErrorHandlerB3t_EECs8iyf5MSkCde_5tests
FNDA:188,_RINvXs1m_Cs2eHPTk3TAlu_14common_structsNtB7_16EModeAssetConfigNtNtNtCs5SUGlJDgeoS_19multiversx_sc_codec6single6top_en9TopEncode24top_encode_or_handle_errINtNtNtCslPMlHj3qn2H_13multiversx_sc7storage11storage_set16StorageSetOutputINtNtNtNtCs1rODQd5oASQ_22multiversx_sc_scenario3api7impl_vh12vm_hooks_api10VMHooksApiNtNtB3J_9debug_api15DebugApiBackendEEINtNtNtNtB2y_13contract_base8wrappers10serializer21ExitCodecErrorHandlerB3E_EECs8iyf5MSkCde_5tests
FNDA:188,_RINvXs1m_Cs2eHPTk3TAlu_14common_structsNtB7_16EModeAssetConfigNtNtNtCs5SUGlJDgeoS_19multiversx_sc_codec6single6top_en9TopEncode24top_encode_or_handle_errQINtNtNtNtNtCslPMlHj3qn2H_13multiversx_sc5types7managed5basic14managed_buffer13ManagedBufferINtNtNtNtCs1rODQd5oASQ_22multiversx_sc_scenario3api7impl_vh12vm_hooks_api10VMHooksApiNtNtB40_9debug_api15DebugApiBackendEEINtNtNtNtB2D_13contract_base8wrappers10serializer21ExitCodecErrorHandlerB3V_EECs8iyf5MSkCde_5tests
FNDA:0,_RINvXs1n_Cs2eHPTk3TAlu_14common_structsNtB7_16EModeAssetConfigNtNtNtCs5SUGlJDgeoS_19multiversx_sc_codec6single6top_de9TopDecode24top_decode_or_handle_errINtNtNtCslPMlHj3qn2H_13multiversx_sc2io12arg_de_input14ArgDecodeInputINtNtNtNtCs1rODQd5oASQ_22multiversx_sc_scenario3api7impl_vh12vm_hooks_api10VMHooksApiNtNtB3D_9debug_api15DebugApiBackendEEINtNtB2w_17arg_error_handler15ArgErrorHandlerB3y_EECs8iyf5MSkCde_5tests
FNDA:8,_RINvXs1n_Cs2eHPTk3TAlu_14common_structsNtB7_16EModeAssetConfigNtNtNtCs5SUGlJDgeoS_19multiversx_sc_codec6single6top_de9TopDecode24top_decode_or_handle_errINtNtNtCslPMlHj3qn2H_13multiversx_sc7storage11storage_get15StorageGetInputINtNtNtNtCs1rODQd5oASQ_22multiversx_sc_scenario3api7impl_vh12vm_hooks_api10VMHooksApiNtNtB3I_9debug_api15DebugApiBackendEEINtB2u_22StorageGetErrorHandlerB3D_EECs8iyf5MSkCde_5tests
FNDA:0,_RINvXs1u_Cs2eHPTk3TAlu_14common_structsINtB7_13EModeCategoryINtNtNtNtCs1rODQd5oASQ_22multiversx_sc_scenario3api7impl_vh12vm_hooks_api10VMHooksApiNtNtB11_9debug_api15DebugApiBackendEENtNtNtCs5SUGlJDgeoS_19multiversx_sc_codec6single6top_en9TopEncode24top_encode_or_handle_errINtNtNtCslPMlHj3qn2H_13multiversx_sc2io6finish16ApiOutputAdapterBW_EINtNtNtNtB4u_13contract_base8wrappers10serializer21ExitCodecErrorHandlerBW_EECs8iyf5MSkCde_5tests
FNDA:47,_RINvXs1u_Cs2eHPTk3TAlu_14common_structsINtB7_13EModeCategoryINtNtNtNtCs1rODQd5oASQ_22multiversx_sc_scenario3api7impl_vh12vm_hooks_api10VMHooksApiNtNtB11_9debug_api15DebugApiBackendEENtNtNtCs5SUGlJDgeoS_19multiversx_sc_codec6single6top_en9TopEncode24top_encode_or_handle_errINtNtNtCslPMlHj3qn2H_13multiversx_sc7storage11storage_set16StorageSetOutputBW_EINtNtNtNtB4u_13contract_base8wrappers10serializer21ExitCodecErrorHandlerBW_EECs8iyf5MSkCde_5tests
FNDA:47,_RINvXs1u_Cs2eHPTk3TAlu_14common_structsINtB7_13EModeCategoryINtNtNtNtCs1rODQd5oASQ_22multiversx_sc_scenario3api7impl_vh12vm_hooks_api10VMHooksApiNtNtB11_9debug_api15DebugApiBackendEENtNtNtCs5SUGlJDgeoS_19multiversx_sc_codec6single6top_en9TopEncode24top_encode_or_handle_errQINtNtNtNtNtCslPMlHj3qn2H_13multiversx_sc5types7managed5basic14managed_buffer13ManagedBufferBW_EINtNtNtNtB4z_13contract_base8wrappers10serializer21ExitCodecErrorHandlerBW_EECs8iyf5MSkCde_5tests
FNDA:0,_RINvXs1v_Cs2eHPTk3TAlu_14common_structsINtB7_13EModeCategoryINtNtNtNtCs1rODQd5oASQ_22multiversx_sc_scenario3api7impl_vh12vm_hooks_api10VMHooksApiNtNtB11_9debug_api15DebugApiBackendEENtNtNtCs5SUGlJDgeoS_19multiversx_sc_codec6single6top_de9TopDecode24top_decode_or_handle_errINtNtNtCslPMlHj3qn2H_13multiversx_sc2io12arg_de_input14ArgDecodeInputBW_EINtNtB4s_17arg_error_handler15ArgErrorHandlerBW_EECs8iyf5MSkCde_5tests
FNDA:9,_RINvXs1v_Cs2eHPTk3TAlu_14common_structsINtB7_13EModeCategoryINtNtNtNtCs1rODQd5oASQ_22multiversx_sc_scenario3api7impl_vh12vm_hooks_api10VMHooksApiNtNtB11_9debug_api15DebugApiBackendEENtNtNtCs5SUGlJDgeoS_19multiversx_sc_codec6single6top_de9TopDecode24top_decode_or_handle_errINtNtNtCslPMlHj3qn2H_13multiversx_sc7storage11storage_get15StorageGetInputBW_EINtB4q_22StorageGetErrorHandlerBW_EECs8iyf5MSkCde_5tests
FNDA:10,_RINvXs21_Cs2eHPTk3TAlu_14common_structsNtB7_19AccountPositionTypeNtNtNtNtNtCslPMlHj3qn2H_13multiversx_sc5types7managed7wrapped16managed_vec_item14ManagedVecItem16from_byte_readerNCINvXs1S_B7_INtB7_15AccountPositionINtNtNtNtCs1rODQd5oASQ_22multiversx_sc_scenario3api7impl_vh12vm_hooks_api10VMHooksApiNtNtB3v_9debug_api15DebugApiBackendEEB11_16from_byte_readerNCNvMs2_NtB15_11managed_vecINtB5S_10ManagedVecB3q_B33_E7try_get0E0ECs8iyf5MSkCde_5tests
FNDA:80,_RINvXs21_Cs2eHPTk3TAlu_14common_structsNtB7_19AccountPositionTypeNtNtNtNtNtCslPMlHj3qn2H_13multiversx_sc5types7managed7wrapped16managed_vec_item14ManagedVecItem16from_byte_readerNCINvXs1S_B7_INtB7_15AccountPositionINtNtNtNtCs1rODQd5oASQ_22multiversx_sc_scenario3api7impl_vh12vm_hooks_api10VMHooksApiNtNtB3v_9debug_api15DebugApiBackendEEB11_16from_byte_readerNCNvXs0_NtB15_22managed_vec_owned_iterINtB5S_23ManagedVecOwnedIteratorB3q_B33_ENtNtNtNtCslGS7pEIChKc_4core4iter6traits8iterator8Iterator4next0E0ECs8iyf5MSkCde_5tests
FNDA:0,_RINvXs21_Cs2eHPTk3TAlu_14common_structsNtB7_19AccountPositionTypeNtNtNtNtNtCslPMlHj3qn2H_13multiversx_sc5types7managed7wrapped16managed_vec_item14ManagedVecItem16into_byte_writeruNCINvXs1S_B7_INtB7_15AccountPositionINtNtNtNtCs1rODQd5oASQ_22multiversx_sc_scenario3api7impl_vh12vm_hooks_api10VMHooksApiNtNtB3w_9debug_api15DebugApiBackendEEB11_16into_byte_writerINtNtCslGS7pEIChKc_4core6result6ResultuNtNtNtNtB1b_3api13managed_types18managed_buffer_api17InvalidSliceErrorENCNvMs2_NtB15_11managed_vecINtB7F_10ManagedVecB3r_B34_E3set0E0ECs8iyf5MSkCde_5tests
FNDA:840,_RINvXs21_Cs2eHPTk3TAlu_14common_structsNtB7_19AccountPositionTypeNtNtNtNtNtCslPMlHj3qn2H_13multiversx_sc5types7managed7wrapped16managed_vec_item14ManagedVecItem16into_byte_writeruNCINvXs1S_B7_INtB7_15AccountPositionINtNtNtNtCs1rODQd5oASQ_22multiversx_sc_scenario3api7impl_vh12vm_hooks_api10VMHooksApiNtNtB3w_9debug_api15DebugApiBackendEEB11_16into_byte_writeruNCNvMs2_NtB15_11managed_vecINtB5U_10ManagedVecB3r_B34_E4push0E0ECs8iyf5MSkCde_5tests
FNDA:1834,_RINvXs22_Cs2eHPTk3TAlu_14common_structsNtB7_19AccountPositionTypeNtNtNtCs5SUGlJDgeoS_19multiversx_sc_codec6single9nested_en12NestedEncode24dep_encode_or_handle_errINtNtNtNtNtCslPMlHj3qn2H_13multiversx_sc5types7managed5basic14managed_buffer13ManagedBufferINtNtNtNtCs1rODQd5oASQ_22multiversx_sc_scenario3api7impl_vh12vm_hooks_api10VMHooksApiNtNtB49_9debug_api15DebugApiBackendEEINtNtNtNtB2M_13contract_base8wrappers10serializer21ExitCodecErrorHandlerB44_EECs8iyf5MSkCde_5tests
FNDA:1886,_RINvXs22_Cs2eHPTk3TAlu_14common_structsNtB7_19AccountPositionTypeNtNtNtCs5SUGlJDgeoS_19multiversx_sc_codec6single9nested_en12NestedEncode24dep_encode_or_handle_errINtNtNtNtNtNtCslPMlHj3qn2H_13multiversx_sc5types7managed7wrapped7builder22managed_buffer_builder20ManagedBufferBuilderINtNtNtNtCs1rODQd5oASQ_22multiversx_sc_scenario3api7impl_vh12vm_hooks_api10VMHooksApiNtNtB4A_9debug_api15DebugApiBackendEEINtNtNtNtB2O_13contract_base8wrappers10serializer21ExitCodecErrorHandlerB4v_EECs8iyf5MSkCde_5tests
FNDA:1882,_RINvXs23_Cs2eHPTk3TAlu_14common_structsNtB7_19AccountPositionTypeNtNtNtCs5SUGlJDgeoS_19multiversx_sc_codec6single9nested_de12NestedDecode24dep_decode_or_handle_errINtNtNtNtNtCslPMlHj3qn2H_13multiversx_sc5types7managed10codec_util30managed_buffer_nested_de_input30ManagedBufferNestedDecodeInputINtNtNtNtCs1rODQd5oASQ_22multiversx_sc_scenario3api7impl_vh12vm_hooks_api10VMHooksApiNtNtB4M_9debug_api15DebugApiBackendEEINtNtNtB2M_2io17arg_error_handler15ArgErrorHandlerB4H_EECs8iyf5MSkCde_5tests
FNDA:1759,_RINvXs23_Cs2eHPTk3TAlu_14common_structsNtB7_19AccountPositionTypeNtNtNtCs5SUGlJDgeoS_19multiversx_sc_codec6single9nested_de12NestedDecode24dep_decode_or_handle_errINtNtNtNtNtCslPMlHj3qn2H_13multiversx_sc5types7managed10codec_util30managed_buffer_nested_de_input30ManagedBufferNestedDecodeInputINtNtNtNtCs1rODQd5oASQ_22multiversx_sc_scenario3api7impl_vh12vm_hooks_api10VMHooksApiNtNtB4M_9debug_api15DebugApiBackendEEINtNtNtB2M_7storage11storage_get22StorageGetErrorHandlerB4H_EECs8iyf5MSkCde_5tests
FNDA:0,_RINvXs2d_Cs2eHPTk3TAlu_14common_structsINtB7_10PoolParamsINtNtNtNtCs1rODQd5oASQ_22multiversx_sc_scenario3api7impl_vh12vm_hooks_api10VMHooksApiNtNtBY_9debug_api15DebugApiBackendEENtNtNtCs5SUGlJDgeoS_19multiversx_sc_codec6single6top_en9TopEncode24top_encode_or_handle_errINtNtNtCslPMlHj3qn2H_13multiversx_sc2io6finish16ApiOutputAdapterBT_EINtNtNtNtB4q_13contract_base8wrappers10serializer21ExitCodecErrorHandlerBT_EECs8iyf5MSkCde_5tests
FNDA:517,_RINvXs2d_Cs2eHPTk3TAlu_14common_structsINtB7_10PoolParamsINtNtNtNtCs1rODQd5oASQ_22multiversx_sc_scenario3api7impl_vh12vm_hooks_api10VMHooksApiNtNtBY_9debug_api15DebugApiBackendEENtNtNtCs5SUGlJDgeoS_19multiversx_sc_codec6single6top_en9TopEncode24top_encode_or_handle_errINtNtNtCslPMlHj3qn2H_13multiversx_sc7storage11storage_set16StorageSetOutputBT_EINtNtNtNtB4q_13contract_base8wrappers10serializer21ExitCodecErrorHandlerBT_EECs8iyf5MSkCde_5tests
FNDA:961,_RINvXs2e_Cs2eHPTk3TAlu_14common_structsINtB7_10PoolParamsINtNtNtNtCs1rODQd5oASQ_22multiversx_sc_scenario3api7impl_vh12vm_hooks_api10VMHooksApiNtNtBY_9debug_api15DebugApiBackendEENtNtNtCs5SUGlJDgeoS_19multiversx_sc_codec6single6top_de9TopDecode24top_decode_or_handle_errINtNtNtCslPMlHj3qn2H_13multiversx_sc7storage11storage_get15StorageGetInputBT_EINtB4m_22StorageGetErrorHandlerBT_EECs8iyf5MSkCde_5tests
FNDA:564,_RINvXs5_Cs2eHPTk3TAlu_14common_structsINtB6_22OraclePriceFluctuationINtNtNtNtCs1rODQd5oASQ_22multiversx_sc_scenario3api7impl_vh12vm_hooks_api10VMHooksApiNtNtB19_9debug_api15DebugApiBackendEENtNtNtCs5SUGlJDgeoS_19multiversx_sc_codec6single9nested_en12NestedEncode24dep_encode_or_handle_errINtNtNtNtNtNtCslPMlHj3qn2H_13multiversx_sc5types7managed7wrapped7builder22managed_buffer_builder20ManagedBufferBuilderB14_EINtNtNtNtB4P_13contract_base8wrappers10serializer21ExitCodecErrorHandlerB14_EECs8iyf5MSkCde_5tests
FNDA:604,_RINvXs6_Cs2eHPTk3TAlu_14common_structsINtB6_22OraclePriceFluctuationINtNtNtNtCs1rODQd5oASQ_22multiversx_sc_scenario3api7impl_vh12vm_hooks_api10VMHooksApiNtNtB19_9debug_api15DebugApiBackendEENtNtNtCs5SUGlJDgeoS_19multiversx_sc_codec6single9nested_de12NestedDecode24dep_decode_or_handle_errINtNtNtNtNtCslPMlHj3qn2H_13multiversx_sc5types7managed10codec_util30managed_buffer_nested_de_input30ManagedBufferNestedDecodeInputB14_EINtNtNtB4N_7storage11storage_get22StorageGetErrorHandlerB14_EECs8iyf5MSkCde_5tests
FNDA:564,_RINvXsD_Cs2eHPTk3TAlu_14common_structsNtB6_10OracleTypeNtNtNtCs5SUGlJDgeoS_19multiversx_sc_codec6single9nested_en12NestedEncode24dep_encode_or_handle_errINtNtNtNtNtNtCslPMlHj3qn2H_13multiversx_sc5types7managed7wrapped7builder22managed_buffer_builder20ManagedBufferBuilderINtNtNtNtCs1rODQd5oASQ_22multiversx_sc_scenario3api7impl_vh12vm_hooks_api10VMHooksApiNtNtB4q_9debug_api15DebugApiBackendEEINtNtNtNtB2E_13contract_base8wrappers10serializer21ExitCodecErrorHandlerB4l_EECs8iyf5MSkCde_5tests
FNDA:604,_RINvXsE_Cs2eHPTk3TAlu_14common_structsNtB6_10OracleTypeNtNtNtCs5SUGlJDgeoS_19multiversx_sc_codec6single9nested_de12NestedDecode24dep_decode_or_handle_errINtNtNtNtNtCslPMlHj3qn2H_13multiversx_sc5types7managed10codec_util30managed_buffer_nested_de_input30ManagedBufferNestedDecodeInputINtNtNtNtCs1rODQd5oASQ_22multiversx_sc_scenario3api7impl_vh12vm_hooks_api10VMHooksApiNtNtB4C_9debug_api15DebugApiBackendEEINtNtNtB2C_7storage11storage_get22StorageGetErrorHandlerB4x_EECs8iyf5MSkCde_5tests
FNDA:564,_RINvXsF_Cs2eHPTk3TAlu_14common_structsNtB6_10OracleTypeNtNtNtCs5SUGlJDgeoS_19multiversx_sc_codec6single6top_en9TopEncode24top_encode_or_handle_errQINtNtNtNtNtCslPMlHj3qn2H_13multiversx_sc5types7managed5basic14managed_buffer13ManagedBufferINtNtNtNtCs1rODQd5oASQ_22multiversx_sc_scenario3api7impl_vh12vm_hooks_api10VMHooksApiNtNtB3T_10static_api16StaticApiBackendEEINtNtNtNtB2w_13contract_base8wrappers10serializer21ExitCodecErrorHandlerB3O_EECs8iyf5MSkCde_5tests
FNDA:564,_RINvXsG_Cs2eHPTk3TAlu_14common_structsNtB6_10OracleTypeNtNtNtCs5SUGlJDgeoS_19multiversx_sc_codec6single6top_de9TopDecode24top_decode_or_handle_errINtNtNtCslPMlHj3qn2H_13multiversx_sc2io12arg_de_input14ArgDecodeInputINtNtNtNtCs1rODQd5oASQ_22multiversx_sc_scenario3api7impl_vh12vm_hooks_api10VMHooksApiNtNtB3w_9debug_api15DebugApiBackendEEINtNtB2p_17arg_error_handler15ArgErrorHandlerB3r_EECs8iyf5MSkCde_5tests
FNDA:564,_RINvXsP_Cs2eHPTk3TAlu_14common_structsNtB6_13PricingMethodNtNtNtCs5SUGlJDgeoS_19multiversx_sc_codec6single9nested_en12NestedEncode24dep_encode_or_handle_errINtNtNtNtNtNtCslPMlHj3qn2H_13multiversx_sc5types7managed7wrapped7builder22managed_buffer_builder20ManagedBufferBuilderINtNtNtNtCs1rODQd5oASQ_22multiversx_sc_scenario3api7impl_vh12vm_hooks_api10VMHooksApiNtNtB4t_9debug_api15DebugApiBackendEEINtNtNtNtB2H_13contract_base8wrappers10serializer21ExitCodecErrorHandlerB4o_EECs8iyf5MSkCde_5tests
FNDA:604,_RINvXsQ_Cs2eHPTk3TAlu_14common_structsNtB6_13PricingMethodNtNtNtCs5SUGlJDgeoS_19multiversx_sc_codec6single9nested_de12NestedDecode24dep_decode_or_handle_errINtNtNtNtNtCslPMlHj3qn2H_13multiversx_sc5types7managed10codec_util30managed_buffer_nested_de_input30ManagedBufferNestedDecodeInputINtNtNtNtCs1rODQd5oASQ_22multiversx_sc_scenario3api7impl_vh12vm_hooks_api10VMHooksApiNtNtB4F_9debug_api15DebugApiBackendEEINtNtNtB2F_7storage11storage_get22StorageGetErrorHandlerB4A_EECs8iyf5MSkCde_5tests
FNDA:564,_RINvXsR_Cs2eHPTk3TAlu_14common_structsNtB6_13PricingMethodNtNtNtCs5SUGlJDgeoS_19multiversx_sc_codec6single6top_en9TopEncode24top_encode_or_handle_errQINtNtNtNtNtCslPMlHj3qn2H_13multiversx_sc5types7managed5basic14managed_buffer13ManagedBufferINtNtNtNtCs1rODQd5oASQ_22multiversx_sc_scenario3api7impl_vh12vm_hooks_api10VMHooksApiNtNtB3W_10static_api16StaticApiBackendEEINtNtNtNtB2z_13contract_base8wrappers10serializer21ExitCodecErrorHandlerB3R_EECs8iyf5MSkCde_5tests
FNDA:564,_RINvXsS_Cs2eHPTk3TAlu_14common_structsNtB6_13PricingMethodNtNtNtCs5SUGlJDgeoS_19multiversx_sc_codec6single6top_de9TopDecode24top_decode_or_handle_errINtNtNtCslPMlHj3qn2H_13multiversx_sc2io12arg_de_input14ArgDecodeInputINtNtNtNtCs1rODQd5oASQ_22multiversx_sc_scenario3api7impl_vh12vm_hooks_api10VMHooksApiNtNtB3z_9debug_api15DebugApiBackendEEINtNtB2s_17arg_error_handler15ArgErrorHandlerB3u_EECs8iyf5MSkCde_5tests
FNDA:0,_RINvXsc_Cs2eHPTk3TAlu_14common_structsINtB6_14PriceFeedShortINtNtNtNtCs1rODQd5oASQ_22multiversx_sc_scenario3api7impl_vh12vm_hooks_api10VMHooksApiNtNtB11_9debug_api15DebugApiBackendEENtNtNtCs5SUGlJDgeoS_19multiversx_sc_codec6single6top_en9TopEncode24top_encode_or_handle_errINtNtNtCslPMlHj3qn2H_13multiversx_sc2io6finish16ApiOutputAdapterBW_EINtNtNtNtB4u_13contract_base8wrappers10serializer21ExitCodecErrorHandlerBW_EECs8iyf5MSkCde_5tests
FNDA:0,_RINvXsj_Cs2eHPTk3TAlu_14common_structsINtB6_14OracleProviderINtNtNtNtCs1rODQd5oASQ_22multiversx_sc_scenario3api7impl_vh12vm_hooks_api10VMHooksApiNtNtB11_9debug_api15DebugApiBackendEENtNtNtCs5SUGlJDgeoS_19multiversx_sc_codec6single6top_en9TopEncode24top_encode_or_handle_errINtNtNtCslPMlHj3qn2H_13multiversx_sc2io6finish16ApiOutputAdapterBW_EINtNtNtNtB4u_13contract_base8wrappers10serializer21ExitCodecErrorHandlerBW_EECs8iyf5MSkCde_5tests
FNDA:564,_RINvXsj_Cs2eHPTk3TAlu_14common_structsINtB6_14OracleProviderINtNtNtNtCs1rODQd5oASQ_22multiversx_sc_scenario3api7impl_vh12vm_hooks_api10VMHooksApiNtNtB11_9debug_api15DebugApiBackendEENtNtNtCs5SUGlJDgeoS_19multiversx_sc_codec6single6top_en9TopEncode24top_encode_or_handle_errINtNtNtCslPMlHj3qn2H_13multiversx_sc7storage11storage_set16StorageSetOutputBW_EINtNtNtNtB4u_13contract_base8wrappers10serializer21ExitCodecErrorHandlerBW_EECs8iyf5MSkCde_5tests
FNDA:604,_RINvXsk_Cs2eHPTk3TAlu_14common_structsINtB6_14OracleProviderINtNtNtNtCs1rODQd5oASQ_22multiversx_sc_scenario3api7impl_vh12vm_hooks_api10VMHooksApiNtNtB11_9debug_api15DebugApiBackendEENtNtNtCs5SUGlJDgeoS_19multiversx_sc_codec6single6top_de9TopDecode24top_decode_or_handle_errINtNtNtCslPMlHj3qn2H_13multiversx_sc7storage11storage_get15StorageGetInputBW_EINtB4q_22StorageGetErrorHandlerBW_EECs8iyf5MSkCde_5tests
FNDA:564,_RINvXsr_Cs2eHPTk3TAlu_14common_structsNtB6_14ExchangeSourceNtNtNtCs5SUGlJDgeoS_19multiversx_sc_codec6single9nested_en12NestedEncode24dep_encode_or_handle_errINtNtNtNtNtNtCslPMlHj3qn2H_13multiversx_sc5types7managed7wrapped7builder22managed_buffer_builder20ManagedBufferBuilderINtNtNtNtCs1rODQd5oASQ_22multiversx_sc_scenario3api7impl_vh12vm_hooks_api10VMHooksApiNtNtB4u_9debug_api15DebugApiBackendEEINtNtNtNtB2I_13contract_base8wrappers10serializer21ExitCodecErrorHandlerB4p_EECs8iyf5MSkCde_5tests
FNDA:604,_RINvXss_Cs2eHPTk3TAlu_14common_structsNtB6_14ExchangeSourceNtNtNtCs5SUGlJDgeoS_19multiversx_sc_codec6single9nested_de12NestedDecode24dep_decode_or_handle_errINtNtNtNtNtCslPMlHj3qn2H_13multiversx_sc5types7managed10codec_util30managed_buffer_nested_de_input30ManagedBufferNestedDecodeInputINtNtNtNtCs1rODQd5oASQ_22multiversx_sc_scenario3api7impl_vh12vm_hooks_api10VMHooksApiNtNtB4G_9debug_api15DebugApiBackendEEINtNtNtB2G_7storage11storage_get22StorageGetErrorHandlerB4B_EECs8iyf5MSkCde_5tests
FNDA:564,_RINvXst_Cs2eHPTk3TAlu_14common_structsNtB6_14ExchangeSourceNtNtNtCs5SUGlJDgeoS_19multiversx_sc_codec6single6top_en9TopEncode24top_encode_or_handle_errQINtNtNtNtNtCslPMlHj3qn2H_13multiversx_sc5types7managed5basic14managed_buffer13ManagedBufferINtNtNtNtCs1rODQd5oASQ_22multiversx_sc_scenario3api7impl_vh12vm_hooks_api10VMHooksApiNtNtB3X_10static_api16StaticApiBackendEEINtNtNtNtB2A_13contract_base8wrappers10serializer21ExitCodecErrorHandlerB3S_EECs8iyf5MSkCde_5tests
FNDA:564,_RINvXsu_Cs2eHPTk3TAlu_14common_structsNtB6_14ExchangeSourceNtNtNtCs5SUGlJDgeoS_19multiversx_sc_codec6single6top_de9TopDecode24top_decode_or_handle_errINtNtNtCslPMlHj3qn2H_13multiversx_sc2io12arg_de_input14ArgDecodeInputINtNtNtNtCs1rODQd5oASQ_22multiversx_sc_scenario3api7impl_vh12vm_hooks_api10VMHooksApiNtNtB3A_9debug_api15DebugApiBackendEEINtNtB2t_17arg_error_handler15ArgErrorHandlerB3v_EECs8iyf5MSkCde_5tests
FNDA:174,_RNCINvXs10_Cs2eHPTk3TAlu_14common_structsINtB9_25EgldOrEsdtTokenPaymentNewINtNtNtNtCs1rODQd5oASQ_22multiversx_sc_scenario3api7impl_vh12vm_hooks_api10VMHooksApiNtNtB1f_9debug_api15DebugApiBackendEENtNtNtNtNtCslPMlHj3qn2H_13multiversx_sc5types7managed7wrapped16managed_vec_item14ManagedVecItem16from_byte_readerNCNvMs2_NtB3c_11managed_vecINtB55_10ManagedVecB1a_BD_E7try_get0E0Cs8iyf5MSkCde_5tests
FNDA:174,_RNCINvXs10_Cs2eHPTk3TAlu_14common_structsINtB9_25EgldOrEsdtTokenPaymentNewINtNtNtNtCs1rODQd5oASQ_22multiversx_sc_scenario3api7impl_vh12vm_hooks_api10VMHooksApiNtNtB1f_9debug_api15DebugApiBackendEENtNtNtNtNtCslPMlHj3qn2H_13multiversx_sc5types7managed7wrapped16managed_vec_item14ManagedVecItem16from_byte_readerNCNvMs2_NtB3c_11managed_vecINtB55_10ManagedVecB1a_BD_E7try_get0Es0_0Cs8iyf5MSkCde_5tests
FNDA:174,_RNCINvXs10_Cs2eHPTk3TAlu_14common_structsINtB9_25EgldOrEsdtTokenPaymentNewINtNtNtNtCs1rODQd5oASQ_22multiversx_sc_scenario3api7impl_vh12vm_hooks_api10VMHooksApiNtNtB1f_9debug_api15DebugApiBackendEENtNtNtNtNtCslPMlHj3qn2H_13multiversx_sc5types7managed7wrapped16managed_vec_item14ManagedVecItem16from_byte_readerNCNvMs2_NtB3c_11managed_vecINtB55_10ManagedVecB1a_BD_E7try_get0Es_0Cs8iyf5MSkCde_5tests
FNDA:167,_RNCINvXs10_Cs2eHPTk3TAlu_14common_structsINtB9_25EgldOrEsdtTokenPaymentNewINtNtNtNtCs1rODQd5oASQ_22multiversx_sc_scenario3api7impl_vh12vm_hooks_api10VMHooksApiNtNtB1f_9debug_api15DebugApiBackendEENtNtNtNtNtCslPMlHj3qn2H_13multiversx_sc5types7managed7wrapped16managed_vec_item14ManagedVecItem16from_byte_readerNCNvXs0_NtB3c_22managed_vec_owned_iterINtB55_23ManagedVecOwnedIteratorB1a_BD_ENtNtNtNtCslGS7pEIChKc_4core4iter6traits8iterator8Iterator4next0E0Cs8iyf5MSkCde_5tests
FNDA:167,_RNCINvXs10_Cs2eHPTk3TAlu_14common_structsINtB9_25EgldOrEsdtTokenPaymentNewINtNtNtNtCs1rODQd5oASQ_22multiversx_sc_scenario3api7impl_vh12vm_hooks_api10VMHooksApiNtNtB1f_9debug_api15DebugApiBackendEENtNtNtNtNtCslPMlHj3qn2H_13multiversx_sc5types7managed7wrapped16managed_vec_item14ManagedVecItem16from_byte_readerNCNvXs0_NtB3c_22managed_vec_owned_iterINtB55_23ManagedVecOwnedIteratorB1a_BD_ENtNtNtNtCslGS7pEIChKc_4core4iter6traits8iterator8Iterator4next0Es0_0Cs8iyf5MSkCde_5tests
FNDA:167,_RNCINvXs10_Cs2eHPTk3TAlu_14common_structsINtB9_25EgldOrEsdtTokenPaymentNewINtNtNtNtCs1rODQd5oASQ_22multiversx_sc_scenario3api7impl_vh12vm_hooks_api10VMHooksApiNtNtB1f_9debug_api15DebugApiBackendEENtNtNtNtNtCslPMlHj3qn2H_13multiversx_sc5types7managed7wrapped16managed_vec_item14ManagedVecItem16from_byte_readerNCNvXs0_NtB3c_22managed_vec_owned_iterINtB55_23ManagedVecOwnedIteratorB1a_BD_ENtNtNtNtCslGS7pEIChKc_4core4iter6traits8iterator8Iterator4next0Es_0Cs8iyf5MSkCde_5tests
FNDA:180,_RNCINvXs10_Cs2eHPTk3TAlu_14common_structsINtB9_25EgldOrEsdtTokenPaymentNewINtNtNtNtCs1rODQd5oASQ_22multiversx_sc_scenario3api7impl_vh12vm_hooks_api10VMHooksApiNtNtB1f_9debug_api15DebugApiBackendEENtNtNtNtNtCslPMlHj3qn2H_13multiversx_sc5types7managed7wrapped16managed_vec_item14ManagedVecItem16into_byte_writeruNCNvMs2_NtB3c_11managed_vecINtB56_10ManagedVecB1a_BD_E4push0E0Cs8iyf5MSkCde_5tests
FNDA:180,_RNCINvXs10_Cs2eHPTk3TAlu_14common_structsINtB9_25EgldOrEsdtTokenPaymentNewINtNtNtNtCs1rODQd5oASQ_22multiversx_sc_scenario3api7impl_vh12vm_hooks_api10VMHooksApiNtNtB1f_9debug_api15DebugApiBackendEENtNtNtNtNtCslPMlHj3qn2H_13multiversx_sc5types7managed7wrapped16managed_vec_item14ManagedVecItem16into_byte_writeruNCNvMs2_NtB3c_11managed_vecINtB56_10ManagedVecB1a_BD_E4push0Es0_0Cs8iyf5MSkCde_5tests
FNDA:180,_RNCINvXs10_Cs2eHPTk3TAlu_14common_structsINtB9_25EgldOrEsdtTokenPaymentNewINtNtNtNtCs1rODQd5oASQ_22multiversx_sc_scenario3api7impl_vh12vm_hooks_api10VMHooksApiNtNtB1f_9debug_api15DebugApiBackendEENtNtNtNtNtCslPMlHj3qn2H_13multiversx_sc5types7managed7wrapped16managed_vec_item14ManagedVecItem16into_byte_writeruNCNvMs2_NtB3c_11managed_vecINtB56_10ManagedVecB1a_BD_E4push0Es_0Cs8iyf5MSkCde_5tests
FNDA:0,_RNCINvXs1B_Cs2eHPTk3TAlu_14common_structsINtB9_23AssetExtendedConfigViewINtNtNtNtCs1rODQd5oASQ_22multiversx_sc_scenario3api7impl_vh12vm_hooks_api10VMHooksApiNtNtB1d_9debug_api15DebugApiBackendEENtNtNtNtNtCslPMlHj3qn2H_13multiversx_sc5types7managed7wrapped16managed_vec_item14ManagedVecItem16from_byte_readerNCNvXs0_NtB3a_22managed_vec_owned_iterINtB53_23ManagedVecOwnedIteratorB18_BD_ENtNtNtNtCslGS7pEIChKc_4core4iter6traits8iterator8Iterator4next0E0Cs8iyf5MSkCde_5tests
FNDA:0,_RNCINvXs1B_Cs2eHPTk3TAlu_14common_structsINtB9_23AssetExtendedConfigViewINtNtNtNtCs1rODQd5oASQ_22multiversx_sc_scenario3api7impl_vh12vm_hooks_api10VMHooksApiNtNtB1d_9debug_api15DebugApiBackendEENtNtNtNtNtCslPMlHj3qn2H_13multiversx_sc5types7managed7wrapped16managed_vec_item14ManagedVecItem16from_byte_readerNCNvXs0_NtB3a_22managed_vec_owned_iterINtB53_23ManagedVecOwnedIteratorB18_BD_ENtNtNtNtCslGS7pEIChKc_4core4iter6traits8iterator8Iterator4next0Es0_0Cs8iyf5MSkCde_5tests
FNDA:0,_RNCINvXs1B_Cs2eHPTk3TAlu_14common_structsINtB9_23AssetExtendedConfigViewINtNtNtNtCs1rODQd5oASQ_22multiversx_sc_scenario3api7impl_vh12vm_hooks_api10VMHooksApiNtNtB1d_9debug_api15DebugApiBackendEENtNtNtNtNtCslPMlHj3qn2H_13multiversx_sc5types7managed7wrapped16managed_vec_item14ManagedVecItem16from_byte_readerNCNvXs0_NtB3a_22managed_vec_owned_iterINtB53_23ManagedVecOwnedIteratorB18_BD_ENtNtNtNtCslGS7pEIChKc_4core4iter6traits8iterator8Iterator4next0Es1_0Cs8iyf5MSkCde_5tests
FNDA:0,_RNCINvXs1B_Cs2eHPTk3TAlu_14common_structsINtB9_23AssetExtendedConfigViewINtNtNtNtCs1rODQd5oASQ_22multiversx_sc_scenario3api7impl_vh12vm_hooks_api10VMHooksApiNtNtB1d_9debug_api15DebugApiBackendEENtNtNtNtNtCslPMlHj3qn2H_13multiversx_sc5types7managed7wrapped16managed_vec_item14ManagedVecItem16from_byte_readerNCNvXs0_NtB3a_22managed_vec_owned_iterINtB53_23ManagedVecOwnedIteratorB18_BD_ENtNtNtNtCslGS7pEIChKc_4core4iter6traits8iterator8Iterator4next0Es_0Cs8iyf5MSkCde_5tests
FNDA:0,_RNCINvXs1B_Cs2eHPTk3TAlu_14common_structsINtB9_23AssetExtendedConfigViewINtNtNtNtCs1rODQd5oASQ_22multiversx_sc_scenario3api7impl_vh12vm_hooks_api10VMHooksApiNtNtB1d_9debug_api15DebugApiBackendEENtNtNtNtNtCslPMlHj3qn2H_13multiversx_sc5types7managed7wrapped16managed_vec_item14ManagedVecItem16into_byte_writeruNCNvMs2_NtB3a_11managed_vecINtB54_10ManagedVecB18_BD_E4push0E0Cs8iyf5MSkCde_5tests
FNDA:0,_RNCINvXs1B_Cs2eHPTk3TAlu_14common_structsINtB9_23AssetExtendedConfigViewINtNtNtNtCs1rODQd5oASQ_22multiversx_sc_scenario3api7impl_vh12vm_hooks_api10VMHooksApiNtNtB1d_9debug_api15DebugApiBackendEENtNtNtNtNtCslPMlHj3qn2H_13multiversx_sc5types7managed7wrapped16managed_vec_item14ManagedVecItem16into_byte_writeruNCNvMs2_NtB3a_11managed_vecINtB54_10ManagedVecB18_BD_E4push0Es0_0Cs8iyf5MSkCde_5tests
FNDA:0,_RNCINvXs1B_Cs2eHPTk3TAlu_14common_structsINtB9_23AssetExtendedConfigViewINtNtNtNtCs1rODQd5oASQ_22multiversx_sc_scenario3api7impl_vh12vm_hooks_api10VMHooksApiNtNtB1d_9debug_api15DebugApiBackendEENtNtNtNtNtCslPMlHj3qn2H_13multiversx_sc5types7managed7wrapped16managed_vec_item14ManagedVecItem16into_byte_writeruNCNvMs2_NtB3a_11managed_vecINtB54_10ManagedVecB18_BD_E4push0Es1_0Cs8iyf5MSkCde_5tests
FNDA:0,_RNCINvXs1B_Cs2eHPTk3TAlu_14common_structsINtB9_23AssetExtendedConfigViewINtNtNtNtCs1rODQd5oASQ_22multiversx_sc_scenario3api7impl_vh12vm_hooks_api10VMHooksApiNtNtB1d_9debug_api15DebugApiBackendEENtNtNtNtNtCslPMlHj3qn2H_13multiversx_sc5types7managed7wrapped16managed_vec_item14ManagedVecItem16into_byte_writeruNCNvMs2_NtB3a_11managed_vecINtB54_10ManagedVecB18_BD_E4push0Es_0Cs8iyf5MSkCde_5tests
FNDA:0,_RNCINvXs1J_Cs2eHPTk3TAlu_14common_structsINtB9_11AssetConfigINtNtNtNtCs1rODQd5oASQ_22multiversx_sc_scenario3api7impl_vh12vm_hooks_api10VMHooksApiNtNtB11_9debug_api15DebugApiBackendEENtNtNtNtNtCslPMlHj3qn2H_13multiversx_sc5types7managed7wrapped16managed_vec_item14ManagedVecItem16from_byte_readerNCINvXs1B_B9_INtB9_23AssetExtendedConfigViewBW_EB2U_16from_byte_readerNCNvXs0_NtB2Y_22managed_vec_owned_iterINtB5Z_23ManagedVecOwnedIteratorBW_B4W_ENtNtNtNtCslGS7pEIChKc_4core4iter6traits8iterator8Iterator4next0E0E0Cs8iyf5MSkCde_5tests
FNDA:0,_RNCINvXs1J_Cs2eHPTk3TAlu_14common_structsINtB9_11AssetConfigINtNtNtNtCs1rODQd5oASQ_22multiversx_sc_scenario3api7impl_vh12vm_hooks_api10VMHooksApiNtNtB11_9debug_api15DebugApiBackendEENtNtNtNtNtCslPMlHj3qn2H_13multiversx_sc5types7managed7wrapped16managed_vec_item14ManagedVecItem16from_byte_readerNCINvXs1B_B9_INtB9_23AssetExtendedConfigViewBW_EB2U_16from_byte_readerNCNvXs0_NtB2Y_22managed_vec_owned_iterINtB5Z_23ManagedVecOwnedIteratorBW_B4W_ENtNtNtNtCslGS7pEIChKc_4core4iter6traits8iterator8Iterator4next0E0Es0_0Cs8iyf5MSkCde_5tests
FNDA:0,_RNCINvXs1J_Cs2eHPTk3TAlu_14common_structsINtB9_11AssetConfigINtNtNtNtCs1rODQd5oASQ_22multiversx_sc_scenario3api7impl_vh12vm_hooks_api10VMHooksApiNtNtB11_9debug_api15DebugApiBackendEENtNtNtNtNtCslPMlHj3qn2H_13multiversx_sc5types7managed7wrapped16managed_vec_item14ManagedVecItem16from_byte_readerNCINvXs1B_B9_INtB9_23AssetExtendedConfigViewBW_EB2U_16from_byte_readerNCNvXs0_NtB2Y_22managed_vec_owned_iterINtB5Z_23ManagedVecOwnedIteratorBW_B4W_ENtNtNtNtCslGS7pEIChKc_4core4iter6traits8iterator8Iterator4next0E0Es1_0Cs8iyf5MSkCde_5tests
FNDA:0,_RNCINvXs1J_Cs2eHPTk3TAlu_14common_structsINtB9_11AssetConfigINtNtNtNtCs1rODQd5oASQ_22multiversx_sc_scenario3api7impl_vh12vm_hooks_api10VMHooksApiNtNtB11_9debug_api15DebugApiBackendEENtNtNtNtNtCslPMlHj3qn2H_13multiversx_sc5types7managed7wrapped16managed_vec_item14ManagedVecItem16from_byte_readerNCINvXs1B_B9_INtB9_23AssetExtendedConfigViewBW_EB2U_16from_byte_readerNCNvXs0_NtB2Y_22managed_vec_owned_iterINtB5Z_23ManagedVecOwnedIteratorBW_B4W_ENtNtNtNtCslGS7pEIChKc_4core4iter6traits8iterator8Iterator4next0E0Es2_0Cs8iyf5MSkCde_5tests
FNDA:0,_RNCINvXs1J_Cs2eHPTk3TAlu_14common_structsINtB9_11AssetConfigINtNtNtNtCs1rODQd5oASQ_22multiversx_sc_scenario3api7impl_vh12vm_hooks_api10VMHooksApiNtNtB11_9debug_api15DebugApiBackendEENtNtNtNtNtCslPMlHj3qn2H_13multiversx_sc5types7managed7wrapped16managed_vec_item14ManagedVecItem16from_byte_readerNCINvXs1B_B9_INtB9_23AssetExtendedConfigViewBW_EB2U_16from_byte_readerNCNvXs0_NtB2Y_22managed_vec_owned_iterINtB5Z_23ManagedVecOwnedIteratorBW_B4W_ENtNtNtNtCslGS7pEIChKc_4core4iter6traits8iterator8Iterator4next0E0Es3_0Cs8iyf5MSkCde_5tests
FNDA:0,_RNCINvXs1J_Cs2eHPTk3TAlu_14common_structsINtB9_11AssetConfigINtNtNtNtCs1rODQd5oASQ_22multiversx_sc_scenario3api7impl_vh12vm_hooks_api10VMHooksApiNtNtB11_9debug_api15DebugApiBackendEENtNtNtNtNtCslPMlHj3qn2H_13multiversx_sc5types7managed7wrapped16managed_vec_item14ManagedVecItem16from_byte_readerNCINvXs1B_B9_INtB9_23AssetExtendedConfigViewBW_EB2U_16from_byte_readerNCNvXs0_NtB2Y_22managed_vec_owned_iterINtB5Z_23ManagedVecOwnedIteratorBW_B4W_ENtNtNtNtCslGS7pEIChKc_4core4iter6traits8iterator8Iterator4next0E0Es4_0Cs8iyf5MSkCde_5tests
FNDA:0,_RNCINvXs1J_Cs2eHPTk3TAlu_14common_structsINtB9_11AssetConfigINtNtNtNtCs1rODQd5oASQ_22multiversx_sc_scenario3api7impl_vh12vm_hooks_api10VMHooksApiNtNtB11_9debug_api15DebugApiBackendEENtNtNtNtNtCslPMlHj3qn2H_13multiversx_sc5types7managed7wrapped16managed_vec_item14ManagedVecItem16from_byte_readerNCINvXs1B_B9_INtB9_23AssetExtendedConfigViewBW_EB2U_16from_byte_readerNCNvXs0_NtB2Y_22managed_vec_owned_iterINtB5Z_23ManagedVecOwnedIteratorBW_B4W_ENtNtNtNtCslGS7pEIChKc_4core4iter6traits8iterator8Iterator4next0E0Es5_0Cs8iyf5MSkCde_5tests
FNDA:0,_RNCINvXs1J_Cs2eHPTk3TAlu_14common_structsINtB9_11AssetConfigINtNtNtNtCs1rODQd5oASQ_22multiversx_sc_scenario3api7impl_vh12vm_hooks_api10VMHooksApiNtNtB11_9debug_api15DebugApiBackendEENtNtNtNtNtCslPMlHj3qn2H_13multiversx_sc5types7managed7wrapped16managed_vec_item14ManagedVecItem16from_byte_readerNCINvXs1B_B9_INtB9_23AssetExtendedConfigViewBW_EB2U_16from_byte_readerNCNvXs0_NtB2Y_22managed_vec_owned_iterINtB5Z_23ManagedVecOwnedIteratorBW_B4W_ENtNtNtNtCslGS7pEIChKc_4core4iter6traits8iterator8Iterator4next0E0Es6_0Cs8iyf5MSkCde_5tests
FNDA:0,_RNCINvXs1J_Cs2eHPTk3TAlu_14common_structsINtB9_11AssetConfigINtNtNtNtCs1rODQd5oASQ_22multiversx_sc_scenario3api7impl_vh12vm_hooks_api10VMHooksApiNtNtB11_9debug_api15DebugApiBackendEENtNtNtNtNtCslPMlHj3qn2H_13multiversx_sc5types7managed7wrapped16managed_vec_item14ManagedVecItem16from_byte_readerNCINvXs1B_B9_INtB9_23AssetExtendedConfigViewBW_EB2U_16from_byte_readerNCNvXs0_NtB2Y_22managed_vec_owned_iterINtB5Z_23ManagedVecOwnedIteratorBW_B4W_ENtNtNtNtCslGS7pEIChKc_4core4iter6traits8iterator8Iterator4next0E0Es7_0Cs8iyf5MSkCde_5tests
FNDA:0,_RNCINvXs1J_Cs2eHPTk3TAlu_14common_structsINtB9_11AssetConfigINtNtNtNtCs1rODQd5oASQ_22multiversx_sc_scenario3api7impl_vh12vm_hooks_api10VMHooksApiNtNtB11_9debug_api15DebugApiBackendEENtNtNtNtNtCslPMlHj3qn2H_13multiversx_sc5types7managed7wrapped16managed_vec_item14ManagedVecItem16from_byte_readerNCINvXs1B_B9_INtB9_23AssetExtendedConfigViewBW_EB2U_16from_byte_readerNCNvXs0_NtB2Y_22managed_vec_owned_iterINtB5Z_23ManagedVecOwnedIteratorBW_B4W_ENtNtNtNtCslGS7pEIChKc_4core4iter6traits8iterator8Iterator4next0E0Es8_0Cs8iyf5MSkCde_5tests
FNDA:0,_RNCINvXs1J_Cs2eHPTk3TAlu_14common_structsINtB9_11AssetConfigINtNtNtNtCs1rODQd5oASQ_22multiversx_sc_scenario3api7impl_vh12vm_hooks_api10VMHooksApiNtNtB11_9debug_api15DebugApiBackendEENtNtNtNtNtCslPMlHj3qn2H_13multiversx_sc5types7managed7wrapped16managed_vec_item14ManagedVecItem16from_byte_readerNCINvXs1B_B9_INtB9_23AssetExtendedConfigViewBW_EB2U_16from_byte_readerNCNvXs0_NtB2Y_22managed_vec_owned_iterINtB5Z_23ManagedVecOwnedIteratorBW_B4W_ENtNtNtNtCslGS7pEIChKc_4core4iter6traits8iterator8Iterator4next0E0Es9_0Cs8iyf5MSkCde_5tests
FNDA:0,_RNCINvXs1J_Cs2eHPTk3TAlu_14common_structsINtB9_11AssetConfigINtNtNtNtCs1rODQd5oASQ_22multiversx_sc_scenario3api7impl_vh12vm_hooks_api10VMHooksApiNtNtB11_9debug_api15DebugApiBackendEENtNtNtNtNtCslPMlHj3qn2H_13multiversx_sc5types7managed7wrapped16managed_vec_item14ManagedVecItem16from_byte_readerNCINvXs1B_B9_INtB9_23AssetExtendedConfigViewBW_EB2U_16from_byte_readerNCNvXs0_NtB2Y_22managed_vec_owned_iterINtB5Z_23ManagedVecOwnedIteratorBW_B4W_ENtNtNtNtCslGS7pEIChKc_4core4iter6traits8iterator8Iterator4next0E0Es_0Cs8iyf5MSkCde_5tests
FNDA:0,_RNCINvXs1J_Cs2eHPTk3TAlu_14common_structsINtB9_11AssetConfigINtNtNtNtCs1rODQd5oASQ_22multiversx_sc_scenario3api7impl_vh12vm_hooks_api10VMHooksApiNtNtB11_9debug_api15DebugApiBackendEENtNtNtNtNtCslPMlHj3qn2H_13multiversx_sc5types7managed7wrapped16managed_vec_item14ManagedVecItem16from_byte_readerNCINvXs1B_B9_INtB9_23AssetExtendedConfigViewBW_EB2U_16from_byte_readerNCNvXs0_NtB2Y_22managed_vec_owned_iterINtB5Z_23ManagedVecOwnedIteratorBW_B4W_ENtNtNtNtCslGS7pEIChKc_4core4iter6traits8iterator8Iterator4next0E0Esa_0Cs8iyf5MSkCde_5tests
FNDA:0,_RNCINvXs1J_Cs2eHPTk3TAlu_14common_structsINtB9_11AssetConfigINtNtNtNtCs1rODQd5oASQ_22multiversx_sc_scenario3api7impl_vh12vm_hooks_api10VMHooksApiNtNtB11_9debug_api15DebugApiBackendEENtNtNtNtNtCslPMlHj3qn2H_13multiversx_sc5types7managed7wrapped16managed_vec_item14ManagedVecItem16from_byte_readerNCINvXs1B_B9_INtB9_23AssetExtendedConfigViewBW_EB2U_16from_byte_readerNCNvXs0_NtB2Y_22managed_vec_owned_iterINtB5Z_23ManagedVecOwnedIteratorBW_B4W_ENtNtNtNtCslGS7pEIChKc_4core4iter6traits8iterator8Iterator4next0E0Esb_0Cs8iyf5MSkCde_5tests
FNDA:0,_RNCINvXs1J_Cs2eHPTk3TAlu_14common_structsINtB9_11AssetConfigINtNtNtNtCs1rODQd5oASQ_22multiversx_sc_scenario3api7impl_vh12vm_hooks_api10VMHooksApiNtNtB11_9debug_api15DebugApiBackendEENtNtNtNtNtCslPMlHj3qn2H_13multiversx_sc5types7managed7wrapped16managed_vec_item14ManagedVecItem16from_byte_readerNCINvXs1B_B9_INtB9_23AssetExtendedConfigViewBW_EB2U_16from_byte_readerNCNvXs0_NtB2Y_22managed_vec_owned_iterINtB5Z_23ManagedVecOwnedIteratorBW_B4W_ENtNtNtNtCslGS7pEIChKc_4core4iter6traits8iterator8Iterator4next0E0Esc_0Cs8iyf5MSkCde_5tests
FNDA:0,_RNCINvXs1J_Cs2eHPTk3TAlu_14common_structsINtB9_11AssetConfigINtNtNtNtCs1rODQd5oASQ_22multiversx_sc_scenario3api7impl_vh12vm_hooks_api10VMHooksApiNtNtB11_9debug_api15DebugApiBackendEENtNtNtNtNtCslPMlHj3qn2H_13multiversx_sc5types7managed7wrapped16managed_vec_item14ManagedVecItem16into_byte_writeruNCINvXs1B_B9_INtB9_23AssetExtendedConfigViewBW_EB2U_16into_byte_writeruNCNvMs2_NtB2Y_11managed_vecINtB61_10ManagedVecBW_B4X_E4push0E0E0Cs8iyf5MSkCde_5tests
FNDA:0,_RNCINvXs1J_Cs2eHPTk3TAlu_14common_structsINtB9_11AssetConfigINtNtNtNtCs1rODQd5oASQ_22multiversx_sc_scenario3api7impl_vh12vm_hooks_api10VMHooksApiNtNtB11_9debug_api15DebugApiBackendEENtNtNtNtNtCslPMlHj3qn2H_13multiversx_sc5types7managed7wrapped16managed_vec_item14ManagedVecItem16into_byte_writeruNCINvXs1B_B9_INtB9_23AssetExtendedConfigViewBW_EB2U_16into_byte_writeruNCNvMs2_NtB2Y_11managed_vecINtB61_10ManagedVecBW_B4X_E4push0E0Es0_0Cs8iyf5MSkCde_5tests
FNDA:0,_RNCINvXs1J_Cs2eHPTk3TAlu_14common_structsINtB9_11AssetConfigINtNtNtNtCs1rODQd5oASQ_22multiversx_sc_scenario3api7impl_vh12vm_hooks_api10VMHooksApiNtNtB11_9debug_api15DebugApiBackendEENtNtNtNtNtCslPMlHj3qn2H_13multiversx_sc5types7managed7wrapped16managed_vec_item14ManagedVecItem16into_byte_writeruNCINvXs1B_B9_INtB9_23AssetExtendedConfigViewBW_EB2U_16into_byte_writeruNCNvMs2_NtB2Y_11managed_vecINtB61_10ManagedVecBW_B4X_E4push0E0Es1_0Cs8iyf5MSkCde_5tests
FNDA:0,_RNCINvXs1J_Cs2eHPTk3TAlu_14common_structsINtB9_11AssetConfigINtNtNtNtCs1rODQd5oASQ_22multiversx_sc_scenario3api7impl_vh12vm_hooks_api10VMHooksApiNtNtB11_9debug_api15DebugApiBackendEENtNtNtNtNtCslPMlHj3qn2H_13multiversx_sc5types7managed7wrapped16managed_vec_item14ManagedVecItem16into_byte_writeruNCINvXs1B_B9_INtB9_23AssetExtendedConfigViewBW_EB2U_16into_byte_writeruNCNvMs2_NtB2Y_11managed_vecINtB61_10ManagedVecBW_B4X_E4push0E0Es2_0Cs8iyf5MSkCde_5tests
FNDA:0,_RNCINvXs1J_Cs2eHPTk3TAlu_14common_structsINtB9_11AssetConfigINtNtNtNtCs1rODQd5oASQ_22multiversx_sc_scenario3api7impl_vh12vm_hooks_api10VMHooksApiNtNtB11_9debug_api15DebugApiBackendEENtNtNtNtNtCslPMlHj3qn2H_13multiversx_sc5types7managed7wrapped16managed_vec_item14ManagedVecItem16into_byte_writeruNCINvXs1B_B9_INtB9_23AssetExtendedConfigViewBW_EB2U_16into_byte_writeruNCNvMs2_NtB2Y_11managed_vecINtB61_10ManagedVecBW_B4X_E4push0E0Es3_0Cs8iyf5MSkCde_5tests
FNDA:0,_RNCINvXs1J_Cs2eHPTk3TAlu_14common_structsINtB9_11AssetConfigINtNtNtNtCs1rODQd5oASQ_22multiversx_sc_scenario3api7impl_vh12vm_hooks_api10VMHooksApiNtNtB11_9debug_api15DebugApiBackendEENtNtNtNtNtCslPMlHj3qn2H_13multiversx_sc5types7managed7wrapped16managed_vec_item14ManagedVecItem16into_byte_writeruNCINvXs1B_B9_INtB9_23AssetExtendedConfigViewBW_EB2U_16into_byte_writeruNCNvMs2_NtB2Y_11managed_vecINtB61_10ManagedVecBW_B4X_E4push0E0Es4_0Cs8iyf5MSkCde_5tests
FNDA:0,_RNCINvXs1J_Cs2eHPTk3TAlu_14common_structsINtB9_11AssetConfigINtNtNtNtCs1rODQd5oASQ_22multiversx_sc_scenario3api7impl_vh12vm_hooks_api10VMHooksApiNtNtB11_9debug_api15DebugApiBackendEENtNtNtNtNtCslPMlHj3qn2H_13multiversx_sc5types7managed7wrapped16managed_vec_item14ManagedVecItem16into_byte_writeruNCINvXs1B_B9_INtB9_23AssetExtendedConfigViewBW_EB2U_16into_byte_writeruNCNvMs2_NtB2Y_11managed_vecINtB61_10ManagedVecBW_B4X_E4push0E0Es5_0Cs8iyf5MSkCde_5tests
FNDA:0,_RNCINvXs1J_Cs2eHPTk3TAlu_14common_structsINtB9_11AssetConfigINtNtNtNtCs1rODQd5oASQ_22multiversx_sc_scenario3api7impl_vh12vm_hooks_api10VMHooksApiNtNtB11_9debug_api15DebugApiBackendEENtNtNtNtNtCslPMlHj3qn2H_13multiversx_sc5types7managed7wrapped16managed_vec_item14ManagedVecItem16into_byte_writeruNCINvXs1B_B9_INtB9_23AssetExtendedConfigViewBW_EB2U_16into_byte_writeruNCNvMs2_NtB2Y_11managed_vecINtB61_10ManagedVecBW_B4X_E4push0E0Es6_0Cs8iyf5MSkCde_5tests
FNDA:0,_RNCINvXs1J_Cs2eHPTk3TAlu_14common_structsINtB9_11AssetConfigINtNtNtNtCs1rODQd5oASQ_22multiversx_sc_scenario3api7impl_vh12vm_hooks_api10VMHooksApiNtNtB11_9debug_api15DebugApiBackendEENtNtNtNtNtCslPMlHj3qn2H_13multiversx_sc5types7managed7wrapped16managed_vec_item14ManagedVecItem16into_byte_writeruNCINvXs1B_B9_INtB9_23AssetExtendedConfigViewBW_EB2U_16into_byte_writeruNCNvMs2_NtB2Y_11managed_vecINtB61_10ManagedVecBW_B4X_E4push0E0Es7_0Cs8iyf5MSkCde_5tests
FNDA:0,_RNCINvXs1J_Cs2eHPTk3TAlu_14common_structsINtB9_11AssetConfigINtNtNtNtCs1rODQd5oASQ_22multiversx_sc_scenario3api7impl_vh12vm_hooks_api10VMHooksApiNtNtB11_9debug_api15DebugApiBackendEENtNtNtNtNtCslPMlHj3qn2H_13multiversx_sc5types7managed7wrapped16managed_vec_item14ManagedVecItem16into_byte_writeruNCINvXs1B_B9_INtB9_23AssetExtendedConfigViewBW_EB2U_16into_byte_writeruNCNvMs2_NtB2Y_11managed_vecINtB61_10ManagedVecBW_B4X_E4push0E0Es8_0Cs8iyf5MSkCde_5tests
FNDA:0,_RNCINvXs1J_Cs2eHPTk3TAlu_14common_structsINtB9_11AssetConfigINtNtNtNtCs1rODQd5oASQ_22multiversx_sc_scenario3api7impl_vh12vm_hooks_api10VMHooksApiNtNtB11_9debug_api15DebugApiBackendEENtNtNtNtNtCslPMlHj3qn2H_13multiversx_sc5types7managed7wrapped16managed_vec_item14ManagedVecItem16into_byte_writeruNCINvXs1B_B9_INtB9_23AssetExtendedConfigViewBW_EB2U_16into_byte_writeruNCNvMs2_NtB2Y_11managed_vecINtB61_10ManagedVecBW_B4X_E4push0E0Es9_0Cs8iyf5MSkCde_5tests
FNDA:0,_RNCINvXs1J_Cs2eHPTk3TAlu_14common_structsINtB9_11AssetConfigINtNtNtNtCs1rODQd5oASQ_22multiversx_sc_scenario3api7impl_vh12vm_hooks_api10VMHooksApiNtNtB11_9debug_api15DebugApiBackendEENtNtNtNtNtCslPMlHj3qn2H_13multiversx_sc5types7managed7wrapped16managed_vec_item14ManagedVecItem16into_byte_writeruNCINvXs1B_B9_INtB9_23AssetExtendedConfigViewBW_EB2U_16into_byte_writeruNCNvMs2_NtB2Y_11managed_vecINtB61_10ManagedVecBW_B4X_E4push0E0Es_0Cs8iyf5MSkCde_5tests
FNDA:0,_RNCINvXs1J_Cs2eHPTk3TAlu_14common_structsINtB9_11AssetConfigINtNtNtNtCs1rODQd5oASQ_22multiversx_sc_scenario3api7impl_vh12vm_hooks_api10VMHooksApiNtNtB11_9debug_api15DebugApiBackendEENtNtNtNtNtCslPMlHj3qn2H_13multiversx_sc5types7managed7wrapped16managed_vec_item14ManagedVecItem16into_byte_writeruNCINvXs1B_B9_INtB9_23AssetExtendedConfigViewBW_EB2U_16into_byte_writeruNCNvMs2_NtB2Y_11managed_vecINtB61_10ManagedVecBW_B4X_E4push0E0Esa_0Cs8iyf5MSkCde_5tests
FNDA:0,_RNCINvXs1J_Cs2eHPTk3TAlu_14common_structsINtB9_11AssetConfigINtNtNtNtCs1rODQd5oASQ_22multiversx_sc_scenario3api7impl_vh12vm_hooks_api10VMHooksApiNtNtB11_9debug_api15DebugApiBackendEENtNtNtNtNtCslPMlHj3qn2H_13multiversx_sc5types7managed7wrapped16managed_vec_item14ManagedVecItem16into_byte_writeruNCINvXs1B_B9_INtB9_23AssetExtendedConfigViewBW_EB2U_16into_byte_writeruNCNvMs2_NtB2Y_11managed_vecINtB61_10ManagedVecBW_B4X_E4push0E0Esb_0Cs8iyf5MSkCde_5tests
FNDA:0,_RNCINvXs1J_Cs2eHPTk3TAlu_14common_structsINtB9_11AssetConfigINtNtNtNtCs1rODQd5oASQ_22multiversx_sc_scenario3api7impl_vh12vm_hooks_api10VMHooksApiNtNtB11_9debug_api15DebugApiBackendEENtNtNtNtNtCslPMlHj3qn2H_13multiversx_sc5types7managed7wrapped16managed_vec_item14ManagedVecItem16into_byte_writeruNCINvXs1B_B9_INtB9_23AssetExtendedConfigViewBW_EB2U_16into_byte_writeruNCNvMs2_NtB2Y_11managed_vecINtB61_10ManagedVecBW_B4X_E4push0E0Esc_0Cs8iyf5MSkCde_5tests
FNDA:10,_RNCINvXs1S_Cs2eHPTk3TAlu_14common_structsINtB9_15AccountPositionINtNtNtNtCs1rODQd5oASQ_22multiversx_sc_scenario3api7impl_vh12vm_hooks_api10VMHooksApiNtNtB15_9debug_api15DebugApiBackendEENtNtNtNtNtCslPMlHj3qn2H_13multiversx_sc5types7managed7wrapped16managed_vec_item14ManagedVecItem16from_byte_readerNCNvMs2_NtB32_11managed_vecINtB4V_10ManagedVecB10_BD_E7try_get0E0Cs8iyf5MSkCde_5tests
FNDA:10,_RNCINvXs1S_Cs2eHPTk3TAlu_14common_structsINtB9_15AccountPositionINtNtNtNtCs1rODQd5oASQ_22multiversx_sc_scenario3api7impl_vh12vm_hooks_api10VMHooksApiNtNtB15_9debug_api15DebugApiBackendEENtNtNtNtNtCslPMlHj3qn2H_13multiversx_sc5types7managed7wrapped16managed_vec_item14ManagedVecItem16from_byte_readerNCNvMs2_NtB32_11managed_vecINtB4V_10ManagedVecB10_BD_E7try_get0Es0_0Cs8iyf5MSkCde_5tests
FNDA:10,_RNCINvXs1S_Cs2eHPTk3TAlu_14common_structsINtB9_15AccountPositionINtNtNtNtCs1rODQd5oASQ_22multiversx_sc_scenario3api7impl_vh12vm_hooks_api10VMHooksApiNtNtB15_9debug_api15DebugApiBackendEENtNtNtNtNtCslPMlHj3qn2H_13multiversx_sc5types7managed7wrapped16managed_vec_item14ManagedVecItem16from_byte_readerNCNvMs2_NtB32_11managed_vecINtB4V_10ManagedVecB10_BD_E7try_get0Es1_0Cs8iyf5MSkCde_5tests
FNDA:10,_RNCINvXs1S_Cs2eHPTk3TAlu_14common_structsINtB9_15AccountPositionINtNtNtNtCs1rODQd5oASQ_22multiversx_sc_scenario3api7impl_vh12vm_hooks_api10VMHooksApiNtNtB15_9debug_api15DebugApiBackendEENtNtNtNtNtCslPMlHj3qn2H_13multiversx_sc5types7managed7wrapped16managed_vec_item14ManagedVecItem16from_byte_readerNCNvMs2_NtB32_11managed_vecINtB4V_10ManagedVecB10_BD_E7try_get0Es2_0Cs8iyf5MSkCde_5tests
FNDA:10,_RNCINvXs1S_Cs2eHPTk3TAlu_14common_structsINtB9_15AccountPositionINtNtNtNtCs1rODQd5oASQ_22multiversx_sc_scenario3api7impl_vh12vm_hooks_api10VMHooksApiNtNtB15_9debug_api15DebugApiBackendEENtNtNtNtNtCslPMlHj3qn2H_13multiversx_sc5types7managed7wrapped16managed_vec_item14ManagedVecItem16from_byte_readerNCNvMs2_NtB32_11managed_vecINtB4V_10ManagedVecB10_BD_E7try_get0Es3_0Cs8iyf5MSkCde_5tests
FNDA:10,_RNCINvXs1S_Cs2eHPTk3TAlu_14common_structsINtB9_15AccountPositionINtNtNtNtCs1rODQd5oASQ_22multiversx_sc_scenario3api7impl_vh12vm_hooks_api10VMHooksApiNtNtB15_9debug_api15DebugApiBackendEENtNtNtNtNtCslPMlHj3qn2H_13multiversx_sc5types7managed7wrapped16managed_vec_item14ManagedVecItem16from_byte_readerNCNvMs2_NtB32_11managed_vecINtB4V_10ManagedVecB10_BD_E7try_get0Es4_0Cs8iyf5MSkCde_5tests
FNDA:10,_RNCINvXs1S_Cs2eHPTk3TAlu_14common_structsINtB9_15AccountPositionINtNtNtNtCs1rODQd5oASQ_22multiversx_sc_scenario3api7impl_vh12vm_hooks_api10VMHooksApiNtNtB15_9debug_api15DebugApiBackendEENtNtNtNtNtCslPMlHj3qn2H_13multiversx_sc5types7managed7wrapped16managed_vec_item14ManagedVecItem16from_byte_readerNCNvMs2_NtB32_11managed_vecINtB4V_10ManagedVecB10_BD_E7try_get0Es5_0Cs8iyf5MSkCde_5tests
FNDA:10,_RNCINvXs1S_Cs2eHPTk3TAlu_14common_structsINtB9_15AccountPositionINtNtNtNtCs1rODQd5oASQ_22multiversx_sc_scenario3api7impl_vh12vm_hooks_api10VMHooksApiNtNtB15_9debug_api15DebugApiBackendEENtNtNtNtNtCslPMlHj3qn2H_13multiversx_sc5types7managed7wrapped16managed_vec_item14ManagedVecItem16from_byte_readerNCNvMs2_NtB32_11managed_vecINtB4V_10ManagedVecB10_BD_E7try_get0Es6_0Cs8iyf5MSkCde_5tests
FNDA:10,_RNCINvXs1S_Cs2eHPTk3TAlu_14common_structsINtB9_15AccountPositionINtNtNtNtCs1rODQd5oASQ_22multiversx_sc_scenario3api7impl_vh12vm_hooks_api10VMHooksApiNtNtB15_9debug_api15DebugApiBackendEENtNtNtNtNtCslPMlHj3qn2H_13multiversx_sc5types7managed7wrapped16managed_vec_item14ManagedVecItem16from_byte_readerNCNvMs2_NtB32_11managed_vecINtB4V_10ManagedVecB10_BD_E7try_get0Es7_0Cs8iyf5MSkCde_5tests
FNDA:10,_RNCINvXs1S_Cs2eHPTk3TAlu_14common_structsINtB9_15AccountPositionINtNtNtNtCs1rODQd5oASQ_22multiversx_sc_scenario3api7impl_vh12vm_hooks_api10VMHooksApiNtNtB15_9debug_api15DebugApiBackendEENtNtNtNtNtCslPMlHj3qn2H_13multiversx_sc5types7managed7wrapped16managed_vec_item14ManagedVecItem16from_byte_readerNCNvMs2_NtB32_11managed_vecINtB4V_10ManagedVecB10_BD_E7try_get0Es_0Cs8iyf5MSkCde_5tests
FNDA:80,_RNCINvXs1S_Cs2eHPTk3TAlu_14common_structsINtB9_15AccountPositionINtNtNtNtCs1rODQd5oASQ_22multiversx_sc_scenario3api7impl_vh12vm_hooks_api10VMHooksApiNtNtB15_9debug_api15DebugApiBackendEENtNtNtNtNtCslPMlHj3qn2H_13multiversx_sc5types7managed7wrapped16managed_vec_item14ManagedVecItem16from_byte_readerNCNvXs0_NtB32_22managed_vec_owned_iterINtB4V_23ManagedVecOwnedIteratorB10_BD_ENtNtNtNtCslGS7pEIChKc_4core4iter6traits8iterator8Iterator4next0E0Cs8iyf5MSkCde_5tests
FNDA:80,_RNCINvXs1S_Cs2eHPTk3TAlu_14common_structsINtB9_15AccountPositionINtNtNtNtCs1rODQd5oASQ_22multiversx_sc_scenario3api7impl_vh12vm_hooks_api10VMHooksApiNtNtB15_9debug_api15DebugApiBackendEENtNtNtNtNtCslPMlHj3qn2H_13multiversx_sc5types7managed7wrapped16managed_vec_item14ManagedVecItem16from_byte_readerNCNvXs0_NtB32_22managed_vec_owned_iterINtB4V_23ManagedVecOwnedIteratorB10_BD_ENtNtNtNtCslGS7pEIChKc_4core4iter6traits8iterator8Iterator4next0Es0_0Cs8iyf5MSkCde_5tests
FNDA:80,_RNCINvXs1S_Cs2eHPTk3TAlu_14common_structsINtB9_15AccountPositionINtNtNtNtCs1rODQd5oASQ_22multiversx_sc_scenario3api7impl_vh12vm_hooks_api10VMHooksApiNtNtB15_9debug_api15DebugApiBackendEENtNtNtNtNtCslPMlHj3qn2H_13multiversx_sc5types7managed7wrapped16managed_vec_item14ManagedVecItem16from_byte_readerNCNvXs0_NtB32_22managed_vec_owned_iterINtB4V_23ManagedVecOwnedIteratorB10_BD_ENtNtNtNtCslGS7pEIChKc_4core4iter6traits8iterator8Iterator4next0Es1_0Cs8iyf5MSkCde_5tests
FNDA:80,_RNCINvXs1S_Cs2eHPTk3TAlu_14common_structsINtB9_15AccountPositionINtNtNtNtCs1rODQd5oASQ_22multiversx_sc_scenario3api7impl_vh12vm_hooks_api10VMHooksApiNtNtB15_9debug_api15DebugApiBackendEENtNtNtNtNtCslPMlHj3qn2H_13multiversx_sc5types7managed7wrapped16managed_vec_item14ManagedVecItem16from_byte_readerNCNvXs0_NtB32_22managed_vec_owned_iterINtB4V_23ManagedVecOwnedIteratorB10_BD_ENtNtNtNtCslGS7pEIChKc_4core4iter6traits8iterator8Iterator4next0Es2_0Cs8iyf5MSkCde_5tests
FNDA:80,_RNCINvXs1S_Cs2eHPTk3TAlu_14common_structsINtB9_15AccountPositionINtNtNtNtCs1rODQd5oASQ_22multiversx_sc_scenario3api7impl_vh12vm_hooks_api10VMHooksApiNtNtB15_9debug_api15DebugApiBackendEENtNtNtNtNtCslPMlHj3qn2H_13multiversx_sc5types7managed7wrapped16managed_vec_item14ManagedVecItem16from_byte_readerNCNvXs0_NtB32_22managed_vec_owned_iterINtB4V_23ManagedVecOwnedIteratorB10_BD_ENtNtNtNtCslGS7pEIChKc_4core4iter6traits8iterator8Iterator4next0Es3_0Cs8iyf5MSkCde_5tests
FNDA:80,_RNCINvXs1S_Cs2eHPTk3TAlu_14common_structsINtB9_15AccountPositionINtNtNtNtCs1rODQd5oASQ_22multiversx_sc_scenario3api7impl_vh12vm_hooks_api10VMHooksApiNtNtB15_9debug_api15DebugApiBackendEENtNtNtNtNtCslPMlHj3qn2H_13multiversx_sc5types7managed7wrapped16managed_vec_item14ManagedVecItem16from_byte_readerNCNvXs0_NtB32_22managed_vec_owned_iterINtB4V_23ManagedVecOwnedIteratorB10_BD_ENtNtNtNtCslGS7pEIChKc_4core4iter6traits8iterator8Iterator4next0Es4_0Cs8iyf5MSkCde_5tests
FNDA:80,_RNCINvXs1S_Cs2eHPTk3TAlu_14common_structsINtB9_15AccountPositionINtNtNtNtCs1rODQd5oASQ_22multiversx_sc_scenario3api7impl_vh12vm_hooks_api10VMHooksApiNtNtB15_9debug_api15DebugApiBackendEENtNtNtNtNtCslPMlHj3qn2H_13multiversx_sc5types7managed7wrapped16managed_vec_item14ManagedVecItem16from_byte_readerNCNvXs0_NtB32_22managed_vec_owned_iterINtB4V_23ManagedVecOwnedIteratorB10_BD_ENtNtNtNtCslGS7pEIChKc_4core4iter6traits8iterator8Iterator4next0Es5_0Cs8iyf5MSkCde_5tests
FNDA:80,_RNCINvXs1S_Cs2eHPTk3TAlu_14common_structsINtB9_15AccountPositionINtNtNtNtCs1rODQd5oASQ_22multiversx_sc_scenario3api7impl_vh12vm_hooks_api10VMHooksApiNtNtB15_9debug_api15DebugApiBackendEENtNtNtNtNtCslPMlHj3qn2H_13multiversx_sc5types7managed7wrapped16managed_vec_item14ManagedVecItem16from_byte_readerNCNvXs0_NtB32_22managed_vec_owned_iterINtB4V_23ManagedVecOwnedIteratorB10_BD_ENtNtNtNtCslGS7pEIChKc_4core4iter6traits8iterator8Iterator4next0Es6_0Cs8iyf5MSkCde_5tests
FNDA:80,_RNCINvXs1S_Cs2eHPTk3TAlu_14common_structsINtB9_15AccountPositionINtNtNtNtCs1rODQd5oASQ_22multiversx_sc_scenario3api7impl_vh12vm_hooks_api10VMHooksApiNtNtB15_9debug_api15DebugApiBackendEENtNtNtNtNtCslPMlHj3qn2H_13multiversx_sc5types7managed7wrapped16managed_vec_item14ManagedVecItem16from_byte_readerNCNvXs0_NtB32_22managed_vec_owned_iterINtB4V_23ManagedVecOwnedIteratorB10_BD_ENtNtNtNtCslGS7pEIChKc_4core4iter6traits8iterator8Iterator4next0Es7_0Cs8iyf5MSkCde_5tests
FNDA:80,_RNCINvXs1S_Cs2eHPTk3TAlu_14common_structsINtB9_15AccountPositionINtNtNtNtCs1rODQd5oASQ_22multiversx_sc_scenario3api7impl_vh12vm_hooks_api10VMHooksApiNtNtB15_9debug_api15DebugApiBackendEENtNtNtNtNtCslPMlHj3qn2H_13multiversx_sc5types7managed7wrapped16managed_vec_item14ManagedVecItem16from_byte_readerNCNvXs0_NtB32_22managed_vec_owned_iterINtB4V_23ManagedVecOwnedIteratorB10_BD_ENtNtNtNtCslGS7pEIChKc_4core4iter6traits8iterator8Iterator4next0Es_0Cs8iyf5MSkCde_5tests
FNDA:0,_RNCINvXs1S_Cs2eHPTk3TAlu_14common_structsINtB9_15AccountPositionINtNtNtNtCs1rODQd5oASQ_22multiversx_sc_scenario3api7impl_vh12vm_hooks_api10VMHooksApiNtNtB15_9debug_api15DebugApiBackendEENtNtNtNtNtCslPMlHj3qn2H_13multiversx_sc5types7managed7wrapped16managed_vec_item14ManagedVecItem16into_byte_writerINtNtCslGS7pEIChKc_4core6result6ResultuNtNtNtNtB38_3api13managed_types18managed_buffer_api17InvalidSliceErrorENCNvMs2_NtB32_11managed_vecINtB6H_10ManagedVecB10_BD_E3set0E0Cs8iyf5MSkCde_5tests
FNDA:0,_RNCINvXs1S_Cs2eHPTk3TAlu_14common_structsINtB9_15AccountPositionINtNtNtNtCs1rODQd5oASQ_22multiversx_sc_scenario3api7impl_vh12vm_hooks_api10VMHooksApiNtNtB15_9debug_api15DebugApiBackendEENtNtNtNtNtCslPMlHj3qn2H_13multiversx_sc5types7managed7wrapped16managed_vec_item14ManagedVecItem16into_byte_writerINtNtCslGS7pEIChKc_4core6result6ResultuNtNtNtNtB38_3api13managed_types18managed_buffer_api17InvalidSliceErrorENCNvMs2_NtB32_11managed_vecINtB6H_10ManagedVecB10_BD_E3set0Es0_0Cs8iyf5MSkCde_5tests
FNDA:0,_RNCINvXs1S_Cs2eHPTk3TAlu_14common_structsINtB9_15AccountPositionINtNtNtNtCs1rODQd5oASQ_22multiversx_sc_scenario3api7impl_vh12vm_hooks_api10VMHooksApiNtNtB15_9debug_api15DebugApiBackendEENtNtNtNtNtCslPMlHj3qn2H_13multiversx_sc5types7managed7wrapped16managed_vec_item14ManagedVecItem16into_byte_writerINtNtCslGS7pEIChKc_4core6result6ResultuNtNtNtNtB38_3api13managed_types18managed_buffer_api17InvalidSliceErrorENCNvMs2_NtB32_11managed_vecINtB6H_10ManagedVecB10_BD_E3set0Es1_0Cs8iyf5MSkCde_5tests
FNDA:0,_RNCINvXs1S_Cs2eHPTk3TAlu_14common_structsINtB9_15AccountPositionINtNtNtNtCs1rODQd5oASQ_22multiversx_sc_scenario3api7impl_vh12vm_hooks_api10VMHooksApiNtNtB15_9debug_api15DebugApiBackendEENtNtNtNtNtCslPMlHj3qn2H_13multiversx_sc5types7managed7wrapped16managed_vec_item14ManagedVecItem16into_byte_writerINtNtCslGS7pEIChKc_4core6result6ResultuNtNtNtNtB38_3api13managed_types18managed_buffer_api17InvalidSliceErrorENCNvMs2_NtB32_11managed_vecINtB6H_10ManagedVecB10_BD_E3set0Es2_0Cs8iyf5MSkCde_5tests
FNDA:0,_RNCINvXs1S_Cs2eHPTk3TAlu_14common_structsINtB9_15AccountPositionINtNtNtNtCs1rODQd5oASQ_22multiversx_sc_scenario3api7impl_vh12vm_hooks_api10VMHooksApiNtNtB15_9debug_api15DebugApiBackendEENtNtNtNtNtCslPMlHj3qn2H_13multiversx_sc5types7managed7wrapped16managed_vec_item14ManagedVecItem16into_byte_writerINtNtCslGS7pEIChKc_4core6result6ResultuNtNtNtNtB38_3api13managed_types18managed_buffer_api17InvalidSliceErrorENCNvMs2_NtB32_11managed_vecINtB6H_10ManagedVecB10_BD_E3set0Es3_0Cs8iyf5MSkCde_5tests
FNDA:0,_RNCINvXs1S_Cs2eHPTk3TAlu_14common_structsINtB9_15AccountPositionINtNtNtNtCs1rODQd5oASQ_22multiversx_sc_scenario3api7impl_vh12vm_hooks_api10VMHooksApiNtNtB15_9debug_api15DebugApiBackendEENtNtNtNtNtCslPMlHj3qn2H_13multiversx_sc5types7managed7wrapped16managed_vec_item14ManagedVecItem16into_byte_writerINtNtCslGS7pEIChKc_4core6result6ResultuNtNtNtNtB38_3api13managed_types18managed_buffer_api17InvalidSliceErrorENCNvMs2_NtB32_11managed_vecINtB6H_10ManagedVecB10_BD_E3set0Es4_0Cs8iyf5MSkCde_5tests
FNDA:0,_RNCINvXs1S_Cs2eHPTk3TAlu_14common_structsINtB9_15AccountPositionINtNtNtNtCs1rODQd5oASQ_22multiversx_sc_scenario3api7impl_vh12vm_hooks_api10VMHooksApiNtNtB15_9debug_api15DebugApiBackendEENtNtNtNtNtCslPMlHj3qn2H_13multiversx_sc5types7managed7wrapped16managed_vec_item14ManagedVecItem16into_byte_writerINtNtCslGS7pEIChKc_4core6result6ResultuNtNtNtNtB38_3api13managed_types18managed_buffer_api17InvalidSliceErrorENCNvMs2_NtB32_11managed_vecINtB6H_10ManagedVecB10_BD_E3set0Es5_0Cs8iyf5MSkCde_5tests
FNDA:0,_RNCINvXs1S_Cs2eHPTk3TAlu_14common_structsINtB9_15AccountPositionINtNtNtNtCs1rODQd5oASQ_22multiversx_sc_scenario3api7impl_vh12vm_hooks_api10VMHooksApiNtNtB15_9debug_api15DebugApiBackendEENtNtNtNtNtCslPMlHj3qn2H_13multiversx_sc5types7managed7wrapped16managed_vec_item14ManagedVecItem16into_byte_writerINtNtCslGS7pEIChKc_4core6result6ResultuNtNtNtNtB38_3api13managed_types18managed_buffer_api17InvalidSliceErrorENCNvMs2_NtB32_11managed_vecINtB6H_10ManagedVecB10_BD_E3set0Es6_0Cs8iyf5MSkCde_5tests
FNDA:0,_RNCINvXs1S_Cs2eHPTk3TAlu_14common_structsINtB9_15AccountPositionINtNtNtNtCs1rODQd5oASQ_22multiversx_sc_scenario3api7impl_vh12vm_hooks_api10VMHooksApiNtNtB15_9debug_api15DebugApiBackendEENtNtNtNtNtCslPMlHj3qn2H_13multiversx_sc5types7managed7wrapped16managed_vec_item14ManagedVecItem16into_byte_writerINtNtCslGS7pEIChKc_4core6result6ResultuNtNtNtNtB38_3api13managed_types18managed_buffer_api17InvalidSliceErrorENCNvMs2_NtB32_11managed_vecINtB6H_10ManagedVecB10_BD_E3set0Es7_0Cs8iyf5MSkCde_5tests
FNDA:0,_RNCINvXs1S_Cs2eHPTk3TAlu_14common_structsINtB9_15AccountPositionINtNtNtNtCs1rODQd5oASQ_22multiversx_sc_scenario3api7impl_vh12vm_hooks_api10VMHooksApiNtNtB15_9debug_api15DebugApiBackendEENtNtNtNtNtCslPMlHj3qn2H_13multiversx_sc5types7managed7wrapped16managed_vec_item14ManagedVecItem16into_byte_writerINtNtCslGS7pEIChKc_4core6result6ResultuNtNtNtNtB38_3api13managed_types18managed_buffer_api17InvalidSliceErrorENCNvMs2_NtB32_11managed_vecINtB6H_10ManagedVecB10_BD_E3set0Es_0Cs8iyf5MSkCde_5tests
FNDA:840,_RNCINvXs1S_Cs2eHPTk3TAlu_14common_structsINtB9_15AccountPositionINtNtNtNtCs1rODQd5oASQ_22multiversx_sc_scenario3api7impl_vh12vm_hooks_api10VMHooksApiNtNtB15_9debug_api15DebugApiBackendEENtNtNtNtNtCslPMlHj3qn2H_13multiversx_sc5types7managed7wrapped16managed_vec_item14ManagedVecItem16into_byte_writeruNCNvMs2_NtB32_11managed_vecINtB4W_10ManagedVecB10_BD_E4push0E0Cs8iyf5MSkCde_5tests
FNDA:840,_RNCINvXs1S_Cs2eHPTk3TAlu_14common_structsINtB9_15AccountPositionINtNtNtNtCs1rODQd5oASQ_22multiversx_sc_scenario3api7impl_vh12vm_hooks_api10VMHooksApiNtNtB15_9debug_api15DebugApiBackendEENtNtNtNtNtCslPMlHj3qn2H_13multiversx_sc5types7managed7wrapped16managed_vec_item14ManagedVecItem16into_byte_writeruNCNvMs2_NtB32_11managed_vecINtB4W_10ManagedVecB10_BD_E4push0Es0_0Cs8iyf5MSkCde_5tests
FNDA:840,_RNCINvXs1S_Cs2eHPTk3TAlu_14common_structsINtB9_15AccountPositionINtNtNtNtCs1rODQd5oASQ_22multiversx_sc_scenario3api7impl_vh12vm_hooks_api10VMHooksApiNtNtB15_9debug_api15DebugApiBackendEENtNtNtNtNtCslPMlHj3qn2H_13multiversx_sc5types7managed7wrapped16managed_vec_item14ManagedVecItem16into_byte_writeruNCNvMs2_NtB32_11managed_vecINtB4W_10ManagedVecB10_BD_E4push0Es1_0Cs8iyf5MSkCde_5tests
FNDA:840,_RNCINvXs1S_Cs2eHPTk3TAlu_14common_structsINtB9_15AccountPositionINtNtNtNtCs1rODQd5oASQ_22multiversx_sc_scenario3api7impl_vh12vm_hooks_api10VMHooksApiNtNtB15_9debug_api15DebugApiBackendEENtNtNtNtNtCslPMlHj3qn2H_13multiversx_sc5types7managed7wrapped16managed_vec_item14ManagedVecItem16into_byte_writeruNCNvMs2_NtB32_11managed_vecINtB4W_10ManagedVecB10_BD_E4push0Es2_0Cs8iyf5MSkCde_5tests
FNDA:840,_RNCINvXs1S_Cs2eHPTk3TAlu_14common_structsINtB9_15AccountPositionINtNtNtNtCs1rODQd5oASQ_22multiversx_sc_scenario3api7impl_vh12vm_hooks_api10VMHooksApiNtNtB15_9debug_api15DebugApiBackendEENtNtNtNtNtCslPMlHj3qn2H_13multiversx_sc5types7managed7wrapped16managed_vec_item14ManagedVecItem16into_byte_writeruNCNvMs2_NtB32_11managed_vecINtB4W_10ManagedVecB10_BD_E4push0Es3_0Cs8iyf5MSkCde_5tests
FNDA:840,_RNCINvXs1S_Cs2eHPTk3TAlu_14common_structsINtB9_15AccountPositionINtNtNtNtCs1rODQd5oASQ_22multiversx_sc_scenario3api7impl_vh12vm_hooks_api10VMHooksApiNtNtB15_9debug_api15DebugApiBackendEENtNtNtNtNtCslPMlHj3qn2H_13multiversx_sc5types7managed7wrapped16managed_vec_item14ManagedVecItem16into_byte_writeruNCNvMs2_NtB32_11managed_vecINtB4W_10ManagedVecB10_BD_E4push0Es4_0Cs8iyf5MSkCde_5tests
FNDA:840,_RNCINvXs1S_Cs2eHPTk3TAlu_14common_structsINtB9_15AccountPositionINtNtNtNtCs1rODQd5oASQ_22multiversx_sc_scenario3api7impl_vh12vm_hooks_api10VMHooksApiNtNtB15_9debug_api15DebugApiBackendEENtNtNtNtNtCslPMlHj3qn2H_13multiversx_sc5types7managed7wrapped16managed_vec_item14ManagedVecItem16into_byte_writeruNCNvMs2_NtB32_11managed_vecINtB4W_10ManagedVecB10_BD_E4push0Es5_0Cs8iyf5MSkCde_5tests
FNDA:840,_RNCINvXs1S_Cs2eHPTk3TAlu_14common_structsINtB9_15AccountPositionINtNtNtNtCs1rODQd5oASQ_22multiversx_sc_scenario3api7impl_vh12vm_hooks_api10VMHooksApiNtNtB15_9debug_api15DebugApiBackendEENtNtNtNtNtCslPMlHj3qn2H_13multiversx_sc5types7managed7wrapped16managed_vec_item14ManagedVecItem16into_byte_writeruNCNvMs2_NtB32_11managed_vecINtB4W_10ManagedVecB10_BD_E4push0Es6_0Cs8iyf5MSkCde_5tests
FNDA:840,_RNCINvXs1S_Cs2eHPTk3TAlu_14common_structsINtB9_15AccountPositionINtNtNtNtCs1rODQd5oASQ_22multiversx_sc_scenario3api7impl_vh12vm_hooks_api10VMHooksApiNtNtB15_9debug_api15DebugApiBackendEENtNtNtNtNtCslPMlHj3qn2H_13multiversx_sc5types7managed7wrapped16managed_vec_item14ManagedVecItem16into_byte_writeruNCNvMs2_NtB32_11managed_vecINtB4W_10ManagedVecB10_BD_E4push0Es7_0Cs8iyf5MSkCde_5tests
FNDA:840,_RNCINvXs1S_Cs2eHPTk3TAlu_14common_structsINtB9_15AccountPositionINtNtNtNtCs1rODQd5oASQ_22multiversx_sc_scenario3api7impl_vh12vm_hooks_api10VMHooksApiNtNtB15_9debug_api15DebugApiBackendEENtNtNtNtNtCslPMlHj3qn2H_13multiversx_sc5types7managed7wrapped16managed_vec_item14ManagedVecItem16into_byte_writeruNCNvMs2_NtB32_11managed_vecINtB4W_10ManagedVecB10_BD_E4push0Es_0Cs8iyf5MSkCde_5tests
FNDA:1938,_RNvMCs2eHPTk3TAlu_14common_structsINtB2_15AccountPositionINtNtNtNtCs1rODQd5oASQ_22multiversx_sc_scenario3api7impl_vh12vm_hooks_api10VMHooksApiNtNtBY_9debug_api15DebugApiBackendEE16get_total_amountCs8iyf5MSkCde_5tests
FNDA:110,_RNvMCs2eHPTk3TAlu_14common_structsINtB2_15AccountPositionINtNtNtNtCs1rODQd5oASQ_22multiversx_sc_scenario3api7impl_vh12vm_hooks_api10VMHooksApiNtNtBY_9debug_api15DebugApiBackendEE3newCs8iyf5MSkCde_5tests
FNF:87
FNH:36
DA:6,0
DA:7,961
DA:18,0
DA:20,3720
DA:28,0
DA:29,10240
DA:44,110
DA:45,110
DA:46,110
DA:47,110
DA:48,110
DA:49,110
DA:50,110
DA:51,110
DA:52,110
DA:53,110
DA:54,110
DA:55,110
DA:56,110
DA:57,110
DA:58,110
DA:59,110
DA:60,110
DA:61,110
DA:62,110
DA:63,110
DA:64,110
DA:65,110
DA:66,110
DA:67,110
DA:68,110
DA:70,1938
DA:71,1938
DA:72,1938
DA:75,0
DA:76,1316
DA:110,0
DA:111,0
DA:119,0
DA:120,94
DA:129,0
DA:130,376
DA:136,0
DA:137,295
DA:144,0
DA:146,2258
DA:154,0
DA:156,604
DA:166,0
DA:168,604
DA:177,0
DA:179,604
DA:189,0
DA:190,604
DA:202,0
DA:203,0
DA:212,0
DA:213,604
BRF:0
BRH:0
LF:113
LH:62
end_of_record
SF:/Users/mihaieremia/GitHub/rs-lending/flash_mock/meta/src/main.rs
FN:1,_RNvCslbUm63bd4pA_15flash_mock_meta4main
FNDA:0,_RNvCslbUm63bd4pA_15flash_mock_meta4main
FNF:1
FNH:0
DA:1,0
DA:2,0
DA:3,0
BRF:0
BRH:0
LF:3
LH:0
end_of_record
SF:/Users/mihaieremia/GitHub/rs-lending/flash_mock/src/lib.rs
FN:18,_RNvYpNtCsljRk2rVw48v_10flash_mock9FlashMock5flashB5_
FN:33,_RNvYpNtCsljRk2rVw48v_10flash_mock9FlashMock16flash_repay_someB5_
FN:8,_RNvYpNtCsljRk2rVw48v_10flash_mock16EndpointWrappers9call_initB5_
FN:8,_RNvYpNtCsljRk2rVw48v_10flash_mock16EndpointWrappers12call_upgradeB5_
FN:8,_RNvYpNtCsljRk2rVw48v_10flash_mock16EndpointWrappers10call_flashB5_
FN:8,_RNvYpNtCsljRk2rVw48v_10flash_mock16EndpointWrappers21call_flash_repay_someB5_
FN:8,_RNvYpNtCsljRk2rVw48v_10flash_mock16EndpointWrappers19call_flash_no_repayB5_
FN:8,_RNvYpNtCsljRk2rVw48v_10flash_mock16EndpointWrappers4callB5_
FN:8,_RNvYpNtCsljRk2rVw48v_10flash_mock16EndpointWrappers17callback_selectorB5_
FN:8,_RNvYpNtCsljRk2rVw48v_10flash_mock16EndpointWrappers8callbackB5_
FN:8,_RNvXs1_CsljRk2rVw48v_10flash_mockNtB5_11AbiProviderNtNtNtCslPMlHj3qn2H_13multiversx_sc13contract_base21contract_abi_provider19ContractAbiProvider3abi
FN:8,_RNvXINICsljRk2rVw48v_10flash_mocks5_0pEINtB5_11ContractObjpENtNtNtCslPMlHj3qn2H_13multiversx_sc13contract_base17callable_contract16CallableContract4callB5_
FN:8,_RINvCsljRk2rVw48v_10flash_mock12contract_objpEB2_
FN:8,_RINvXs6_CsljRk2rVw48v_10flash_mockNtB6_15ContractBuilderNtNtNtCslPMlHj3qn2H_13multiversx_sc13contract_base17callable_contract23CallableContractBuilder16new_contract_objpEB6_
FN:8,_RINvNtCsljRk2rVw48v_10flash_mock19___wasm__endpoints__4initpEB4_
FN:8,_RINvNtCsljRk2rVw48v_10flash_mock19___wasm__endpoints__7upgradepEB4_
FN:8,_RINvNtCsljRk2rVw48v_10flash_mock19___wasm__endpoints__5flashpEB4_
FN:8,_RINvNtCsljRk2rVw48v_10flash_mock19___wasm__endpoints__16flash_repay_somepEB4_
FN:8,_RINvNtCsljRk2rVw48v_10flash_mock19___wasm__endpoints__14flash_no_repaypEB4_
FN:8,_RINvNtCsljRk2rVw48v_10flash_mock19___wasm__endpoints__8callBackpEB4_
FN:8,_RNvYpNtCsljRk2rVw48v_10flash_mock10ProxyTrait4initB5_
FN:8,_RNvYpNtCsljRk2rVw48v_10flash_mock10ProxyTrait7upgradeB5_
FN:8,_RNvYpNtCsljRk2rVw48v_10flash_mock10ProxyTrait5flashB5_
FN:8,_RNvYpNtCsljRk2rVw48v_10flash_mock10ProxyTrait16flash_repay_someB5_
FN:8,_RNvYpNtCsljRk2rVw48v_10flash_mock10ProxyTrait14flash_no_repayB5_
FN:8,_RNvXINICsljRk2rVw48v_10flash_mocks7_0pEINtB5_5ProxypENtNtNtCslPMlHj3qn2H_13multiversx_sc13contract_base14proxy_obj_base12ProxyObjBase19extract_opt_addressB5_
FN:8,_RNvXINICsljRk2rVw48v_10flash_mocks7_0pEINtB5_5ProxypENtNtNtCslPMlHj3qn2H_13multiversx_sc13contract_base14proxy_obj_base12ProxyObjBase16extract_proxy_toB5_
FN:8,_RNvXINICsljRk2rVw48v_10flash_mocks8_0pEINtB5_5ProxypENtNtNtCslPMlHj3qn2H_13multiversx_sc13contract_base14proxy_obj_base11ProxyObjNew13new_proxy_objB5_
FN:8,_RNvXINICsljRk2rVw48v_10flash_mocks8_0pEINtB5_5ProxypENtNtNtCslPMlHj3qn2H_13multiversx_sc13contract_base14proxy_obj_base11ProxyObjNew8contractB5_
FN:8,_RNvXINICsljRk2rVw48v_10flash_mocks9_0pEINtB5_7ProxyTopENtNtNtCslPMlHj3qn2H_13multiversx_sc13contract_base14proxy_obj_base12ProxyObjBase19extract_opt_addressB5_
FN:8,_RNvXINICsljRk2rVw48v_10flash_mocks9_0pEINtB5_7ProxyTopENtNtNtCslPMlHj3qn2H_13multiversx_sc13contract_base14proxy_obj_base12ProxyObjBase15extract_addressB5_
FN:8,_RNvXINICsljRk2rVw48v_10flash_mocks9_0pEINtB5_7ProxyTopENtNtNtCslPMlHj3qn2H_13multiversx_sc13contract_base14proxy_obj_base12ProxyObjBase16extract_proxy_toB5_
FN:8,_RINvXs6_CslXHS5ClhP2t_10flash_mockNtB6_15ContractBuilderNtNtNtCslPMlHj3qn2H_13multiversx_sc13contract_base17callable_contract23CallableContractBuilder16new_contract_objINtNtNtNtCs1rODQd5oASQ_22multiversx_sc_scenario3api7impl_vh12vm_hooks_api10VMHooksApiNtNtB2L_9debug_api15DebugApiBackendEECs8iyf5MSkCde_5tests
FN:8,_RNvXs5_CslXHS5ClhP2t_10flash_mockINtB5_11ContractObjINtNtNtNtCs1rODQd5oASQ_22multiversx_sc_scenario3api7impl_vh12vm_hooks_api10VMHooksApiNtNtBT_9debug_api15DebugApiBackendEENtNtNtCslPMlHj3qn2H_13multiversx_sc13contract_base17callable_contract16CallableContract4callCs8iyf5MSkCde_5tests
FN:8,_RNvYINtCslXHS5ClhP2t_10flash_mock11ContractObjINtNtNtNtCs1rODQd5oASQ_22multiversx_sc_scenario3api7impl_vh12vm_hooks_api10VMHooksApiNtNtBN_9debug_api15DebugApiBackendEENtB5_16EndpointWrappers10call_flashCs8iyf5MSkCde_5tests
FN:8,_RNvYINtCslXHS5ClhP2t_10flash_mock11ContractObjINtNtNtNtCs1rODQd5oASQ_22multiversx_sc_scenario3api7impl_vh12vm_hooks_api10VMHooksApiNtNtBN_9debug_api15DebugApiBackendEENtB5_16EndpointWrappers12call_upgradeCs8iyf5MSkCde_5tests
FN:8,_RNvYINtCslXHS5ClhP2t_10flash_mock11ContractObjINtNtNtNtCs1rODQd5oASQ_22multiversx_sc_scenario3api7impl_vh12vm_hooks_api10VMHooksApiNtNtBN_9debug_api15DebugApiBackendEENtB5_16EndpointWrappers19call_flash_no_repayCs8iyf5MSkCde_5tests
FN:8,_RNvYINtCslXHS5ClhP2t_10flash_mock11ContractObjINtNtNtNtCs1rODQd5oASQ_22multiversx_sc_scenario3api7impl_vh12vm_hooks_api10VMHooksApiNtNtBN_9debug_api15DebugApiBackendEENtB5_16EndpointWrappers21call_flash_repay_someCs8iyf5MSkCde_5tests
FN:8,_RNvYINtCslXHS5ClhP2t_10flash_mock11ContractObjINtNtNtNtCs1rODQd5oASQ_22multiversx_sc_scenario3api7impl_vh12vm_hooks_api10VMHooksApiNtNtBN_9debug_api15DebugApiBackendEENtB5_16EndpointWrappers4callCs8iyf5MSkCde_5tests
FN:8,_RNvYINtCslXHS5ClhP2t_10flash_mock11ContractObjINtNtNtNtCs1rODQd5oASQ_22multiversx_sc_scenario3api7impl_vh12vm_hooks_api10VMHooksApiNtNtBN_9debug_api15DebugApiBackendEENtB5_16EndpointWrappers8callbackCs8iyf5MSkCde_5tests
FN:8,_RNvYINtCslXHS5ClhP2t_10flash_mock11ContractObjINtNtNtNtCs1rODQd5oASQ_22multiversx_sc_scenario3api7impl_vh12vm_hooks_api10VMHooksApiNtNtBN_9debug_api15DebugApiBackendEENtB5_16EndpointWrappers9call_initCs8iyf5MSkCde_5tests
FN:33,_RNvYINtCslXHS5ClhP2t_10flash_mock11ContractObjINtNtNtNtCs1rODQd5oASQ_22multiversx_sc_scenario3api7impl_vh12vm_hooks_api10VMHooksApiNtNtBN_9debug_api15DebugApiBackendEENtB5_9FlashMock16flash_repay_someCs8iyf5MSkCde_5tests
FN:18,_RNvYINtCslXHS5ClhP2t_10flash_mock11ContractObjINtNtNtNtCs1rODQd5oASQ_22multiversx_sc_scenario3api7impl_vh12vm_hooks_api10VMHooksApiNtNtBN_9debug_api15DebugApiBackendEENtB5_9FlashMock5flashCs8iyf5MSkCde_5tests
FNDA:0,_RNvYpNtCsljRk2rVw48v_10flash_mock9FlashMock5flashB5_
FNDA:0,_RNvYpNtCsljRk2rVw48v_10flash_mock9FlashMock16flash_repay_someB5_
FNDA:0,_RNvYpNtCsljRk2rVw48v_10flash_mock16EndpointWrappers9call_initB5_
FNDA:0,_RNvYpNtCsljRk2rVw48v_10flash_mock16EndpointWrappers12call_upgradeB5_
FNDA:0,_RNvYpNtCsljRk2rVw48v_10flash_mock16EndpointWrappers10call_flashB5_
FNDA:0,_RNvYpNtCsljRk2rVw48v_10flash_mock16EndpointWrappers21call_flash_repay_someB5_
FNDA:0,_RNvYpNtCsljRk2rVw48v_10flash_mock16EndpointWrappers19call_flash_no_repayB5_
FNDA:0,_RNvYpNtCsljRk2rVw48v_10flash_mock16EndpointWrappers4callB5_
FNDA:0,_RNvYpNtCsljRk2rVw48v_10flash_mock16EndpointWrappers17callback_selectorB5_
FNDA:0,_RNvYpNtCsljRk2rVw48v_10flash_mock16EndpointWrappers8callbackB5_
FNDA:0,_RNvXs1_CsljRk2rVw48v_10flash_mockNtB5_11AbiProviderNtNtNtCslPMlHj3qn2H_13multiversx_sc13contract_base21contract_abi_provider19ContractAbiProvider3abi
FNDA:0,_RNvXINICsljRk2rVw48v_10flash_mocks5_0pEINtB5_11ContractObjpENtNtNtCslPMlHj3qn2H_13multiversx_sc13contract_base17callable_contract16CallableContract4callB5_
FNDA:0,_RINvCsljRk2rVw48v_10flash_mock12contract_objpEB2_
FNDA:0,_RINvXs6_CsljRk2rVw48v_10flash_mockNtB6_15ContractBuilderNtNtNtCslPMlHj3qn2H_13multiversx_sc13contract_base17callable_contract23CallableContractBuilder16new_contract_objpEB6_
FNDA:0,_RINvNtCsljRk2rVw48v_10flash_mock19___wasm__endpoints__4initpEB4_
FNDA:0,_RINvNtCsljRk2rVw48v_10flash_mock19___wasm__endpoints__7upgradepEB4_
FNDA:0,_RINvNtCsljRk2rVw48v_10flash_mock19___wasm__endpoints__5flashpEB4_
FNDA:0,_RINvNtCsljRk2rVw48v_10flash_mock19___wasm__endpoints__16flash_repay_somepEB4_
FNDA:0,_RINvNtCsljRk2rVw48v_10flash_mock19___wasm__endpoints__14flash_no_repaypEB4_
FNDA:0,_RINvNtCsljRk2rVw48v_10flash_mock19___wasm__endpoints__8callBackpEB4_
FNDA:0,_RNvYpNtCsljRk2rVw48v_10flash_mock10ProxyTrait4initB5_
FNDA:0,_RNvYpNtCsljRk2rVw48v_10flash_mock10ProxyTrait7upgradeB5_
FNDA:0,_RNvYpNtCsljRk2rVw48v_10flash_mock10ProxyTrait5flashB5_
FNDA:0,_RNvYpNtCsljRk2rVw48v_10flash_mock10ProxyTrait16flash_repay_someB5_
FNDA:0,_RNvYpNtCsljRk2rVw48v_10flash_mock10ProxyTrait14flash_no_repayB5_
FNDA:0,_RNvXINICsljRk2rVw48v_10flash_mocks7_0pEINtB5_5ProxypENtNtNtCslPMlHj3qn2H_13multiversx_sc13contract_base14proxy_obj_base12ProxyObjBase19extract_opt_addressB5_
FNDA:0,_RNvXINICsljRk2rVw48v_10flash_mocks7_0pEINtB5_5ProxypENtNtNtCslPMlHj3qn2H_13multiversx_sc13contract_base14proxy_obj_base12ProxyObjBase16extract_proxy_toB5_
FNDA:0,_RNvXINICsljRk2rVw48v_10flash_mocks8_0pEINtB5_5ProxypENtNtNtCslPMlHj3qn2H_13multiversx_sc13contract_base14proxy_obj_base11ProxyObjNew13new_proxy_objB5_
FNDA:0,_RNvXINICsljRk2rVw48v_10flash_mocks8_0pEINtB5_5ProxypENtNtNtCslPMlHj3qn2H_13multiversx_sc13contract_base14proxy_obj_base11ProxyObjNew8contractB5_
FNDA:0,_RNvXINICsljRk2rVw48v_10flash_mocks9_0pEINtB5_7ProxyTopENtNtNtCslPMlHj3qn2H_13multiversx_sc13contract_base14proxy_obj_base12ProxyObjBase19extract_opt_addressB5_
FNDA:0,_RNvXINICsljRk2rVw48v_10flash_mocks9_0pEINtB5_7ProxyTopENtNtNtCslPMlHj3qn2H_13multiversx_sc13contract_base14proxy_obj_base12ProxyObjBase15extract_addressB5_
FNDA:0,_RNvXINICsljRk2rVw48v_10flash_mocks9_0pEINtB5_7ProxyTopENtNtNtCslPMlHj3qn2H_13multiversx_sc13contract_base14proxy_obj_base12ProxyObjBase16extract_proxy_toB5_
FNDA:47,_RINvXs6_CslXHS5ClhP2t_10flash_mockNtB6_15ContractBuilderNtNtNtCslPMlHj3qn2H_13multiversx_sc13contract_base17callable_contract23CallableContractBuilder16new_contract_objINtNtNtNtCs1rODQd5oASQ_22multiversx_sc_scenario3api7impl_vh12vm_hooks_api10VMHooksApiNtNtB2L_9debug_api15DebugApiBackendEECs8iyf5MSkCde_5tests
FNDA:50,_RNvXs5_CslXHS5ClhP2t_10flash_mockINtB5_11ContractObjINtNtNtNtCs1rODQd5oASQ_22multiversx_sc_scenario3api7impl_vh12vm_hooks_api10VMHooksApiNtNtBT_9debug_api15DebugApiBackendEENtNtNtCslPMlHj3qn2H_13multiversx_sc13contract_base17callable_contract16CallableContract4callCs8iyf5MSkCde_5tests
FNDA:1,_RNvYINtCslXHS5ClhP2t_10flash_mock11ContractObjINtNtNtNtCs1rODQd5oASQ_22multiversx_sc_scenario3api7impl_vh12vm_hooks_api10VMHooksApiNtNtBN_9debug_api15DebugApiBackendEENtB5_16EndpointWrappers10call_flashCs8iyf5MSkCde_5tests
FNDA:0,_RNvYINtCslXHS5ClhP2t_10flash_mock11ContractObjINtNtNtNtCs1rODQd5oASQ_22multiversx_sc_scenario3api7impl_vh12vm_hooks_api10VMHooksApiNtNtBN_9debug_api15DebugApiBackendEENtB5_16EndpointWrappers12call_upgradeCs8iyf5MSkCde_5tests
FNDA:1,_RNvYINtCslXHS5ClhP2t_10flash_mock11ContractObjINtNtNtNtCs1rODQd5oASQ_22multiversx_sc_scenario3api7impl_vh12vm_hooks_api10VMHooksApiNtNtBN_9debug_api15DebugApiBackendEENtB5_16EndpointWrappers19call_flash_no_repayCs8iyf5MSkCde_5tests
FNDA:1,_RNvYINtCslXHS5ClhP2t_10flash_mock11ContractObjINtNtNtNtCs1rODQd5oASQ_22multiversx_sc_scenario3api7impl_vh12vm_hooks_api10VMHooksApiNtNtBN_9debug_api15DebugApiBackendEENtB5_16EndpointWrappers21call_flash_repay_someCs8iyf5MSkCde_5tests
FNDA:50,_RNvYINtCslXHS5ClhP2t_10flash_mock11ContractObjINtNtNtNtCs1rODQd5oASQ_22multiversx_sc_scenario3api7impl_vh12vm_hooks_api10VMHooksApiNtNtBN_9debug_api15DebugApiBackendEENtB5_16EndpointWrappers4callCs8iyf5MSkCde_5tests
FNDA:0,_RNvYINtCslXHS5ClhP2t_10flash_mock11ContractObjINtNtNtNtCs1rODQd5oASQ_22multiversx_sc_scenario3api7impl_vh12vm_hooks_api10VMHooksApiNtNtBN_9debug_api15DebugApiBackendEENtB5_16EndpointWrappers8callbackCs8iyf5MSkCde_5tests
FNDA:47,_RNvYINtCslXHS5ClhP2t_10flash_mock11ContractObjINtNtNtNtCs1rODQd5oASQ_22multiversx_sc_scenario3api7impl_vh12vm_hooks_api10VMHooksApiNtNtBN_9debug_api15DebugApiBackendEENtB5_16EndpointWrappers9call_initCs8iyf5MSkCde_5tests
FNDA:1,_RNvYINtCslXHS5ClhP2t_10flash_mock11ContractObjINtNtNtNtCs1rODQd5oASQ_22multiversx_sc_scenario3api7impl_vh12vm_hooks_api10VMHooksApiNtNtBN_9debug_api15DebugApiBackendEENtB5_9FlashMock16flash_repay_someCs8iyf5MSkCde_5tests
FNDA:1,_RNvYINtCslXHS5ClhP2t_10flash_mock11ContractObjINtNtNtNtCs1rODQd5oASQ_22multiversx_sc_scenario3api7impl_vh12vm_hooks_api10VMHooksApiNtNtBN_9debug_api15DebugApiBackendEENtB5_9FlashMock5flashCs8iyf5MSkCde_5tests
FNF:3
FNH:3
DA:8,97
DA:18,1
DA:19,1
DA:20,1
DA:21,1
DA:22,1
DA:23,1
DA:24,1
DA:25,1
DA:26,1
DA:27,1
DA:28,1
DA:33,1
DA:34,1
DA:35,1
DA:36,1
DA:37,1
DA:38,1
DA:39,1
DA:40,1
DA:41,1
DA:42,1
DA:43,1
BRF:0
BRH:0
LF:23
LH:23
end_of_record
SF:/Users/mihaieremia/GitHub/rs-lending/flash_mock/src/proxy_lending.rs
FN:23,_RNvXININtCsljRk2rVw48v_10flash_mock13proxy_lending0ppppENtB5_16LendingPoolProxyINtNtNtNtCslPMlHj3qn2H_13multiversx_sc5types11interaction8tx_proxy12TxProxyTraitppppE13proxy_methodsB7_
FN:52,_RINvMs_NtCsljRk2rVw48v_10flash_mock13proxy_lendingINtB5_23LendingPoolProxyMethodsppupE4initppppEB7_
FN:84,_RNvMs0_NtCsljRk2rVw48v_10flash_mock13proxy_lendingINtB5_23LendingPoolProxyMethodsppppE7upgradeB7_
FN:125,_RINvMs1_NtCsljRk2rVw48v_10flash_mock13proxy_lendingINtB6_23LendingPoolProxyMethodsppppE6supplyppEB8_
FN:156,_RINvMs1_NtCsljRk2rVw48v_10flash_mock13proxy_lendingINtB6_23LendingPoolProxyMethodsppppE8withdrawpEB8_
FN:198,_RINvMs1_NtCsljRk2rVw48v_10flash_mock13proxy_lendingINtB6_23LendingPoolProxyMethodsppppE6borrowpEB8_
FN:232,_RINvMs1_NtCsljRk2rVw48v_10flash_mock13proxy_lendingINtB6_23LendingPoolProxyMethodsppppE5repaypEB8_
FN:262,_RINvMs1_NtCsljRk2rVw48v_10flash_mock13proxy_lendingINtB6_23LendingPoolProxyMethodsppppE9liquidatepppEB8_
FN:298,_RINvMs1_NtCsljRk2rVw48v_10flash_mock13proxy_lendingINtB6_23LendingPoolProxyMethodsppppE10flash_loanpppppEB8_
FN:343,_RINvMs1_NtCsljRk2rVw48v_10flash_mock13proxy_lendingINtB6_23LendingPoolProxyMethodsppppE24update_account_positionspEB8_
FN:370,_RNvMs1_NtCsljRk2rVw48v_10flash_mock13proxy_lendingINtB5_23LendingPoolProxyMethodsppppE13disable_vaultB7_
FN:391,_RNvMs1_NtCsljRk2rVw48v_10flash_mock13proxy_lendingINtB5_23LendingPoolProxyMethodsppppE12enable_vaultB7_
FN:410,_RINvMs1_NtCsljRk2rVw48v_10flash_mock13proxy_lendingINtB6_23LendingPoolProxyMethodsppppE25update_position_thresholdpppEB8_
FN:438,_RINvMs1_NtCsljRk2rVw48v_10flash_mock13proxy_lendingINtB6_23LendingPoolProxyMethodsppppE14update_indexespEB8_
FN:451,_RINvMs1_NtCsljRk2rVw48v_10flash_mock13proxy_lendingINtB6_23LendingPoolProxyMethodsppppE21create_liquidity_poolpppppppppppppppppppppEB8_
FN:524,_RINvMs1_NtCsljRk2rVw48v_10flash_mock13proxy_lendingINtB6_23LendingPoolProxyMethodsppppE22upgrade_liquidity_poolpppppppEB8_
FN:560,_RINvMs1_NtCsljRk2rVw48v_10flash_mock13proxy_lendingINtB6_23LendingPoolProxyMethodsppppE13claim_revenuepEB8_
FN:573,_RINvMs1_NtCsljRk2rVw48v_10flash_mock13proxy_lendingINtB6_23LendingPoolProxyMethodsppppE22register_account_tokenppEB8_
FN:588,_RINvMs1_NtCsljRk2rVw48v_10flash_mock13proxy_lendingINtB6_23LendingPoolProxyMethodsppppE16set_token_oracleppppppppEB8_
FN:622,_RINvMs1_NtCsljRk2rVw48v_10flash_mock13proxy_lendingINtB6_23LendingPoolProxyMethodsppppE27edit_token_oracle_tolerancepppEB8_
FN:641,_RINvMs1_NtCsljRk2rVw48v_10flash_mock13proxy_lendingINtB6_23LendingPoolProxyMethodsppppE14set_aggregatorpEB8_
FN:654,_RINvMs1_NtCsljRk2rVw48v_10flash_mock13proxy_lendingINtB6_23LendingPoolProxyMethodsppppE15set_accumulatorpEB8_
FN:667,_RINvMs1_NtCsljRk2rVw48v_10flash_mock13proxy_lendingINtB6_23LendingPoolProxyMethodsppppE19set_safe_price_viewpEB8_
FN:680,_RINvMs1_NtCsljRk2rVw48v_10flash_mock13proxy_lendingINtB6_23LendingPoolProxyMethodsppppE27set_liquidity_pool_templatepEB8_
FN:693,_RINvMs1_NtCsljRk2rVw48v_10flash_mock13proxy_lendingINtB6_23LendingPoolProxyMethodsppppE19add_e_mode_categorypppEB8_
FN:712,_RINvMs1_NtCsljRk2rVw48v_10flash_mock13proxy_lendingINtB6_23LendingPoolProxyMethodsppppE20edit_e_mode_categorypEB8_
FN:725,_RINvMs1_NtCsljRk2rVw48v_10flash_mock13proxy_lendingINtB6_23LendingPoolProxyMethodsppppE22remove_e_mode_categorypEB8_
FN:738,_RINvMs1_NtCsljRk2rVw48v_10flash_mock13proxy_lendingINtB6_23LendingPoolProxyMethodsppppE28add_asset_to_e_mode_categoryppppEB8_
FN:760,_RINvMs1_NtCsljRk2rVw48v_10flash_mock13proxy_lendingINtB6_23LendingPoolProxyMethodsppppE29edit_asset_in_e_mode_categorypppEB8_
FN:779,_RINvMs1_NtCsljRk2rVw48v_10flash_mock13proxy_lendingINtB6_23LendingPoolProxyMethodsppppE33remove_asset_from_e_mode_categoryppEB8_
FN:795,_RINvMs1_NtCsljRk2rVw48v_10flash_mock13proxy_lendingINtB6_23LendingPoolProxyMethodsppppE17edit_asset_configpppppppppppppppEB8_
FN:852,_RNvMs1_NtCsljRk2rVw48v_10flash_mock13proxy_lendingINtB5_23LendingPoolProxyMethodsppppE13pools_allowedB7_
FN:863,_RNvMs1_NtCsljRk2rVw48v_10flash_mock13proxy_lendingINtB5_23LendingPoolProxyMethodsppppE13account_tokenB7_
FN:874,_RNvMs1_NtCsljRk2rVw48v_10flash_mock13proxy_lendingINtB5_23LendingPoolProxyMethodsppppE17account_positionsB7_
FN:885,_RINvMs1_NtCsljRk2rVw48v_10flash_mock13proxy_lendingINtB6_23LendingPoolProxyMethodsppppE18account_attributespEB8_
FN:900,_RINvMs1_NtCsljRk2rVw48v_10flash_mock13proxy_lendingINtB6_23LendingPoolProxyMethodsppppE17deposit_positionspEB8_
FN:915,_RINvMs1_NtCsljRk2rVw48v_10flash_mock13proxy_lendingINtB6_23LendingPoolProxyMethodsppppE16borrow_positionspEB8_
FN:930,_RNvMs1_NtCsljRk2rVw48v_10flash_mock13proxy_lendingINtB5_23LendingPoolProxyMethodsppppE25liq_pool_template_addressB7_
FN:941,_RNvMs1_NtCsljRk2rVw48v_10flash_mock13proxy_lendingINtB5_23LendingPoolProxyMethodsppppE19accumulator_addressB7_
FN:952,_RINvMs1_NtCsljRk2rVw48v_10flash_mock13proxy_lendingINtB6_23LendingPoolProxyMethodsppppE9pools_mappEB8_
FN:967,_RNvMs1_NtCsljRk2rVw48v_10flash_mock13proxy_lendingINtB5_23LendingPoolProxyMethodsppppE24price_aggregator_addressB7_
FN:978,_RNvMs1_NtCsljRk2rVw48v_10flash_mock13proxy_lendingINtB5_23LendingPoolProxyMethodsppppE15safe_price_viewB7_
FN:989,_RINvMs1_NtCsljRk2rVw48v_10flash_mock13proxy_lendingINtB6_23LendingPoolProxyMethodsppppE12asset_configpEB8_
FN:1004,_RNvMs1_NtCsljRk2rVw48v_10flash_mock13proxy_lendingINtB5_23LendingPoolProxyMethodsppppE23last_e_mode_category_idB7_
FN:1015,_RNvMs1_NtCsljRk2rVw48v_10flash_mock13proxy_lendingINtB5_23LendingPoolProxyMethodsppppE15e_mode_categoryB7_
FN:1026,_RINvMs1_NtCsljRk2rVw48v_10flash_mock13proxy_lendingINtB6_23LendingPoolProxyMethodsppppE13asset_e_modespEB8_
FN:1041,_RINvMs1_NtCsljRk2rVw48v_10flash_mock13proxy_lendingINtB6_23LendingPoolProxyMethodsppppE13e_mode_assetspEB8_
FN:1056,_RINvMs1_NtCsljRk2rVw48v_10flash_mock13proxy_lendingINtB6_23LendingPoolProxyMethodsppppE23isolated_asset_debt_usdpEB8_
FN:1071,_RINvMs1_NtCsljRk2rVw48v_10flash_mock13proxy_lendingINtB6_23LendingPoolProxyMethodsppppE21vault_supplied_amountpEB8_
FN:1086,_RINvMs1_NtCsljRk2rVw48v_10flash_mock13proxy_lendingINtB6_23LendingPoolProxyMethodsppppE12token_oraclepEB8_
FN:1109,_RINvMs1_NtCsljRk2rVw48v_10flash_mock13proxy_lendingINtB6_23LendingPoolProxyMethodsppppE16get_pool_addresspEB8_
FN:1122,_RINvMs1_NtCsljRk2rVw48v_10flash_mock13proxy_lendingINtB6_23LendingPoolProxyMethodsppppE15get_all_marketspEB8_
FN:1157,_RINvMs1_NtCsljRk2rVw48v_10flash_mock13proxy_lendingINtB6_23LendingPoolProxyMethodsppppE17can_be_liquidatedpEB8_
FN:1190,_RINvMs1_NtCsljRk2rVw48v_10flash_mock13proxy_lendingINtB6_23LendingPoolProxyMethodsppppE17get_health_factorpEB8_
FN:1232,_RINvMs1_NtCsljRk2rVw48v_10flash_mock13proxy_lendingINtB6_23LendingPoolProxyMethodsppppE39get_max_liquidate_amount_for_collateralppppEB8_
FN:1273,_RINvMs1_NtCsljRk2rVw48v_10flash_mock13proxy_lendingINtB6_23LendingPoolProxyMethodsppppE31get_collateral_amount_for_tokenppEB8_
FN:1308,_RINvMs1_NtCsljRk2rVw48v_10flash_mock13proxy_lendingINtB6_23LendingPoolProxyMethodsppppE27get_borrow_amount_for_tokenppEB8_
FN:1340,_RINvMs1_NtCsljRk2rVw48v_10flash_mock13proxy_lendingINtB6_23LendingPoolProxyMethodsppppE24get_total_borrow_in_egldpEB8_
FN:1369,_RINvMs1_NtCsljRk2rVw48v_10flash_mock13proxy_lendingINtB6_23LendingPoolProxyMethodsppppE28get_total_collateral_in_egldpEB8_
FN:1398,_RINvMs1_NtCsljRk2rVw48v_10flash_mock13proxy_lendingINtB6_23LendingPoolProxyMethodsppppE36get_liquidation_collateral_availablepEB8_
FN:1427,_RINvMs1_NtCsljRk2rVw48v_10flash_mock13proxy_lendingINtB6_23LendingPoolProxyMethodsppppE26get_ltv_collateral_in_egldpEB8_
FN:1440,_RINvMs1_NtCsljRk2rVw48v_10flash_mock13proxy_lendingINtB6_23LendingPoolProxyMethodsppppE25get_token_price_data_viewpEB8_
FN:1453,_RINvMs1_NtCsljRk2rVw48v_10flash_mock13proxy_lendingINtB6_23LendingPoolProxyMethodsppppE13get_usd_pricepEB8_
FN:1466,_RINvMs1_NtCsljRk2rVw48v_10flash_mock13proxy_lendingINtB6_23LendingPoolProxyMethodsppppE14get_egld_pricepEB8_
FNDA:0,_RNvXININtCsljRk2rVw48v_10flash_mock13proxy_lending0ppppENtB5_16LendingPoolProxyINtNtNtNtCslPMlHj3qn2H_13multiversx_sc5types11interaction8tx_proxy12TxProxyTraitppppE13proxy_methodsB7_
FNDA:0,_RINvMs_NtCsljRk2rVw48v_10flash_mock13proxy_lendingINtB5_23LendingPoolProxyMethodsppupE4initppppEB7_
FNDA:0,_RNvMs0_NtCsljRk2rVw48v_10flash_mock13proxy_lendingINtB5_23LendingPoolProxyMethodsppppE7upgradeB7_
FNDA:0,_RINvMs1_NtCsljRk2rVw48v_10flash_mock13proxy_lendingINtB6_23LendingPoolProxyMethodsppppE6supplyppEB8_
FNDA:0,_RINvMs1_NtCsljRk2rVw48v_10flash_mock13proxy_lendingINtB6_23LendingPoolProxyMethodsppppE8withdrawpEB8_
FNDA:0,_RINvMs1_NtCsljRk2rVw48v_10flash_mock13proxy_lendingINtB6_23LendingPoolProxyMethodsppppE6borrowpEB8_
FNDA:0,_RINvMs1_NtCsljRk2rVw48v_10flash_mock13proxy_lendingINtB6_23LendingPoolProxyMethodsppppE5repaypEB8_
FNDA:0,_RINvMs1_NtCsljRk2rVw48v_10flash_mock13proxy_lendingINtB6_23LendingPoolProxyMethodsppppE9liquidatepppEB8_
FNDA:0,_RINvMs1_NtCsljRk2rVw48v_10flash_mock13proxy_lendingINtB6_23LendingPoolProxyMethodsppppE10flash_loanpppppEB8_
FNDA:0,_RINvMs1_NtCsljRk2rVw48v_10flash_mock13proxy_lendingINtB6_23LendingPoolProxyMethodsppppE24update_account_positionspEB8_
FNDA:0,_RNvMs1_NtCsljRk2rVw48v_10flash_mock13proxy_lendingINtB5_23LendingPoolProxyMethodsppppE13disable_vaultB7_
FNDA:0,_RNvMs1_NtCsljRk2rVw48v_10flash_mock13proxy_lendingINtB5_23LendingPoolProxyMethodsppppE12enable_vaultB7_
FNDA:0,_RINvMs1_NtCsljRk2rVw48v_10flash_mock13proxy_lendingINtB6_23LendingPoolProxyMethodsppppE25update_position_thresholdpppEB8_
FNDA:0,_RINvMs1_NtCsljRk2rVw48v_10flash_mock13proxy_lendingINtB6_23LendingPoolProxyMethodsppppE14update_indexespEB8_
FNDA:0,_RINvMs1_NtCsljRk2rVw48v_10flash_mock13proxy_lendingINtB6_23LendingPoolProxyMethodsppppE21create_liquidity_poolpppppppppppppppppppppEB8_
FNDA:0,_RINvMs1_NtCsljRk2rVw48v_10flash_mock13proxy_lendingINtB6_23LendingPoolProxyMethodsppppE22upgrade_liquidity_poolpppppppEB8_
FNDA:0,_RINvMs1_NtCsljRk2rVw48v_10flash_mock13proxy_lendingINtB6_23LendingPoolProxyMethodsppppE13claim_revenuepEB8_
FNDA:0,_RINvMs1_NtCsljRk2rVw48v_10flash_mock13proxy_lendingINtB6_23LendingPoolProxyMethodsppppE22register_account_tokenppEB8_
FNDA:0,_RINvMs1_NtCsljRk2rVw48v_10flash_mock13proxy_lendingINtB6_23LendingPoolProxyMethodsppppE16set_token_oracleppppppppEB8_
FNDA:0,_RINvMs1_NtCsljRk2rVw48v_10flash_mock13proxy_lendingINtB6_23LendingPoolProxyMethodsppppE27edit_token_oracle_tolerancepppEB8_
FNDA:0,_RINvMs1_NtCsljRk2rVw48v_10flash_mock13proxy_lendingINtB6_23LendingPoolProxyMethodsppppE14set_aggregatorpEB8_
FNDA:0,_RINvMs1_NtCsljRk2rVw48v_10flash_mock13proxy_lendingINtB6_23LendingPoolProxyMethodsppppE15set_accumulatorpEB8_
FNDA:0,_RINvMs1_NtCsljRk2rVw48v_10flash_mock13proxy_lendingINtB6_23LendingPoolProxyMethodsppppE19set_safe_price_viewpEB8_
FNDA:0,_RINvMs1_NtCsljRk2rVw48v_10flash_mock13proxy_lendingINtB6_23LendingPoolProxyMethodsppppE27set_liquidity_pool_templatepEB8_
FNDA:0,_RINvMs1_NtCsljRk2rVw48v_10flash_mock13proxy_lendingINtB6_23LendingPoolProxyMethodsppppE19add_e_mode_categorypppEB8_
FNDA:0,_RINvMs1_NtCsljRk2rVw48v_10flash_mock13proxy_lendingINtB6_23LendingPoolProxyMethodsppppE20edit_e_mode_categorypEB8_
FNDA:0,_RINvMs1_NtCsljRk2rVw48v_10flash_mock13proxy_lendingINtB6_23LendingPoolProxyMethodsppppE22remove_e_mode_categorypEB8_
FNDA:0,_RINvMs1_NtCsljRk2rVw48v_10flash_mock13proxy_lendingINtB6_23LendingPoolProxyMethodsppppE28add_asset_to_e_mode_categoryppppEB8_
FNDA:0,_RINvMs1_NtCsljRk2rVw48v_10flash_mock13proxy_lendingINtB6_23LendingPoolProxyMethodsppppE29edit_asset_in_e_mode_categorypppEB8_
FNDA:0,_RINvMs1_NtCsljRk2rVw48v_10flash_mock13proxy_lendingINtB6_23LendingPoolProxyMethodsppppE33remove_asset_from_e_mode_categoryppEB8_
FNDA:0,_RINvMs1_NtCsljRk2rVw48v_10flash_mock13proxy_lendingINtB6_23LendingPoolProxyMethodsppppE17edit_asset_configpppppppppppppppEB8_
FNDA:0,_RNvMs1_NtCsljRk2rVw48v_10flash_mock13proxy_lendingINtB5_23LendingPoolProxyMethodsppppE13pools_allowedB7_
FNDA:0,_RNvMs1_NtCsljRk2rVw48v_10flash_mock13proxy_lendingINtB5_23LendingPoolProxyMethodsppppE13account_tokenB7_
FNDA:0,_RNvMs1_NtCsljRk2rVw48v_10flash_mock13proxy_lendingINtB5_23LendingPoolProxyMethodsppppE17account_positionsB7_
FNDA:0,_RINvMs1_NtCsljRk2rVw48v_10flash_mock13proxy_lendingINtB6_23LendingPoolProxyMethodsppppE18account_attributespEB8_
FNDA:0,_RINvMs1_NtCsljRk2rVw48v_10flash_mock13proxy_lendingINtB6_23LendingPoolProxyMethodsppppE17deposit_positionspEB8_
FNDA:0,_RINvMs1_NtCsljRk2rVw48v_10flash_mock13proxy_lendingINtB6_23LendingPoolProxyMethodsppppE16borrow_positionspEB8_
FNDA:0,_RNvMs1_NtCsljRk2rVw48v_10flash_mock13proxy_lendingINtB5_23LendingPoolProxyMethodsppppE25liq_pool_template_addressB7_
FNDA:0,_RNvMs1_NtCsljRk2rVw48v_10flash_mock13proxy_lendingINtB5_23LendingPoolProxyMethodsppppE19accumulator_addressB7_
FNDA:0,_RINvMs1_NtCsljRk2rVw48v_10flash_mock13proxy_lendingINtB6_23LendingPoolProxyMethodsppppE9pools_mappEB8_
FNDA:0,_RNvMs1_NtCsljRk2rVw48v_10flash_mock13proxy_lendingINtB5_23LendingPoolProxyMethodsppppE24price_aggregator_addressB7_
FNDA:0,_RNvMs1_NtCsljRk2rVw48v_10flash_mock13proxy_lendingINtB5_23LendingPoolProxyMethodsppppE15safe_price_viewB7_
FNDA:0,_RINvMs1_NtCsljRk2rVw48v_10flash_mock13proxy_lendingINtB6_23LendingPoolProxyMethodsppppE12asset_configpEB8_
FNDA:0,_RNvMs1_NtCsljRk2rVw48v_10flash_mock13proxy_lendingINtB5_23LendingPoolProxyMethodsppppE23last_e_mode_category_idB7_
FNDA:0,_RNvMs1_NtCsljRk2rVw48v_10flash_mock13proxy_lendingINtB5_23LendingPoolProxyMethodsppppE15e_mode_categoryB7_
FNDA:0,_RINvMs1_NtCsljRk2rVw48v_10flash_mock13proxy_lendingINtB6_23LendingPoolProxyMethodsppppE13asset_e_modespEB8_
FNDA:0,_RINvMs1_NtCsljRk2rVw48v_10flash_mock13proxy_lendingINtB6_23LendingPoolProxyMethodsppppE13e_mode_assetspEB8_
FNDA:0,_RINvMs1_NtCsljRk2rVw48v_10flash_mock13proxy_lendingINtB6_23LendingPoolProxyMethodsppppE23isolated_asset_debt_usdpEB8_
FNDA:0,_RINvMs1_NtCsljRk2rVw48v_10flash_mock13proxy_lendingINtB6_23LendingPoolProxyMethodsppppE21vault_supplied_amountpEB8_
FNDA:0,_RINvMs1_NtCsljRk2rVw48v_10flash_mock13proxy_lendingINtB6_23LendingPoolProxyMethodsppppE12token_oraclepEB8_
FNDA:0,_RINvMs1_NtCsljRk2rVw48v_10flash_mock13proxy_lendingINtB6_23LendingPoolProxyMethodsppppE16get_pool_addresspEB8_
FNDA:0,_RINvMs1_NtCsljRk2rVw48v_10flash_mock13proxy_lendingINtB6_23LendingPoolProxyMethodsppppE15get_all_marketspEB8_
FNDA:0,_RINvMs1_NtCsljRk2rVw48v_10flash_mock13proxy_lendingINtB6_23LendingPoolProxyMethodsppppE17can_be_liquidatedpEB8_
FNDA:0,_RINvMs1_NtCsljRk2rVw48v_10flash_mock13proxy_lendingINtB6_23LendingPoolProxyMethodsppppE17get_health_factorpEB8_
FNDA:0,_RINvMs1_NtCsljRk2rVw48v_10flash_mock13proxy_lendingINtB6_23LendingPoolProxyMethodsppppE39get_max_liquidate_amount_for_collateralppppEB8_
FNDA:0,_RINvMs1_NtCsljRk2rVw48v_10flash_mock13proxy_lendingINtB6_23LendingPoolProxyMethodsppppE31get_collateral_amount_for_tokenppEB8_
FNDA:0,_RINvMs1_NtCsljRk2rVw48v_10flash_mock13proxy_lendingINtB6_23LendingPoolProxyMethodsppppE27get_borrow_amount_for_tokenppEB8_
FNDA:0,_RINvMs1_NtCsljRk2rVw48v_10flash_mock13proxy_lendingINtB6_23LendingPoolProxyMethodsppppE24get_total_borrow_in_egldpEB8_
FNDA:0,_RINvMs1_NtCsljRk2rVw48v_10flash_mock13proxy_lendingINtB6_23LendingPoolProxyMethodsppppE28get_total_collateral_in_egldpEB8_
FNDA:0,_RINvMs1_NtCsljRk2rVw48v_10flash_mock13proxy_lendingINtB6_23LendingPoolProxyMethodsppppE36get_liquidation_collateral_availablepEB8_
FNDA:0,_RINvMs1_NtCsljRk2rVw48v_10flash_mock13proxy_lendingINtB6_23LendingPoolProxyMethodsppppE26get_ltv_collateral_in_egldpEB8_
FNDA:0,_RINvMs1_NtCsljRk2rVw48v_10flash_mock13proxy_lendingINtB6_23LendingPoolProxyMethodsppppE25get_token_price_data_viewpEB8_
FNDA:0,_RINvMs1_NtCsljRk2rVw48v_10flash_mock13proxy_lendingINtB6_23LendingPoolProxyMethodsppppE13get_usd_pricepEB8_
FNDA:0,_RINvMs1_NtCsljRk2rVw48v_10flash_mock13proxy_lendingINtB6_23LendingPoolProxyMethodsppppE14get_egld_pricepEB8_
FNF:64
FNH:0
DA:23,0
DA:24,0
DA:25,0
DA:52,0
DA:53,0
DA:54,0
DA:55,0
DA:56,0
DA:57,0
DA:58,0
DA:59,0
DA:60,0
DA:61,0
DA:62,0
DA:63,0
DA:64,0
DA:65,0
DA:66,0
DA:67,0
DA:68,0
DA:69,0
DA:70,0
DA:71,0
DA:72,0
DA:84,0
DA:85,0
DA:86,0
DA:87,0
DA:88,0
DA:89,0
DA:90,0
DA:91,0
DA:125,0
DA:126,0
DA:127,0
DA:128,0
DA:129,0
DA:130,0
DA:131,0
DA:132,0
DA:133,0
DA:134,0
DA:135,0
DA:136,0
DA:137,0
DA:138,0
DA:156,0
DA:157,0
DA:158,0
DA:159,0
DA:160,0
DA:161,0
DA:162,0
DA:163,0
DA:164,0
DA:165,0
DA:166,0
DA:198,0
DA:199,0
DA:200,0
DA:201,0
DA:202,0
DA:203,0
DA:204,0
DA:205,0
DA:206,0
DA:207,0
DA:208,0
DA:232,0
DA:233,0
DA:234,0
DA:235,0
DA:236,0
DA:237,0
DA:238,0
DA:239,0
DA:240,0
DA:241,0
DA:242,0
DA:262,0
DA:263,0
DA:264,0
DA:265,0
DA:266,0
DA:267,0
DA:268,0
DA:269,0
DA:270,0
DA:271,0
DA:272,0
DA:273,0
DA:274,0
DA:275,0
DA:276,0
DA:277,0
DA:278,0
DA:298,0
DA:299,0
DA:300,0
DA:301,0
DA:302,0
DA:303,0
DA:304,0
DA:305,0
DA:306,0
DA:307,0
DA:308,0
DA:309,0
DA:310,0
DA:311,0
DA:312,0
DA:313,0
DA:314,0
DA:315,0
DA:316,0
DA:317,0
DA:318,0
DA:319,0
DA:320,0
DA:321,0
DA:343,0
DA:344,0
DA:345,0
DA:346,0
DA:347,0
DA:348,0
DA:349,0
DA:350,0
DA:351,0
DA:352,0
DA:353,0
DA:354,0
DA:370,0
DA:371,0
DA:372,0
DA:373,0
DA:374,0
DA:375,0
DA:376,0
DA:391,0
DA:392,0
DA:393,0
DA:394,0
DA:395,0
DA:396,0
DA:397,0
DA:410,0
DA:411,0
DA:412,0
DA:413,0
DA:414,0
DA:415,0
DA:416,0
DA:417,0
DA:418,0
DA:419,0
DA:420,0
DA:421,0
DA:422,0
DA:423,0
DA:424,0
DA:425,0
DA:426,0
DA:427,0
DA:438,0
DA:439,0
DA:440,0
DA:441,0
DA:442,0
DA:443,0
DA:444,0
DA:445,0
DA:446,0
DA:447,0
DA:448,0
DA:449,0
DA:451,0
DA:452,0
DA:453,0
DA:454,0
DA:455,0
DA:456,0
DA:457,0
DA:458,0
DA:459,0
DA:460,0
DA:461,0
DA:462,0
DA:463,0
DA:464,0
DA:465,0
DA:466,0
DA:467,0
DA:468,0
DA:469,0
DA:470,0
DA:471,0
DA:472,0
DA:473,0
DA:474,0
DA:475,0
DA:476,0
DA:477,0
DA:478,0
DA:479,0
DA:480,0
DA:481,0
DA:482,0
DA:483,0
DA:484,0
DA:485,0
DA:486,0
DA:487,0
DA:488,0
DA:489,0
DA:490,0
DA:491,0
DA:492,0
DA:493,0
DA:494,0
DA:495,0
DA:496,0
DA:497,0
DA:498,0
DA:499,0
DA:500,0
DA:501,0
DA:502,0
DA:503,0
DA:504,0
DA:505,0
DA:506,0
DA:507,0
DA:508,0
DA:509,0
DA:510,0
DA:511,0
DA:512,0
DA:513,0
DA:514,0
DA:515,0
DA:516,0
DA:517,0
DA:518,0
DA:519,0
DA:520,0
DA:521,0
DA:522,0
DA:524,0
DA:525,0
DA:526,0
DA:527,0
DA:528,0
DA:529,0
DA:530,0
DA:531,0
DA:532,0
DA:533,0
DA:534,0
DA:535,0
DA:536,0
DA:537,0
DA:538,0
DA:539,0
DA:540,0
DA:541,0
DA:542,0
DA:543,0
DA:544,0
DA:545,0
DA:546,0
DA:547,0
DA:548,0
DA:549,0
DA:550,0
DA:551,0
DA:552,0
DA:553,0
DA:560,0
DA:561,0
DA:562,0
DA:563,0
DA:564,0
DA:565,0
DA:566,0
DA:567,0
DA:568,0
DA:569,0
DA:570,0
DA:571,0
DA:573,0
DA:574,0
DA:575,0
DA:576,0
DA:577,0
DA:578,0
DA:579,0
DA:580,0
DA:581,0
DA:582,0
DA:583,0
DA:584,0
DA:585,0
DA:586,0
DA:588,0
DA:589,0
DA:590,0
DA:591,0
DA:592,0
DA:593,0
DA:594,0
DA:595,0
DA:596,0
DA:597,0
DA:598,0
DA:599,0
DA:600,0
DA:601,0
DA:602,0
DA:603,0
DA:604,0
DA:605,0
DA:606,0
DA:607,0
DA:608,0
DA:609,0
DA:610,0
DA:611,0
DA:612,0
DA:613,0
DA:614,0
DA:615,0
DA:616,0
DA:617,0
DA:618,0
DA:619,0
DA:620,0
DA:622,0
DA:623,0
DA:624,0
DA:625,0
DA:626,0
DA:627,0
DA:628,0
DA:629,0
DA:630,0
DA:631,0
DA:632,0
DA:633,0
DA:634,0
DA:635,0
DA:636,0
DA:637,0
DA:638,0
DA:639,0
DA:641,0
DA:642,0
DA:643,0
DA:644,0
DA:645,0
DA:646,0
DA:647,0
DA:648,0
DA:649,0
DA:650,0
DA:651,0
DA:652,0
DA:654,0
DA:655,0
DA:656,0
DA:657,0
DA:658,0
DA:659,0
DA:660,0
DA:661,0
DA:662,0
DA:663,0
DA:664,0
DA:665,0
DA:667,0
DA:668,0
DA:669,0
DA:670,0
DA:671,0
DA:672,0
DA:673,0
DA:674,0
DA:675,0
DA:676,0
DA:677,0
DA:678,0
DA:680,0
DA:681,0
DA:682,0
DA:683,0
DA:684,0
DA:685,0
DA:686,0
DA:687,0
DA:688,0
DA:689,0
DA:690,0
DA:691,0
DA:693,0
DA:694,0
DA:695,0
DA:696,0
DA:697,0
DA:698,0
DA:699,0
DA:700,0
DA:701,0
DA:702,0
DA:703,0
DA:704,0
DA:705,0
DA:706,0
DA:707,0
DA:708,0
DA:709,0
DA:710,0
DA:712,0
DA:713,0
DA:714,0
DA:715,0
DA:716,0
DA:717,0
DA:718,0
DA:719,0
DA:720,0
DA:721,0
DA:722,0
DA:723,0
DA:725,0
DA:726,0
DA:727,0
DA:728,0
DA:729,0
DA:730,0
DA:731,0
DA:732,0
DA:733,0
DA:734,0
DA:735,0
DA:736,0
DA:738,0
DA:739,0
DA:740,0
DA:741,0
DA:742,0
DA:743,0
DA:744,0
DA:745,0
DA:746,0
DA:747,0
DA:748,0
DA:749,0
DA:750,0
DA:751,0
DA:752,0
DA:753,0
DA:754,0
DA:755,0
DA:756,0
DA:757,0
DA:758,0
DA:760,0
DA:761,0
DA:762,0
DA:763,0
DA:764,0
DA:765,0
DA:766,0
DA:767,0
DA:768,0
DA:769,0
DA:770,0
DA:771,0
DA:772,0
DA:773,0
DA:774,0
DA:775,0
DA:776,0
DA:777,0
DA:779,0
DA:780,0
DA:781,0
DA:782,0
DA:783,0
DA:784,0
DA:785,0
DA:786,0
DA:787,0
DA:788,0
DA:789,0
DA:790,0
DA:791,0
DA:792,0
DA:793,0
DA:795,0
DA:796,0
DA:797,0
DA:798,0
DA:799,0
DA:800,0
DA:801,0
DA:802,0
DA:803,0
DA:804,0
DA:805,0
DA:806,0
DA:807,0
DA:808,0
DA:809,0
DA:810,0
DA:811,0
DA:812,0
DA:813,0
DA:814,0
DA:815,0
DA:816,0
DA:817,0
DA:818,0
DA:819,0
DA:820,0
DA:821,0
DA:822,0
DA:823,0
DA:824,0
DA:825,0
DA:826,0
DA:827,0
DA:828,0
DA:829,0
DA:830,0
DA:831,0
DA:832,0
DA:833,0
DA:834,0
DA:835,0
DA:836,0
DA:837,0
DA:838,0
DA:839,0
DA:840,0
DA:841,0
DA:842,0
DA:843,0
DA:844,0
DA:845,0
DA:846,0
DA:847,0
DA:848,0
DA:852,0
DA:853,0
DA:854,0
DA:855,0
DA:856,0
DA:857,0
DA:858,0
DA:859,0
DA:863,0
DA:864,0
DA:865,0
DA:866,0
DA:867,0
DA:868,0
DA:869,0
DA:870,0
DA:874,0
DA:875,0
DA:876,0
DA:877,0
DA:878,0
DA:879,0
DA:880,0
DA:881,0
DA:885,0
DA:886,0
DA:887,0
DA:888,0
DA:889,0
DA:890,0
DA:891,0
DA:892,0
DA:893,0
DA:894,0
DA:895,0
DA:896,0
DA:900,0
DA:901,0
DA:902,0
DA:903,0
DA:904,0
DA:905,0
DA:906,0
DA:907,0
DA:908,0
DA:909,0
DA:910,0
DA:911,0
DA:915,0
DA:916,0
DA:917,0
DA:918,0
DA:919,0
DA:920,0
DA:921,0
DA:922,0
DA:923,0
DA:924,0
DA:925,0
DA:926,0
DA:930,0
DA:931,0
DA:932,0
DA:933,0
DA:934,0
DA:935,0
DA:936,0
DA:937,0
DA:941,0
DA:942,0
DA:943,0
DA:944,0
DA:945,0
DA:946,0
DA:947,0
DA:948,0
DA:952,0
DA:953,0
DA:954,0
DA:955,0
DA:956,0
DA:957,0
DA:958,0
DA:959,0
DA:960,0
DA:961,0
DA:962,0
DA:963,0
DA:967,0
DA:968,0
DA:969,0
DA:970,0
DA:971,0
DA:972,0
DA:973,0
DA:974,0
DA:978,0
DA:979,0
DA:980,0
DA:981,0
DA:982,0
DA:983,0
DA:984,0
DA:985,0
DA:989,0
DA:990,0
DA:991,0
DA:992,0
DA:993,0
DA:994,0
DA:995,0
DA:996,0
DA:997,0
DA:998,0
DA:999,0
DA:1000,0
DA:1004,0
DA:1005,0
DA:1006,0
DA:1007,0
DA:1008,0
DA:1009,0
DA:1010,0
DA:1011,0
DA:1015,0
DA:1016,0
DA:1017,0
DA:1018,0
DA:1019,0
DA:1020,0
DA:1021,0
DA:1022,0
DA:1026,0
DA:1027,0
DA:1028,0
DA:1029,0
DA:1030,0
DA:1031,0
DA:1032,0
DA:1033,0
DA:1034,0
DA:1035,0
DA:1036,0
DA:1037,0
DA:1041,0
DA:1042,0
DA:1043,0
DA:1044,0
DA:1045,0
DA:1046,0
DA:1047,0
DA:1048,0
DA:1049,0
DA:1050,0
DA:1051,0
DA:1052,0
DA:1056,0
DA:1057,0
DA:1058,0
DA:1059,0
DA:1060,0
DA:1061,0
DA:1062,0
DA:1063,0
DA:1064,0
DA:1065,0
DA:1066,0
DA:1067,0
DA:1071,0
DA:1072,0
DA:1073,0
DA:1074,0
DA:1075,0
DA:1076,0
DA:1077,0
DA:1078,0
DA:1079,0
DA:1080,0
DA:1081,0
DA:1082,0
DA:1086,0
DA:1087,0
DA:1088,0
DA:1089,0
DA:1090,0
DA:1091,0
DA:1092,0
DA:1093,0
DA:1094,0
DA:1095,0
DA:1096,0
DA:1097,0
DA:1109,0
DA:1110,0
DA:1111,0
DA:1112,0
DA:1113,0
DA:1114,0
DA:1115,0
DA:1116,0
DA:1117,0
DA:1118,0
DA:1119,0
DA:1120,0
DA:1122,0
DA:1123,0
DA:1124,0
DA:1125,0
DA:1126,0
DA:1127,0
DA:1128,0
DA:1129,0
DA:1130,0
DA:1131,0
DA:1132,0
DA:1133,0
DA:1157,0
DA:1158,0
DA:1159,0
DA:1160,0
DA:1161,0
DA:1162,0
DA:1163,0
DA:1164,0
DA:1165,0
DA:1166,0
DA:1167,0
DA:1168,0
DA:1190,0
DA:1191,0
DA:1192,0
DA:1193,0
DA:1194,0
DA:1195,0
DA:1196,0
DA:1197,0
DA:1198,0
DA:1199,0
DA:1200,0
DA:1201,0
DA:1232,0
DA:1233,0
DA:1234,0
DA:1235,0
DA:1236,0
DA:1237,0
DA:1238,0
DA:1239,0
DA:1240,0
DA:1241,0
DA:1242,0
DA:1243,0
DA:1244,0
DA:1245,0
DA:1246,0
DA:1247,0
DA:1248,0
DA:1249,0
DA:1250,0
DA:1251,0
DA:1252,0
DA:1273,0
DA:1274,0
DA:1275,0
DA:1276,0
DA:1277,0
DA:1278,0
DA:1279,0
DA:1280,0
DA:1281,0
DA:1282,0
DA:1283,0
DA:1284,0
DA:1285,0
DA:1286,0
DA:1287,0
DA:1308,0
DA:1309,0
DA:1310,0
DA:1311,0
DA:1312,0
DA:1313,0
DA:1314,0
DA:1315,0
DA:1316,0
DA:1317,0
DA:1318,0
DA:1319,0
DA:1320,0
DA:1321,0
DA:1322,0
DA:1340,0
DA:1341,0
DA:1342,0
DA:1343,0
DA:1344,0
DA:1345,0
DA:1346,0
DA:1347,0
DA:1348,0
DA:1349,0
DA:1350,0
DA:1351,0
DA:1369,0
DA:1370,0
DA:1371,0
DA:1372,0
DA:1373,0
DA:1374,0
DA:1375,0
DA:1376,0
DA:1377,0
DA:1378,0
DA:1379,0
DA:1380,0
DA:1398,0
DA:1399,0
DA:1400,0
DA:1401,0
DA:1402,0
DA:1403,0
DA:1404,0
DA:1405,0
DA:1406,0
DA:1407,0
DA:1408,0
DA:1409,0
DA:1427,0
DA:1428,0
DA:1429,0
DA:1430,0
DA:1431,0
DA:1432,0
DA:1433,0
DA:1434,0
DA:1435,0
DA:1436,0
DA:1437,0
DA:1438,0
DA:1440,0
DA:1441,0
DA:1442,0
DA:1443,0
DA:1444,0
DA:1445,0
DA:1446,0
DA:1447,0
DA:1448,0
DA:1449,0
DA:1450,0
DA:1451,0
DA:1453,0
DA:1454,0
DA:1455,0
DA:1456,0
DA:1457,0
DA:1458,0
DA:1459,0
DA:1460,0
DA:1461,0
DA:1462,0
DA:1463,0
DA:1464,0
DA:1466,0
DA:1467,0
DA:1468,0
DA:1469,0
DA:1470,0
DA:1471,0
DA:1472,0
DA:1473,0
DA:1474,0
DA:1475,0
DA:1476,0
DA:1477,0
BRF:0
BRH:0
LF:928
LH:0
end_of_record
SF:/Users/mihaieremia/GitHub/rs-lending/lending_pool/meta/src/main.rs
FN:1,_RNvCs25SV8ar1NgB_17lending_pool_meta4main
FNDA:0,_RNvCs25SV8ar1NgB_17lending_pool_meta4main
FNF:1
FNH:0
DA:1,0
DA:2,0
DA:3,0
BRF:0
BRH:0
LF:3
LH:0
end_of_record
SF:/Users/mihaieremia/GitHub/rs-lending/lending_pool/src/config.rs
FN:23,_RNvYpNtNtCshiqmisuHlyH_12lending_pool6config12ConfigModule22register_account_tokenB7_
FN:47,_RNvYpNtNtCshiqmisuHlyH_12lending_pool6config12ConfigModule16set_token_oracleB7_
FN:122,_RNvYpNtNtCshiqmisuHlyH_12lending_pool6config12ConfigModule27edit_token_oracle_toleranceB7_
FN:129,_RNCNvYpNtNtCshiqmisuHlyH_12lending_pool6config12ConfigModule27edit_token_oracle_tolerance0B9_
FN:136,_RNvYpNtNtCshiqmisuHlyH_12lending_pool6config12ConfigModule14set_aggregatorB7_
FN:148,_RNvYpNtNtCshiqmisuHlyH_12lending_pool6config12ConfigModule15set_accumulatorB7_
FN:160,_RNvYpNtNtCshiqmisuHlyH_12lending_pool6config12ConfigModule19set_safe_price_viewB7_
FN:172,_RNvYpNtNtCshiqmisuHlyH_12lending_pool6config12ConfigModule27set_liquidity_pool_templateB7_
FN:189,_RNvYpNtNtCshiqmisuHlyH_12lending_pool6config12ConfigModule19add_e_mode_categoryB7_
FN:209,_RNvYpNtNtCshiqmisuHlyH_12lending_pool6config12ConfigModule20edit_e_mode_categoryB7_
FN:222,_RNvYpNtNtCshiqmisuHlyH_12lending_pool6config12ConfigModule22remove_e_mode_categoryB7_
FN:253,_RNvYpNtNtCshiqmisuHlyH_12lending_pool6config12ConfigModule28add_asset_to_e_mode_categoryB7_
FN:301,_RNvYpNtNtCshiqmisuHlyH_12lending_pool6config12ConfigModule29edit_asset_in_e_mode_categoryB7_
FN:312,_RNvYpNtNtCshiqmisuHlyH_12lending_pool6config12ConfigModule33remove_asset_from_e_mode_categoryB7_
FN:357,_RNvYpNtNtCshiqmisuHlyH_12lending_pool6config12ConfigModule17edit_asset_configB7_
FN:12,_RNvYpNtNtCshiqmisuHlyH_12lending_pool6config16EndpointWrappers27call_register_account_tokenB7_
FN:12,_RNvYpNtNtCshiqmisuHlyH_12lending_pool6config16EndpointWrappers21call_set_token_oracleB7_
FN:12,_RNvYpNtNtCshiqmisuHlyH_12lending_pool6config16EndpointWrappers32call_edit_token_oracle_toleranceB7_
FN:12,_RNvYpNtNtCshiqmisuHlyH_12lending_pool6config16EndpointWrappers19call_set_aggregatorB7_
FN:12,_RNvYpNtNtCshiqmisuHlyH_12lending_pool6config16EndpointWrappers20call_set_accumulatorB7_
FN:12,_RNvYpNtNtCshiqmisuHlyH_12lending_pool6config16EndpointWrappers24call_set_safe_price_viewB7_
FN:12,_RNvYpNtNtCshiqmisuHlyH_12lending_pool6config16EndpointWrappers32call_set_liquidity_pool_templateB7_
FN:12,_RNvYpNtNtCshiqmisuHlyH_12lending_pool6config16EndpointWrappers24call_add_e_mode_categoryB7_
FN:12,_RNvYpNtNtCshiqmisuHlyH_12lending_pool6config16EndpointWrappers25call_edit_e_mode_categoryB7_
FN:12,_RNvYpNtNtCshiqmisuHlyH_12lending_pool6config16EndpointWrappers27call_remove_e_mode_categoryB7_
FN:12,_RNvYpNtNtCshiqmisuHlyH_12lending_pool6config16EndpointWrappers33call_add_asset_to_e_mode_categoryB7_
FN:12,_RNvYpNtNtCshiqmisuHlyH_12lending_pool6config16EndpointWrappers34call_edit_asset_in_e_mode_categoryB7_
FN:12,_RNvYpNtNtCshiqmisuHlyH_12lending_pool6config16EndpointWrappers38call_remove_asset_from_e_mode_categoryB7_
FN:12,_RNvYpNtNtCshiqmisuHlyH_12lending_pool6config16EndpointWrappers22call_edit_asset_configB7_
FN:12,_RNvYpNtNtCshiqmisuHlyH_12lending_pool6config16EndpointWrappers4callB7_
FN:12,_RNvYpNtNtCshiqmisuHlyH_12lending_pool6config16EndpointWrappers17callback_selectorB7_
FN:12,_RNvYpNtNtCshiqmisuHlyH_12lending_pool6config16EndpointWrappers8callbackB7_
FN:12,_RNvXs1_NtCshiqmisuHlyH_12lending_pool6configNtB5_11AbiProviderNtNtNtCslPMlHj3qn2H_13multiversx_sc13contract_base21contract_abi_provider19ContractAbiProvider3abi
FN:12,_RNvXININtCshiqmisuHlyH_12lending_pool6configsf_0pEINtB5_11ContractObjpENtNtNtCslPMlHj3qn2H_13multiversx_sc13contract_base17callable_contract16CallableContract4callB7_
FN:12,_RINvNtCshiqmisuHlyH_12lending_pool6config12contract_objpEB4_
FN:12,_RINvXsg_NtCshiqmisuHlyH_12lending_pool6configNtB6_15ContractBuilderNtNtNtCslPMlHj3qn2H_13multiversx_sc13contract_base17callable_contract23CallableContractBuilder16new_contract_objpEB8_
FN:12,_RINvNtNtCshiqmisuHlyH_12lending_pool6config19___wasm__endpoints__22register_account_tokenpEB6_
FN:12,_RINvNtNtCshiqmisuHlyH_12lending_pool6config19___wasm__endpoints__16set_token_oraclepEB6_
FN:12,_RINvNtNtCshiqmisuHlyH_12lending_pool6config19___wasm__endpoints__27edit_token_oracle_tolerancepEB6_
FN:12,_RINvNtNtCshiqmisuHlyH_12lending_pool6config19___wasm__endpoints__14set_aggregatorpEB6_
FN:12,_RINvNtNtCshiqmisuHlyH_12lending_pool6config19___wasm__endpoints__15set_accumulatorpEB6_
FN:12,_RINvNtNtCshiqmisuHlyH_12lending_pool6config19___wasm__endpoints__19set_safe_price_viewpEB6_
FN:12,_RINvNtNtCshiqmisuHlyH_12lending_pool6config19___wasm__endpoints__27set_liquidity_pool_templatepEB6_
FN:12,_RINvNtNtCshiqmisuHlyH_12lending_pool6config19___wasm__endpoints__19add_e_mode_categorypEB6_
FN:12,_RINvNtNtCshiqmisuHlyH_12lending_pool6config19___wasm__endpoints__20edit_e_mode_categorypEB6_
FN:12,_RINvNtNtCshiqmisuHlyH_12lending_pool6config19___wasm__endpoints__22remove_e_mode_categorypEB6_
FN:12,_RINvNtNtCshiqmisuHlyH_12lending_pool6config19___wasm__endpoints__28add_asset_to_e_mode_categorypEB6_
FN:12,_RINvNtNtCshiqmisuHlyH_12lending_pool6config19___wasm__endpoints__29edit_asset_in_e_mode_categorypEB6_
FN:12,_RINvNtNtCshiqmisuHlyH_12lending_pool6config19___wasm__endpoints__33remove_asset_from_e_mode_categorypEB6_
FN:12,_RINvNtNtCshiqmisuHlyH_12lending_pool6config19___wasm__endpoints__17edit_asset_configpEB6_
FN:12,_RINvYpNtNtCshiqmisuHlyH_12lending_pool6config10ProxyTrait22register_account_tokenppEB8_
FN:12,_RINvYpNtNtCshiqmisuHlyH_12lending_pool6config10ProxyTrait16set_token_oracleppppppppEB8_
FN:12,_RINvYpNtNtCshiqmisuHlyH_12lending_pool6config10ProxyTrait27edit_token_oracle_tolerancepppEB8_
FN:12,_RINvYpNtNtCshiqmisuHlyH_12lending_pool6config10ProxyTrait14set_aggregatorpEB8_
FN:12,_RINvYpNtNtCshiqmisuHlyH_12lending_pool6config10ProxyTrait15set_accumulatorpEB8_
FN:12,_RINvYpNtNtCshiqmisuHlyH_12lending_pool6config10ProxyTrait19set_safe_price_viewpEB8_
FN:12,_RINvYpNtNtCshiqmisuHlyH_12lending_pool6config10ProxyTrait27set_liquidity_pool_templatepEB8_
FN:12,_RINvYpNtNtCshiqmisuHlyH_12lending_pool6config10ProxyTrait19add_e_mode_categorypppEB8_
FN:12,_RINvYpNtNtCshiqmisuHlyH_12lending_pool6config10ProxyTrait20edit_e_mode_categorypEB8_
FN:12,_RINvYpNtNtCshiqmisuHlyH_12lending_pool6config10ProxyTrait22remove_e_mode_categorypEB8_
FN:12,_RINvYpNtNtCshiqmisuHlyH_12lending_pool6config10ProxyTrait28add_asset_to_e_mode_categoryppppEB8_
FN:12,_RINvYpNtNtCshiqmisuHlyH_12lending_pool6config10ProxyTrait29edit_asset_in_e_mode_categorypppEB8_
FN:12,_RINvYpNtNtCshiqmisuHlyH_12lending_pool6config10ProxyTrait33remove_asset_from_e_mode_categoryppEB8_
FN:12,_RINvYpNtNtCshiqmisuHlyH_12lending_pool6config10ProxyTrait17edit_asset_configpppppppppppppppEB8_
FN:136,_RNvYINtCs48qTgYy1n57_12lending_pool11ContractObjINtNtNtNtCs1rODQd5oASQ_22multiversx_sc_scenario3api7impl_vh12vm_hooks_api10VMHooksApiNtNtBP_9debug_api15DebugApiBackendEENtNtB5_6config12ConfigModule14set_aggregatorCs8iyf5MSkCde_5tests
FN:148,_RNvYINtCs48qTgYy1n57_12lending_pool11ContractObjINtNtNtNtCs1rODQd5oASQ_22multiversx_sc_scenario3api7impl_vh12vm_hooks_api10VMHooksApiNtNtBP_9debug_api15DebugApiBackendEENtNtB5_6config12ConfigModule15set_accumulatorCs8iyf5MSkCde_5tests
FN:47,_RNvYINtCs48qTgYy1n57_12lending_pool11ContractObjINtNtNtNtCs1rODQd5oASQ_22multiversx_sc_scenario3api7impl_vh12vm_hooks_api10VMHooksApiNtNtBP_9debug_api15DebugApiBackendEENtNtB5_6config12ConfigModule16set_token_oracleCs8iyf5MSkCde_5tests
FN:357,_RNvYINtCs48qTgYy1n57_12lending_pool11ContractObjINtNtNtNtCs1rODQd5oASQ_22multiversx_sc_scenario3api7impl_vh12vm_hooks_api10VMHooksApiNtNtBP_9debug_api15DebugApiBackendEENtNtB5_6config12ConfigModule17edit_asset_configCs8iyf5MSkCde_5tests
FN:189,_RNvYINtCs48qTgYy1n57_12lending_pool11ContractObjINtNtNtNtCs1rODQd5oASQ_22multiversx_sc_scenario3api7impl_vh12vm_hooks_api10VMHooksApiNtNtBP_9debug_api15DebugApiBackendEENtNtB5_6config12ConfigModule19add_e_mode_categoryCs8iyf5MSkCde_5tests
FN:160,_RNvYINtCs48qTgYy1n57_12lending_pool11ContractObjINtNtNtNtCs1rODQd5oASQ_22multiversx_sc_scenario3api7impl_vh12vm_hooks_api10VMHooksApiNtNtBP_9debug_api15DebugApiBackendEENtNtB5_6config12ConfigModule19set_safe_price_viewCs8iyf5MSkCde_5tests
FN:209,_RNvYINtCs48qTgYy1n57_12lending_pool11ContractObjINtNtNtNtCs1rODQd5oASQ_22multiversx_sc_scenario3api7impl_vh12vm_hooks_api10VMHooksApiNtNtBP_9debug_api15DebugApiBackendEENtNtB5_6config12ConfigModule20edit_e_mode_categoryCs8iyf5MSkCde_5tests
FN:23,_RNvYINtCs48qTgYy1n57_12lending_pool11ContractObjINtNtNtNtCs1rODQd5oASQ_22multiversx_sc_scenario3api7impl_vh12vm_hooks_api10VMHooksApiNtNtBP_9debug_api15DebugApiBackendEENtNtB5_6config12ConfigModule22register_account_tokenCs8iyf5MSkCde_5tests
FN:222,_RNvYINtCs48qTgYy1n57_12lending_pool11ContractObjINtNtNtNtCs1rODQd5oASQ_22multiversx_sc_scenario3api7impl_vh12vm_hooks_api10VMHooksApiNtNtBP_9debug_api15DebugApiBackendEENtNtB5_6config12ConfigModule22remove_e_mode_categoryCs8iyf5MSkCde_5tests
FN:122,_RNvYINtCs48qTgYy1n57_12lending_pool11ContractObjINtNtNtNtCs1rODQd5oASQ_22multiversx_sc_scenario3api7impl_vh12vm_hooks_api10VMHooksApiNtNtBP_9debug_api15DebugApiBackendEENtNtB5_6config12ConfigModule27edit_token_oracle_toleranceCs8iyf5MSkCde_5tests
FN:172,_RNvYINtCs48qTgYy1n57_12lending_pool11ContractObjINtNtNtNtCs1rODQd5oASQ_22multiversx_sc_scenario3api7impl_vh12vm_hooks_api10VMHooksApiNtNtBP_9debug_api15DebugApiBackendEENtNtB5_6config12ConfigModule27set_liquidity_pool_templateCs8iyf5MSkCde_5tests
FN:253,_RNvYINtCs48qTgYy1n57_12lending_pool11ContractObjINtNtNtNtCs1rODQd5oASQ_22multiversx_sc_scenario3api7impl_vh12vm_hooks_api10VMHooksApiNtNtBP_9debug_api15DebugApiBackendEENtNtB5_6config12ConfigModule28add_asset_to_e_mode_categoryCs8iyf5MSkCde_5tests
FN:301,_RNvYINtCs48qTgYy1n57_12lending_pool11ContractObjINtNtNtNtCs1rODQd5oASQ_22multiversx_sc_scenario3api7impl_vh12vm_hooks_api10VMHooksApiNtNtBP_9debug_api15DebugApiBackendEENtNtB5_6config12ConfigModule29edit_asset_in_e_mode_categoryCs8iyf5MSkCde_5tests
FN:312,_RNvYINtCs48qTgYy1n57_12lending_pool11ContractObjINtNtNtNtCs1rODQd5oASQ_22multiversx_sc_scenario3api7impl_vh12vm_hooks_api10VMHooksApiNtNtBP_9debug_api15DebugApiBackendEENtNtB5_6config12ConfigModule33remove_asset_from_e_mode_categoryCs8iyf5MSkCde_5tests
FN:12,_RNvYINtCs48qTgYy1n57_12lending_pool11ContractObjINtNtNtNtCs1rODQd5oASQ_22multiversx_sc_scenario3api7impl_vh12vm_hooks_api10VMHooksApiNtNtBP_9debug_api15DebugApiBackendEENtNtB5_6config16EndpointWrappers17callback_selectorCs8iyf5MSkCde_5tests
FN:12,_RNvYINtCs48qTgYy1n57_12lending_pool11ContractObjINtNtNtNtCs1rODQd5oASQ_22multiversx_sc_scenario3api7impl_vh12vm_hooks_api10VMHooksApiNtNtBP_9debug_api15DebugApiBackendEENtNtB5_6config16EndpointWrappers19call_set_aggregatorCs8iyf5MSkCde_5tests
FN:12,_RNvYINtCs48qTgYy1n57_12lending_pool11ContractObjINtNtNtNtCs1rODQd5oASQ_22multiversx_sc_scenario3api7impl_vh12vm_hooks_api10VMHooksApiNtNtBP_9debug_api15DebugApiBackendEENtNtB5_6config16EndpointWrappers20call_set_accumulatorCs8iyf5MSkCde_5tests
FN:12,_RNvYINtCs48qTgYy1n57_12lending_pool11ContractObjINtNtNtNtCs1rODQd5oASQ_22multiversx_sc_scenario3api7impl_vh12vm_hooks_api10VMHooksApiNtNtBP_9debug_api15DebugApiBackendEENtNtB5_6config16EndpointWrappers21call_set_token_oracleCs8iyf5MSkCde_5tests
FN:12,_RNvYINtCs48qTgYy1n57_12lending_pool11ContractObjINtNtNtNtCs1rODQd5oASQ_22multiversx_sc_scenario3api7impl_vh12vm_hooks_api10VMHooksApiNtNtBP_9debug_api15DebugApiBackendEENtNtB5_6config16EndpointWrappers22call_edit_asset_configCs8iyf5MSkCde_5tests
FN:12,_RNvYINtCs48qTgYy1n57_12lending_pool11ContractObjINtNtNtNtCs1rODQd5oASQ_22multiversx_sc_scenario3api7impl_vh12vm_hooks_api10VMHooksApiNtNtBP_9debug_api15DebugApiBackendEENtNtB5_6config16EndpointWrappers24call_add_e_mode_categoryCs8iyf5MSkCde_5tests
FN:12,_RNvYINtCs48qTgYy1n57_12lending_pool11ContractObjINtNtNtNtCs1rODQd5oASQ_22multiversx_sc_scenario3api7impl_vh12vm_hooks_api10VMHooksApiNtNtBP_9debug_api15DebugApiBackendEENtNtB5_6config16EndpointWrappers24call_set_safe_price_viewCs8iyf5MSkCde_5tests
FN:12,_RNvYINtCs48qTgYy1n57_12lending_pool11ContractObjINtNtNtNtCs1rODQd5oASQ_22multiversx_sc_scenario3api7impl_vh12vm_hooks_api10VMHooksApiNtNtBP_9debug_api15DebugApiBackendEENtNtB5_6config16EndpointWrappers25call_edit_e_mode_categoryCs8iyf5MSkCde_5tests
FN:12,_RNvYINtCs48qTgYy1n57_12lending_pool11ContractObjINtNtNtNtCs1rODQd5oASQ_22multiversx_sc_scenario3api7impl_vh12vm_hooks_api10VMHooksApiNtNtBP_9debug_api15DebugApiBackendEENtNtB5_6config16EndpointWrappers27call_register_account_tokenCs8iyf5MSkCde_5tests
FN:12,_RNvYINtCs48qTgYy1n57_12lending_pool11ContractObjINtNtNtNtCs1rODQd5oASQ_22multiversx_sc_scenario3api7impl_vh12vm_hooks_api10VMHooksApiNtNtBP_9debug_api15DebugApiBackendEENtNtB5_6config16EndpointWrappers27call_remove_e_mode_categoryCs8iyf5MSkCde_5tests
FN:12,_RNvYINtCs48qTgYy1n57_12lending_pool11ContractObjINtNtNtNtCs1rODQd5oASQ_22multiversx_sc_scenario3api7impl_vh12vm_hooks_api10VMHooksApiNtNtBP_9debug_api15DebugApiBackendEENtNtB5_6config16EndpointWrappers32call_edit_token_oracle_toleranceCs8iyf5MSkCde_5tests
FN:12,_RNvYINtCs48qTgYy1n57_12lending_pool11ContractObjINtNtNtNtCs1rODQd5oASQ_22multiversx_sc_scenario3api7impl_vh12vm_hooks_api10VMHooksApiNtNtBP_9debug_api15DebugApiBackendEENtNtB5_6config16EndpointWrappers32call_set_liquidity_pool_templateCs8iyf5MSkCde_5tests
FN:12,_RNvYINtCs48qTgYy1n57_12lending_pool11ContractObjINtNtNtNtCs1rODQd5oASQ_22multiversx_sc_scenario3api7impl_vh12vm_hooks_api10VMHooksApiNtNtBP_9debug_api15DebugApiBackendEENtNtB5_6config16EndpointWrappers33call_add_asset_to_e_mode_categoryCs8iyf5MSkCde_5tests
FN:12,_RNvYINtCs48qTgYy1n57_12lending_pool11ContractObjINtNtNtNtCs1rODQd5oASQ_22multiversx_sc_scenario3api7impl_vh12vm_hooks_api10VMHooksApiNtNtBP_9debug_api15DebugApiBackendEENtNtB5_6config16EndpointWrappers34call_edit_asset_in_e_mode_categoryCs8iyf5MSkCde_5tests
FN:12,_RNvYINtCs48qTgYy1n57_12lending_pool11ContractObjINtNtNtNtCs1rODQd5oASQ_22multiversx_sc_scenario3api7impl_vh12vm_hooks_api10VMHooksApiNtNtBP_9debug_api15DebugApiBackendEENtNtB5_6config16EndpointWrappers38call_remove_asset_from_e_mode_categoryCs8iyf5MSkCde_5tests
FN:12,_RNvYINtCs48qTgYy1n57_12lending_pool11ContractObjINtNtNtNtCs1rODQd5oASQ_22multiversx_sc_scenario3api7impl_vh12vm_hooks_api10VMHooksApiNtNtBP_9debug_api15DebugApiBackendEENtNtB5_6config16EndpointWrappers4callCs8iyf5MSkCde_5tests
FN:12,_RNvYINtCs48qTgYy1n57_12lending_pool11ContractObjINtNtNtNtCs1rODQd5oASQ_22multiversx_sc_scenario3api7impl_vh12vm_hooks_api10VMHooksApiNtNtBP_9debug_api15DebugApiBackendEENtNtB5_6config16EndpointWrappers8callbackCs8iyf5MSkCde_5tests
FN:129,_RNCNvYINtCs48qTgYy1n57_12lending_pool11ContractObjINtNtNtNtCs1rODQd5oASQ_22multiversx_sc_scenario3api7impl_vh12vm_hooks_api10VMHooksApiNtNtBR_9debug_api15DebugApiBackendEENtNtB7_6config12ConfigModule27edit_token_oracle_tolerance0Cs8iyf5MSkCde_5tests
FNDA:0,_RNvYpNtNtCshiqmisuHlyH_12lending_pool6config12ConfigModule22register_account_tokenB7_
FNDA:0,_RNvYpNtNtCshiqmisuHlyH_12lending_pool6config12ConfigModule16set_token_oracleB7_
FNDA:0,_RNvYpNtNtCshiqmisuHlyH_12lending_pool6config12ConfigModule27edit_token_oracle_toleranceB7_
FNDA:0,_RNCNvYpNtNtCshiqmisuHlyH_12lending_pool6config12ConfigModule27edit_token_oracle_tolerance0B9_
FNDA:0,_RNvYpNtNtCshiqmisuHlyH_12lending_pool6config12ConfigModule14set_aggregatorB7_
FNDA:0,_RNvYpNtNtCshiqmisuHlyH_12lending_pool6config12ConfigModule15set_accumulatorB7_
FNDA:0,_RNvYpNtNtCshiqmisuHlyH_12lending_pool6config12ConfigModule19set_safe_price_viewB7_
FNDA:0,_RNvYpNtNtCshiqmisuHlyH_12lending_pool6config12ConfigModule27set_liquidity_pool_templateB7_
FNDA:0,_RNvYpNtNtCshiqmisuHlyH_12lending_pool6config12ConfigModule19add_e_mode_categoryB7_
FNDA:0,_RNvYpNtNtCshiqmisuHlyH_12lending_pool6config12ConfigModule20edit_e_mode_categoryB7_
FNDA:0,_RNvYpNtNtCshiqmisuHlyH_12lending_pool6config12ConfigModule22remove_e_mode_categoryB7_
FNDA:0,_RNvYpNtNtCshiqmisuHlyH_12lending_pool6config12ConfigModule28add_asset_to_e_mode_categoryB7_
FNDA:0,_RNvYpNtNtCshiqmisuHlyH_12lending_pool6config12ConfigModule29edit_asset_in_e_mode_categoryB7_
FNDA:0,_RNvYpNtNtCshiqmisuHlyH_12lending_pool6config12ConfigModule33remove_asset_from_e_mode_categoryB7_
FNDA:0,_RNvYpNtNtCshiqmisuHlyH_12lending_pool6config12ConfigModule17edit_asset_configB7_
FNDA:0,_RNvYpNtNtCshiqmisuHlyH_12lending_pool6config16EndpointWrappers27call_register_account_tokenB7_
FNDA:0,_RNvYpNtNtCshiqmisuHlyH_12lending_pool6config16EndpointWrappers21call_set_token_oracleB7_
FNDA:0,_RNvYpNtNtCshiqmisuHlyH_12lending_pool6config16EndpointWrappers32call_edit_token_oracle_toleranceB7_
FNDA:0,_RNvYpNtNtCshiqmisuHlyH_12lending_pool6config16EndpointWrappers19call_set_aggregatorB7_
FNDA:0,_RNvYpNtNtCshiqmisuHlyH_12lending_pool6config16EndpointWrappers20call_set_accumulatorB7_
FNDA:0,_RNvYpNtNtCshiqmisuHlyH_12lending_pool6config16EndpointWrappers24call_set_safe_price_viewB7_
FNDA:0,_RNvYpNtNtCshiqmisuHlyH_12lending_pool6config16EndpointWrappers32call_set_liquidity_pool_templateB7_
FNDA:0,_RNvYpNtNtCshiqmisuHlyH_12lending_pool6config16EndpointWrappers24call_add_e_mode_categoryB7_
FNDA:0,_RNvYpNtNtCshiqmisuHlyH_12lending_pool6config16EndpointWrappers25call_edit_e_mode_categoryB7_
FNDA:0,_RNvYpNtNtCshiqmisuHlyH_12lending_pool6config16EndpointWrappers27call_remove_e_mode_categoryB7_
FNDA:0,_RNvYpNtNtCshiqmisuHlyH_12lending_pool6config16EndpointWrappers33call_add_asset_to_e_mode_categoryB7_
FNDA:0,_RNvYpNtNtCshiqmisuHlyH_12lending_pool6config16EndpointWrappers34call_edit_asset_in_e_mode_categoryB7_
FNDA:0,_RNvYpNtNtCshiqmisuHlyH_12lending_pool6config16EndpointWrappers38call_remove_asset_from_e_mode_categoryB7_
FNDA:0,_RNvYpNtNtCshiqmisuHlyH_12lending_pool6config16EndpointWrappers22call_edit_asset_configB7_
FNDA:0,_RNvYpNtNtCshiqmisuHlyH_12lending_pool6config16EndpointWrappers4callB7_
FNDA:0,_RNvYpNtNtCshiqmisuHlyH_12lending_pool6config16EndpointWrappers17callback_selectorB7_
FNDA:0,_RNvYpNtNtCshiqmisuHlyH_12lending_pool6config16EndpointWrappers8callbackB7_
FNDA:0,_RNvXs1_NtCshiqmisuHlyH_12lending_pool6configNtB5_11AbiProviderNtNtNtCslPMlHj3qn2H_13multiversx_sc13contract_base21contract_abi_provider19ContractAbiProvider3abi
FNDA:0,_RNvXININtCshiqmisuHlyH_12lending_pool6configsf_0pEINtB5_11ContractObjpENtNtNtCslPMlHj3qn2H_13multiversx_sc13contract_base17callable_contract16CallableContract4callB7_
FNDA:0,_RINvNtCshiqmisuHlyH_12lending_pool6config12contract_objpEB4_
FNDA:0,_RINvXsg_NtCshiqmisuHlyH_12lending_pool6configNtB6_15ContractBuilderNtNtNtCslPMlHj3qn2H_13multiversx_sc13contract_base17callable_contract23CallableContractBuilder16new_contract_objpEB8_
FNDA:0,_RINvNtNtCshiqmisuHlyH_12lending_pool6config19___wasm__endpoints__22register_account_tokenpEB6_
FNDA:0,_RINvNtNtCshiqmisuHlyH_12lending_pool6config19___wasm__endpoints__16set_token_oraclepEB6_
FNDA:0,_RINvNtNtCshiqmisuHlyH_12lending_pool6config19___wasm__endpoints__27edit_token_oracle_tolerancepEB6_
FNDA:0,_RINvNtNtCshiqmisuHlyH_12lending_pool6config19___wasm__endpoints__14set_aggregatorpEB6_
FNDA:0,_RINvNtNtCshiqmisuHlyH_12lending_pool6config19___wasm__endpoints__15set_accumulatorpEB6_
FNDA:0,_RINvNtNtCshiqmisuHlyH_12lending_pool6config19___wasm__endpoints__19set_safe_price_viewpEB6_
FNDA:0,_RINvNtNtCshiqmisuHlyH_12lending_pool6config19___wasm__endpoints__27set_liquidity_pool_templatepEB6_
FNDA:0,_RINvNtNtCshiqmisuHlyH_12lending_pool6config19___wasm__endpoints__19add_e_mode_categorypEB6_
FNDA:0,_RINvNtNtCshiqmisuHlyH_12lending_pool6config19___wasm__endpoints__20edit_e_mode_categorypEB6_
FNDA:0,_RINvNtNtCshiqmisuHlyH_12lending_pool6config19___wasm__endpoints__22remove_e_mode_categorypEB6_
FNDA:0,_RINvNtNtCshiqmisuHlyH_12lending_pool6config19___wasm__endpoints__28add_asset_to_e_mode_categorypEB6_
FNDA:0,_RINvNtNtCshiqmisuHlyH_12lending_pool6config19___wasm__endpoints__29edit_asset_in_e_mode_categorypEB6_
FNDA:0,_RINvNtNtCshiqmisuHlyH_12lending_pool6config19___wasm__endpoints__33remove_asset_from_e_mode_categorypEB6_
FNDA:0,_RINvNtNtCshiqmisuHlyH_12lending_pool6config19___wasm__endpoints__17edit_asset_configpEB6_
FNDA:0,_RINvYpNtNtCshiqmisuHlyH_12lending_pool6config10ProxyTrait22register_account_tokenppEB8_
FNDA:0,_RINvYpNtNtCshiqmisuHlyH_12lending_pool6config10ProxyTrait16set_token_oracleppppppppEB8_
FNDA:0,_RINvYpNtNtCshiqmisuHlyH_12lending_pool6config10ProxyTrait27edit_token_oracle_tolerancepppEB8_
FNDA:0,_RINvYpNtNtCshiqmisuHlyH_12lending_pool6config10ProxyTrait14set_aggregatorpEB8_
FNDA:0,_RINvYpNtNtCshiqmisuHlyH_12lending_pool6config10ProxyTrait15set_accumulatorpEB8_
FNDA:0,_RINvYpNtNtCshiqmisuHlyH_12lending_pool6config10ProxyTrait19set_safe_price_viewpEB8_
FNDA:0,_RINvYpNtNtCshiqmisuHlyH_12lending_pool6config10ProxyTrait27set_liquidity_pool_templatepEB8_
FNDA:0,_RINvYpNtNtCshiqmisuHlyH_12lending_pool6config10ProxyTrait19add_e_mode_categorypppEB8_
FNDA:0,_RINvYpNtNtCshiqmisuHlyH_12lending_pool6config10ProxyTrait20edit_e_mode_categorypEB8_
FNDA:0,_RINvYpNtNtCshiqmisuHlyH_12lending_pool6config10ProxyTrait22remove_e_mode_categorypEB8_
FNDA:0,_RINvYpNtNtCshiqmisuHlyH_12lending_pool6config10ProxyTrait28add_asset_to_e_mode_categoryppppEB8_
FNDA:0,_RINvYpNtNtCshiqmisuHlyH_12lending_pool6config10ProxyTrait29edit_asset_in_e_mode_categorypppEB8_
FNDA:0,_RINvYpNtNtCshiqmisuHlyH_12lending_pool6config10ProxyTrait33remove_asset_from_e_mode_categoryppEB8_
FNDA:0,_RINvYpNtNtCshiqmisuHlyH_12lending_pool6config10ProxyTrait17edit_asset_configpppppppppppppppEB8_
FNDA:0,_RNvYINtCs48qTgYy1n57_12lending_pool11ContractObjINtNtNtNtCs1rODQd5oASQ_22multiversx_sc_scenario3api7impl_vh12vm_hooks_api10VMHooksApiNtNtBP_9debug_api15DebugApiBackendEENtNtB5_6config12ConfigModule14set_aggregatorCs8iyf5MSkCde_5tests
FNDA:0,_RNvYINtCs48qTgYy1n57_12lending_pool11ContractObjINtNtNtNtCs1rODQd5oASQ_22multiversx_sc_scenario3api7impl_vh12vm_hooks_api10VMHooksApiNtNtBP_9debug_api15DebugApiBackendEENtNtB5_6config12ConfigModule15set_accumulatorCs8iyf5MSkCde_5tests
FNDA:564,_RNvYINtCs48qTgYy1n57_12lending_pool11ContractObjINtNtNtNtCs1rODQd5oASQ_22multiversx_sc_scenario3api7impl_vh12vm_hooks_api10VMHooksApiNtNtBP_9debug_api15DebugApiBackendEENtNtB5_6config12ConfigModule16set_token_oracleCs8iyf5MSkCde_5tests
FNDA:0,_RNvYINtCs48qTgYy1n57_12lending_pool11ContractObjINtNtNtNtCs1rODQd5oASQ_22multiversx_sc_scenario3api7impl_vh12vm_hooks_api10VMHooksApiNtNtBP_9debug_api15DebugApiBackendEENtNtB5_6config12ConfigModule17edit_asset_configCs8iyf5MSkCde_5tests
FNDA:47,_RNvYINtCs48qTgYy1n57_12lending_pool11ContractObjINtNtNtNtCs1rODQd5oASQ_22multiversx_sc_scenario3api7impl_vh12vm_hooks_api10VMHooksApiNtNtBP_9debug_api15DebugApiBackendEENtNtB5_6config12ConfigModule19add_e_mode_categoryCs8iyf5MSkCde_5tests
FNDA:0,_RNvYINtCs48qTgYy1n57_12lending_pool11ContractObjINtNtNtNtCs1rODQd5oASQ_22multiversx_sc_scenario3api7impl_vh12vm_hooks_api10VMHooksApiNtNtBP_9debug_api15DebugApiBackendEENtNtB5_6config12ConfigModule19set_safe_price_viewCs8iyf5MSkCde_5tests
FNDA:0,_RNvYINtCs48qTgYy1n57_12lending_pool11ContractObjINtNtNtNtCs1rODQd5oASQ_22multiversx_sc_scenario3api7impl_vh12vm_hooks_api10VMHooksApiNtNtBP_9debug_api15DebugApiBackendEENtNtB5_6config12ConfigModule20edit_e_mode_categoryCs8iyf5MSkCde_5tests
FNDA:0,_RNvYINtCs48qTgYy1n57_12lending_pool11ContractObjINtNtNtNtCs1rODQd5oASQ_22multiversx_sc_scenario3api7impl_vh12vm_hooks_api10VMHooksApiNtNtBP_9debug_api15DebugApiBackendEENtNtB5_6config12ConfigModule22register_account_tokenCs8iyf5MSkCde_5tests
FNDA:0,_RNvYINtCs48qTgYy1n57_12lending_pool11ContractObjINtNtNtNtCs1rODQd5oASQ_22multiversx_sc_scenario3api7impl_vh12vm_hooks_api10VMHooksApiNtNtBP_9debug_api15DebugApiBackendEENtNtB5_6config12ConfigModule22remove_e_mode_categoryCs8iyf5MSkCde_5tests
FNDA:0,_RNvYINtCs48qTgYy1n57_12lending_pool11ContractObjINtNtNtNtCs1rODQd5oASQ_22multiversx_sc_scenario3api7impl_vh12vm_hooks_api10VMHooksApiNtNtBP_9debug_api15DebugApiBackendEENtNtB5_6config12ConfigModule27edit_token_oracle_toleranceCs8iyf5MSkCde_5tests
FNDA:0,_RNvYINtCs48qTgYy1n57_12lending_pool11ContractObjINtNtNtNtCs1rODQd5oASQ_22multiversx_sc_scenario3api7impl_vh12vm_hooks_api10VMHooksApiNtNtBP_9debug_api15DebugApiBackendEENtNtB5_6config12ConfigModule27set_liquidity_pool_templateCs8iyf5MSkCde_5tests
FNDA:188,_RNvYINtCs48qTgYy1n57_12lending_pool11ContractObjINtNtNtNtCs1rODQd5oASQ_22multiversx_sc_scenario3api7impl_vh12vm_hooks_api10VMHooksApiNtNtBP_9debug_api15DebugApiBackendEENtNtB5_6config12ConfigModule28add_asset_to_e_mode_categoryCs8iyf5MSkCde_5tests
FNDA:0,_RNvYINtCs48qTgYy1n57_12lending_pool11ContractObjINtNtNtNtCs1rODQd5oASQ_22multiversx_sc_scenario3api7impl_vh12vm_hooks_api10VMHooksApiNtNtBP_9debug_api15DebugApiBackendEENtNtB5_6config12ConfigModule29edit_asset_in_e_mode_categoryCs8iyf5MSkCde_5tests
FNDA:0,_RNvYINtCs48qTgYy1n57_12lending_pool11ContractObjINtNtNtNtCs1rODQd5oASQ_22multiversx_sc_scenario3api7impl_vh12vm_hooks_api10VMHooksApiNtNtBP_9debug_api15DebugApiBackendEENtNtB5_6config12ConfigModule33remove_asset_from_e_mode_categoryCs8iyf5MSkCde_5tests
FNDA:0,_RNvYINtCs48qTgYy1n57_12lending_pool11ContractObjINtNtNtNtCs1rODQd5oASQ_22multiversx_sc_scenario3api7impl_vh12vm_hooks_api10VMHooksApiNtNtBP_9debug_api15DebugApiBackendEENtNtB5_6config16EndpointWrappers17callback_selectorCs8iyf5MSkCde_5tests
FNDA:0,_RNvYINtCs48qTgYy1n57_12lending_pool11ContractObjINtNtNtNtCs1rODQd5oASQ_22multiversx_sc_scenario3api7impl_vh12vm_hooks_api10VMHooksApiNtNtBP_9debug_api15DebugApiBackendEENtNtB5_6config16EndpointWrappers19call_set_aggregatorCs8iyf5MSkCde_5tests
FNDA:0,_RNvYINtCs48qTgYy1n57_12lending_pool11ContractObjINtNtNtNtCs1rODQd5oASQ_22multiversx_sc_scenario3api7impl_vh12vm_hooks_api10VMHooksApiNtNtBP_9debug_api15DebugApiBackendEENtNtB5_6config16EndpointWrappers20call_set_accumulatorCs8iyf5MSkCde_5tests
FNDA:564,_RNvYINtCs48qTgYy1n57_12lending_pool11ContractObjINtNtNtNtCs1rODQd5oASQ_22multiversx_sc_scenario3api7impl_vh12vm_hooks_api10VMHooksApiNtNtBP_9debug_api15DebugApiBackendEENtNtB5_6config16EndpointWrappers21call_set_token_oracleCs8iyf5MSkCde_5tests
FNDA:0,_RNvYINtCs48qTgYy1n57_12lending_pool11ContractObjINtNtNtNtCs1rODQd5oASQ_22multiversx_sc_scenario3api7impl_vh12vm_hooks_api10VMHooksApiNtNtBP_9debug_api15DebugApiBackendEENtNtB5_6config16EndpointWrappers22call_edit_asset_configCs8iyf5MSkCde_5tests
FNDA:47,_RNvYINtCs48qTgYy1n57_12lending_pool11ContractObjINtNtNtNtCs1rODQd5oASQ_22multiversx_sc_scenario3api7impl_vh12vm_hooks_api10VMHooksApiNtNtBP_9debug_api15DebugApiBackendEENtNtB5_6config16EndpointWrappers24call_add_e_mode_categoryCs8iyf5MSkCde_5tests
FNDA:0,_RNvYINtCs48qTgYy1n57_12lending_pool11ContractObjINtNtNtNtCs1rODQd5oASQ_22multiversx_sc_scenario3api7impl_vh12vm_hooks_api10VMHooksApiNtNtBP_9debug_api15DebugApiBackendEENtNtB5_6config16EndpointWrappers24call_set_safe_price_viewCs8iyf5MSkCde_5tests
FNDA:0,_RNvYINtCs48qTgYy1n57_12lending_pool11ContractObjINtNtNtNtCs1rODQd5oASQ_22multiversx_sc_scenario3api7impl_vh12vm_hooks_api10VMHooksApiNtNtBP_9debug_api15DebugApiBackendEENtNtB5_6config16EndpointWrappers25call_edit_e_mode_categoryCs8iyf5MSkCde_5tests
FNDA:0,_RNvYINtCs48qTgYy1n57_12lending_pool11ContractObjINtNtNtNtCs1rODQd5oASQ_22multiversx_sc_scenario3api7impl_vh12vm_hooks_api10VMHooksApiNtNtBP_9debug_api15DebugApiBackendEENtNtB5_6config16EndpointWrappers27call_register_account_tokenCs8iyf5MSkCde_5tests
FNDA:0,_RNvYINtCs48qTgYy1n57_12lending_pool11ContractObjINtNtNtNtCs1rODQd5oASQ_22multiversx_sc_scenario3api7impl_vh12vm_hooks_api10VMHooksApiNtNtBP_9debug_api15DebugApiBackendEENtNtB5_6config16EndpointWrappers27call_remove_e_mode_categoryCs8iyf5MSkCde_5tests
FNDA:0,_RNvYINtCs48qTgYy1n57_12lending_pool11ContractObjINtNtNtNtCs1rODQd5oASQ_22multiversx_sc_scenario3api7impl_vh12vm_hooks_api10VMHooksApiNtNtBP_9debug_api15DebugApiBackendEENtNtB5_6config16EndpointWrappers32call_edit_token_oracle_toleranceCs8iyf5MSkCde_5tests
FNDA:0,_RNvYINtCs48qTgYy1n57_12lending_pool11ContractObjINtNtNtNtCs1rODQd5oASQ_22multiversx_sc_scenario3api7impl_vh12vm_hooks_api10VMHooksApiNtNtBP_9debug_api15DebugApiBackendEENtNtB5_6config16EndpointWrappers32call_set_liquidity_pool_templateCs8iyf5MSkCde_5tests
FNDA:188,_RNvYINtCs48qTgYy1n57_12lending_pool11ContractObjINtNtNtNtCs1rODQd5oASQ_22multiversx_sc_scenario3api7impl_vh12vm_hooks_api10VMHooksApiNtNtBP_9debug_api15DebugApiBackendEENtNtB5_6config16EndpointWrappers33call_add_asset_to_e_mode_categoryCs8iyf5MSkCde_5tests
FNDA:0,_RNvYINtCs48qTgYy1n57_12lending_pool11ContractObjINtNtNtNtCs1rODQd5oASQ_22multiversx_sc_scenario3api7impl_vh12vm_hooks_api10VMHooksApiNtNtBP_9debug_api15DebugApiBackendEENtNtB5_6config16EndpointWrappers34call_edit_asset_in_e_mode_categoryCs8iyf5MSkCde_5tests
FNDA:0,_RNvYINtCs48qTgYy1n57_12lending_pool11ContractObjINtNtNtNtCs1rODQd5oASQ_22multiversx_sc_scenario3api7impl_vh12vm_hooks_api10VMHooksApiNtNtBP_9debug_api15DebugApiBackendEENtNtB5_6config16EndpointWrappers38call_remove_asset_from_e_mode_categoryCs8iyf5MSkCde_5tests
FNDA:856,_RNvYINtCs48qTgYy1n57_12lending_pool11ContractObjINtNtNtNtCs1rODQd5oASQ_22multiversx_sc_scenario3api7impl_vh12vm_hooks_api10VMHooksApiNtNtBP_9debug_api15DebugApiBackendEENtNtB5_6config16EndpointWrappers4callCs8iyf5MSkCde_5tests
FNDA:0,_RNvYINtCs48qTgYy1n57_12lending_pool11ContractObjINtNtNtNtCs1rODQd5oASQ_22multiversx_sc_scenario3api7impl_vh12vm_hooks_api10VMHooksApiNtNtBP_9debug_api15DebugApiBackendEENtNtB5_6config16EndpointWrappers8callbackCs8iyf5MSkCde_5tests
FNDA:0,_RNCNvYINtCs48qTgYy1n57_12lending_pool11ContractObjINtNtNtNtCs1rODQd5oASQ_22multiversx_sc_scenario3api7impl_vh12vm_hooks_api10VMHooksApiNtNtBR_9debug_api15DebugApiBackendEENtNtB7_6config12ConfigModule27edit_token_oracle_tolerance0Cs8iyf5MSkCde_5tests
FNF:16
FNH:4
DA:12,856
DA:23,0
DA:24,0
DA:25,0
DA:26,0
DA:27,0
DA:28,0
DA:29,0
DA:30,0
DA:31,0
DA:32,0
DA:47,564
DA:48,564
DA:49,564
DA:50,564
DA:52,564
DA:54,47
DA:55,47
DA:56,47
DA:57,47
DA:58,47
DA:59,47
DA:60,47
DA:61,47
DA:64,470
DA:65,470
DA:66,470
DA:67,470
DA:68,470
DA:69,470
DA:70,470
DA:71,470
DA:73,47
DA:74,0
DA:76,0
DA:80,564
DA:82,470
DA:83,470
DA:84,470
DA:85,470
DA:86,470
DA:87,470
DA:88,470
DA:89,470
DA:91,47
DA:92,0
DA:93,47
DA:95,0
DA:99,564
DA:100,564
DA:101,564
DA:102,564
DA:103,564
DA:104,564
DA:105,564
DA:106,564
DA:107,564
DA:108,564
DA:109,564
DA:110,564
DA:111,564
DA:112,564
DA:122,0
DA:123,0
DA:124,0
DA:125,0
DA:128,0
DA:129,0
DA:130,0
DA:131,0
DA:136,0
DA:137,0
DA:139,0
DA:140,0
DA:141,0
DA:143,0
DA:148,0
DA:149,0
DA:151,0
DA:152,0
DA:153,0
DA:155,0
DA:160,0
DA:161,0
DA:163,0
DA:164,0
DA:165,0
DA:167,0
DA:172,0
DA:173,0
DA:175,0
DA:176,0
DA:177,0
DA:179,0
DA:189,47
DA:190,47
DA:191,47
DA:192,47
DA:193,47
DA:194,47
DA:195,47
DA:196,47
DA:197,47
DA:198,47
DA:199,47
DA:200,47
DA:201,47
DA:202,47
DA:203,47
DA:204,47
DA:209,0
DA:210,0
DA:211,0
DA:212,0
DA:213,0
DA:216,0
DA:217,0
DA:222,0
DA:223,0
DA:224,0
DA:225,0
DA:226,0
DA:229,0
DA:230,0
DA:231,0
DA:232,0
DA:234,0
DA:235,0
DA:236,0
DA:237,0
DA:238,0
DA:239,0
DA:240,0
DA:241,0
DA:242,0
DA:253,188
DA:254,188
DA:255,188
DA:256,0
DA:258,188
DA:259,188
DA:260,0
DA:263,188
DA:264,188
DA:265,188
DA:266,0
DA:269,188
DA:270,188
DA:271,188
DA:272,0
DA:275,188
DA:276,188
DA:277,188
DA:278,188
DA:279,188
DA:280,188
DA:281,188
DA:282,188
DA:283,188
DA:284,188
DA:285,188
DA:286,188
DA:287,188
DA:288,188
DA:289,188
DA:290,188
DA:291,188
DA:301,0
DA:302,0
DA:303,0
DA:304,0
DA:306,0
DA:307,0
DA:312,0
DA:313,0
DA:314,0
DA:315,0
DA:316,0
DA:317,0
DA:319,0
DA:320,0
DA:321,0
DA:324,0
DA:325,0
DA:326,0
DA:327,0
DA:328,0
DA:329,0
DA:330,0
DA:331,0
DA:332,0
DA:333,0
DA:334,0
DA:335,0
DA:357,0
DA:358,0
DA:359,0
DA:360,0
DA:363,0
DA:364,0
DA:366,0
DA:367,0
DA:368,0
DA:371,0
DA:373,0
DA:374,0
DA:375,0
DA:376,0
DA:377,0
DA:378,0
DA:379,0
DA:380,0
DA:381,0
DA:382,0
DA:383,0
DA:384,0
DA:385,0
DA:386,0
DA:387,0
DA:388,0
DA:390,0
DA:392,0
DA:393,0
DA:395,0
DA:399,0
DA:400,0
DA:401,0
BRF:0
BRH:0
LF:229
LH:92
end_of_record
SF:/Users/mihaieremia/GitHub/rs-lending/lending_pool/src/contexts/base.rs
FN:24,_RNvMNtNtCshiqmisuHlyH_12lending_pool8contexts4baseINtB2_12StorageCachepE3newB6_
FN:24,_RNvMNtNtCs48qTgYy1n57_12lending_pool8contexts4baseINtB2_12StorageCacheINtB6_11ContractObjINtNtNtNtCs1rODQd5oASQ_22multiversx_sc_scenario3api7impl_vh12vm_hooks_api10VMHooksApiNtNtB1u_9debug_api15DebugApiBackendEEE3newCs8iyf5MSkCde_5tests
FNDA:0,_RNvMNtNtCshiqmisuHlyH_12lending_pool8contexts4baseINtB2_12StorageCachepE3newB6_
FNDA:936,_RNvMNtNtCs48qTgYy1n57_12lending_pool8contexts4baseINtB2_12StorageCacheINtB6_11ContractObjINtNtNtNtCs1rODQd5oASQ_22multiversx_sc_scenario3api7impl_vh12vm_hooks_api10VMHooksApiNtNtB1u_9debug_api15DebugApiBackendEEE3newCs8iyf5MSkCde_5tests
FNF:1
FNH:1
DA:24,936
DA:25,936
DA:26,936
DA:27,936
DA:28,936
DA:29,936
DA:30,936
DA:31,936
DA:32,936
DA:33,936
DA:34,936
DA:35,936
DA:36,936
BRF:0
BRH:0
LF:13
LH:13
end_of_record
SF:/Users/mihaieremia/GitHub/rs-lending/lending_pool/src/factory.rs
FN:19,_RNvYpNtNtCshiqmisuHlyH_12lending_pool7factory13FactoryModule11create_poolB7_
FN:57,_RNvYpNtNtCshiqmisuHlyH_12lending_pool7factory13FactoryModule12upgrade_poolB7_
FN:6,_RNvYpNtNtCshiqmisuHlyH_12lending_pool7factory16EndpointWrappers4callB7_
FN:6,_RNvYpNtNtCshiqmisuHlyH_12lending_pool7factory16EndpointWrappers17callback_selectorB7_
FN:6,_RNvYpNtNtCshiqmisuHlyH_12lending_pool7factory16EndpointWrappers8callbackB7_
FN:6,_RNvXs1_NtCshiqmisuHlyH_12lending_pool7factoryNtB5_11AbiProviderNtNtNtCslPMlHj3qn2H_13multiversx_sc13contract_base21contract_abi_provider19ContractAbiProvider3abi
FN:6,_RNvXININtCshiqmisuHlyH_12lending_pool7factorysb_0pEINtB5_11ContractObjpENtNtNtCslPMlHj3qn2H_13multiversx_sc13contract_base17callable_contract16CallableContract4callB7_
FN:6,_RINvNtCshiqmisuHlyH_12lending_pool7factory12contract_objpEB4_
FN:6,_RINvXsc_NtCshiqmisuHlyH_12lending_pool7factoryNtB6_15ContractBuilderNtNtNtCslPMlHj3qn2H_13multiversx_sc13contract_base17callable_contract23CallableContractBuilder16new_contract_objpEB8_
FN:19,_RNvYINtCs48qTgYy1n57_12lending_pool11ContractObjINtNtNtNtCs1rODQd5oASQ_22multiversx_sc_scenario3api7impl_vh12vm_hooks_api10VMHooksApiNtNtBP_9debug_api15DebugApiBackendEENtNtB5_7factory13FactoryModule11create_poolCs8iyf5MSkCde_5tests
FN:57,_RNvYINtCs48qTgYy1n57_12lending_pool11ContractObjINtNtNtNtCs1rODQd5oASQ_22multiversx_sc_scenario3api7impl_vh12vm_hooks_api10VMHooksApiNtNtBP_9debug_api15DebugApiBackendEENtNtB5_7factory13FactoryModule12upgrade_poolCs8iyf5MSkCde_5tests
FN:6,_RNvYINtCs48qTgYy1n57_12lending_pool11ContractObjINtNtNtNtCs1rODQd5oASQ_22multiversx_sc_scenario3api7impl_vh12vm_hooks_api10VMHooksApiNtNtBP_9debug_api15DebugApiBackendEENtNtB5_7factory16EndpointWrappers17callback_selectorCs8iyf5MSkCde_5tests
FN:6,_RNvYINtCs48qTgYy1n57_12lending_pool11ContractObjINtNtNtNtCs1rODQd5oASQ_22multiversx_sc_scenario3api7impl_vh12vm_hooks_api10VMHooksApiNtNtBP_9debug_api15DebugApiBackendEENtNtB5_7factory16EndpointWrappers4callCs8iyf5MSkCde_5tests
FN:6,_RNvYINtCs48qTgYy1n57_12lending_pool11ContractObjINtNtNtNtCs1rODQd5oASQ_22multiversx_sc_scenario3api7impl_vh12vm_hooks_api10VMHooksApiNtNtBP_9debug_api15DebugApiBackendEENtNtB5_7factory16EndpointWrappers8callbackCs8iyf5MSkCde_5tests
FNDA:0,_RNvYpNtNtCshiqmisuHlyH_12lending_pool7factory13FactoryModule11create_poolB7_
FNDA:0,_RNvYpNtNtCshiqmisuHlyH_12lending_pool7factory13FactoryModule12upgrade_poolB7_
FNDA:0,_RNvYpNtNtCshiqmisuHlyH_12lending_pool7factory16EndpointWrappers4callB7_
FNDA:0,_RNvYpNtNtCshiqmisuHlyH_12lending_pool7factory16EndpointWrappers17callback_selectorB7_
FNDA:0,_RNvYpNtNtCshiqmisuHlyH_12lending_pool7factory16EndpointWrappers8callbackB7_
FNDA:0,_RNvXs1_NtCshiqmisuHlyH_12lending_pool7factoryNtB5_11AbiProviderNtNtNtCslPMlHj3qn2H_13multiversx_sc13contract_base21contract_abi_provider19ContractAbiProvider3abi
FNDA:0,_RNvXININtCshiqmisuHlyH_12lending_pool7factorysb_0pEINtB5_11ContractObjpENtNtNtCslPMlHj3qn2H_13multiversx_sc13contract_base17callable_contract16CallableContract4callB7_
FNDA:0,_RINvNtCshiqmisuHlyH_12lending_pool7factory12contract_objpEB4_
FNDA:0,_RINvXsc_NtCshiqmisuHlyH_12lending_pool7factoryNtB6_15ContractBuilderNtNtNtCslPMlHj3qn2H_13multiversx_sc13contract_base17callable_contract23CallableContractBuilder16new_contract_objpEB8_
FNDA:470,_RNvYINtCs48qTgYy1n57_12lending_pool11ContractObjINtNtNtNtCs1rODQd5oASQ_22multiversx_sc_scenario3api7impl_vh12vm_hooks_api10VMHooksApiNtNtBP_9debug_api15DebugApiBackendEENtNtB5_7factory13FactoryModule11create_poolCs8iyf5MSkCde_5tests
FNDA:0,_RNvYINtCs48qTgYy1n57_12lending_pool11ContractObjINtNtNtNtCs1rODQd5oASQ_22multiversx_sc_scenario3api7impl_vh12vm_hooks_api10VMHooksApiNtNtBP_9debug_api15DebugApiBackendEENtNtB5_7factory13FactoryModule12upgrade_poolCs8iyf5MSkCde_5tests
FNDA:0,_RNvYINtCs48qTgYy1n57_12lending_pool11ContractObjINtNtNtNtCs1rODQd5oASQ_22multiversx_sc_scenario3api7impl_vh12vm_hooks_api10VMHooksApiNtNtBP_9debug_api15DebugApiBackendEENtNtB5_7factory16EndpointWrappers17callback_selectorCs8iyf5MSkCde_5tests
FNDA:2205,_RNvYINtCs48qTgYy1n57_12lending_pool11ContractObjINtNtNtNtCs1rODQd5oASQ_22multiversx_sc_scenario3api7impl_vh12vm_hooks_api10VMHooksApiNtNtBP_9debug_api15DebugApiBackendEENtNtB5_7factory16EndpointWrappers4callCs8iyf5MSkCde_5tests
FNDA:0,_RNvYINtCs48qTgYy1n57_12lending_pool11ContractObjINtNtNtNtCs1rODQd5oASQ_22multiversx_sc_scenario3api7impl_vh12vm_hooks_api10VMHooksApiNtNtBP_9debug_api15DebugApiBackendEENtNtB5_7factory16EndpointWrappers8callbackCs8iyf5MSkCde_5tests
FNF:3
FNH:2
DA:6,2205
DA:19,470
DA:20,470
DA:21,470
DA:22,0
DA:25,470
DA:26,470
DA:27,470
DA:28,470
DA:29,470
DA:30,470
DA:31,470
DA:32,470
DA:33,470
DA:34,470
DA:35,470
DA:36,470
DA:37,470
DA:38,470
DA:39,470
DA:40,470
DA:41,470
DA:42,470
DA:43,470
DA:44,470
DA:45,470
DA:57,0
DA:58,0
DA:59,0
DA:60,0
DA:62,0
DA:63,0
DA:64,0
DA:65,0
DA:66,0
DA:67,0
DA:68,0
BRF:0
BRH:0
LF:37
LH:25
end_of_record
SF:/Users/mihaieremia/GitHub/rs-lending/lending_pool/src/helpers/math.rs
FN:30,_RNvYpNtNtNtCshiqmisuHlyH_12lending_pool7helpers4math11MathsModule21compute_health_factorB9_
FN:54,_RNvYpNtNtNtCshiqmisuHlyH_12lending_pool7helpers4math11MathsModule9get_rangeB9_
FN:94,_RNvYpNtNtNtCshiqmisuHlyH_12lending_pool7helpers4math11MathsModule21get_anchor_tolerancesB9_
FN:143,_RNvYpNtNtNtCshiqmisuHlyH_12lending_pool7helpers4math11MathsModule22get_max_feasible_bonusB9_
FN:174,_RNvYpNtNtNtCshiqmisuHlyH_12lending_pool7helpers4math11MathsModule30calculate_dynamic_protocol_feeB9_
FN:217,_RNvYpNtNtNtCshiqmisuHlyH_12lending_pool7helpers4math11MathsModule35calculate_dynamic_liquidation_bonusB9_
FN:248,_RNvYpNtNtNtCshiqmisuHlyH_12lending_pool7helpers4math11MathsModule21calculate_liquidationB9_
FN:282,_RNvYpNtNtNtCshiqmisuHlyH_12lending_pool7helpers4math11MathsModule26calculate_liquidation_feesB9_
FN:311,_RNvYpNtNtNtCshiqmisuHlyH_12lending_pool7helpers4math11MathsModule27estimate_liquidation_amountB9_
FN:15,_RNvYpNtNtNtCshiqmisuHlyH_12lending_pool7helpers4math16EndpointWrappers4callB9_
FN:15,_RNvYpNtNtNtCshiqmisuHlyH_12lending_pool7helpers4math16EndpointWrappers17callback_selectorB9_
FN:15,_RNvYpNtNtNtCshiqmisuHlyH_12lending_pool7helpers4math16EndpointWrappers8callbackB9_
FN:15,_RNvXs1_NtNtCshiqmisuHlyH_12lending_pool7helpers4mathNtB5_11AbiProviderNtNtNtCslPMlHj3qn2H_13multiversx_sc13contract_base21contract_abi_provider19ContractAbiProvider3abi
FN:15,_RNvXININtNtCshiqmisuHlyH_12lending_pool7helpers4maths5_0pEINtB5_11ContractObjpENtNtNtCslPMlHj3qn2H_13multiversx_sc13contract_base17callable_contract16CallableContract4callB9_
FN:15,_RINvNtNtCshiqmisuHlyH_12lending_pool7helpers4math12contract_objpEB6_
FN:15,_RINvXs6_NtNtCshiqmisuHlyH_12lending_pool7helpers4mathNtB6_15ContractBuilderNtNtNtCslPMlHj3qn2H_13multiversx_sc13contract_base17callable_contract23CallableContractBuilder16new_contract_objpEBa_
FN:248,_RNvYINtCs48qTgYy1n57_12lending_pool11ContractObjINtNtNtNtCs1rODQd5oASQ_22multiversx_sc_scenario3api7impl_vh12vm_hooks_api10VMHooksApiNtNtBP_9debug_api15DebugApiBackendEENtNtNtB5_7helpers4math11MathsModule21calculate_liquidationCs8iyf5MSkCde_5tests
FN:30,_RNvYINtCs48qTgYy1n57_12lending_pool11ContractObjINtNtNtNtCs1rODQd5oASQ_22multiversx_sc_scenario3api7impl_vh12vm_hooks_api10VMHooksApiNtNtBP_9debug_api15DebugApiBackendEENtNtNtB5_7helpers4math11MathsModule21compute_health_factorCs8iyf5MSkCde_5tests
FN:94,_RNvYINtCs48qTgYy1n57_12lending_pool11ContractObjINtNtNtNtCs1rODQd5oASQ_22multiversx_sc_scenario3api7impl_vh12vm_hooks_api10VMHooksApiNtNtBP_9debug_api15DebugApiBackendEENtNtNtB5_7helpers4math11MathsModule21get_anchor_tolerancesCs8iyf5MSkCde_5tests
FN:143,_RNvYINtCs48qTgYy1n57_12lending_pool11ContractObjINtNtNtNtCs1rODQd5oASQ_22multiversx_sc_scenario3api7impl_vh12vm_hooks_api10VMHooksApiNtNtBP_9debug_api15DebugApiBackendEENtNtNtB5_7helpers4math11MathsModule22get_max_feasible_bonusCs8iyf5MSkCde_5tests
FN:282,_RNvYINtCs48qTgYy1n57_12lending_pool11ContractObjINtNtNtNtCs1rODQd5oASQ_22multiversx_sc_scenario3api7impl_vh12vm_hooks_api10VMHooksApiNtNtBP_9debug_api15DebugApiBackendEENtNtNtB5_7helpers4math11MathsModule26calculate_liquidation_feesCs8iyf5MSkCde_5tests
FN:311,_RNvYINtCs48qTgYy1n57_12lending_pool11ContractObjINtNtNtNtCs1rODQd5oASQ_22multiversx_sc_scenario3api7impl_vh12vm_hooks_api10VMHooksApiNtNtBP_9debug_api15DebugApiBackendEENtNtNtB5_7helpers4math11MathsModule27estimate_liquidation_amountCs8iyf5MSkCde_5tests
FN:174,_RNvYINtCs48qTgYy1n57_12lending_pool11ContractObjINtNtNtNtCs1rODQd5oASQ_22multiversx_sc_scenario3api7impl_vh12vm_hooks_api10VMHooksApiNtNtBP_9debug_api15DebugApiBackendEENtNtNtB5_7helpers4math11MathsModule30calculate_dynamic_protocol_feeCs8iyf5MSkCde_5tests
FN:217,_RNvYINtCs48qTgYy1n57_12lending_pool11ContractObjINtNtNtNtCs1rODQd5oASQ_22multiversx_sc_scenario3api7impl_vh12vm_hooks_api10VMHooksApiNtNtBP_9debug_api15DebugApiBackendEENtNtNtB5_7helpers4math11MathsModule35calculate_dynamic_liquidation_bonusCs8iyf5MSkCde_5tests
FN:54,_RNvYINtCs48qTgYy1n57_12lending_pool11ContractObjINtNtNtNtCs1rODQd5oASQ_22multiversx_sc_scenario3api7impl_vh12vm_hooks_api10VMHooksApiNtNtBP_9debug_api15DebugApiBackendEENtNtNtB5_7helpers4math11MathsModule9get_rangeCs8iyf5MSkCde_5tests
FN:15,_RNvYINtCs48qTgYy1n57_12lending_pool11ContractObjINtNtNtNtCs1rODQd5oASQ_22multiversx_sc_scenario3api7impl_vh12vm_hooks_api10VMHooksApiNtNtBP_9debug_api15DebugApiBackendEENtNtNtB5_7helpers4math16EndpointWrappers17callback_selectorCs8iyf5MSkCde_5tests
FN:15,_RNvYINtCs48qTgYy1n57_12lending_pool11ContractObjINtNtNtNtCs1rODQd5oASQ_22multiversx_sc_scenario3api7impl_vh12vm_hooks_api10VMHooksApiNtNtBP_9debug_api15DebugApiBackendEENtNtNtB5_7helpers4math16EndpointWrappers4callCs8iyf5MSkCde_5tests
FN:15,_RNvYINtCs48qTgYy1n57_12lending_pool11ContractObjINtNtNtNtCs1rODQd5oASQ_22multiversx_sc_scenario3api7impl_vh12vm_hooks_api10VMHooksApiNtNtBP_9debug_api15DebugApiBackendEENtNtNtB5_7helpers4math16EndpointWrappers8callbackCs8iyf5MSkCde_5tests
FNDA:0,_RNvYpNtNtNtCshiqmisuHlyH_12lending_pool7helpers4math11MathsModule21compute_health_factorB9_
FNDA:0,_RNvYpNtNtNtCshiqmisuHlyH_12lending_pool7helpers4math11MathsModule9get_rangeB9_
FNDA:0,_RNvYpNtNtNtCshiqmisuHlyH_12lending_pool7helpers4math11MathsModule21get_anchor_tolerancesB9_
FNDA:0,_RNvYpNtNtNtCshiqmisuHlyH_12lending_pool7helpers4math11MathsModule22get_max_feasible_bonusB9_
FNDA:0,_RNvYpNtNtNtCshiqmisuHlyH_12lending_pool7helpers4math11MathsModule30calculate_dynamic_protocol_feeB9_
FNDA:0,_RNvYpNtNtNtCshiqmisuHlyH_12lending_pool7helpers4math11MathsModule35calculate_dynamic_liquidation_bonusB9_
FNDA:0,_RNvYpNtNtNtCshiqmisuHlyH_12lending_pool7helpers4math11MathsModule21calculate_liquidationB9_
FNDA:0,_RNvYpNtNtNtCshiqmisuHlyH_12lending_pool7helpers4math11MathsModule26calculate_liquidation_feesB9_
FNDA:0,_RNvYpNtNtNtCshiqmisuHlyH_12lending_pool7helpers4math11MathsModule27estimate_liquidation_amountB9_
FNDA:0,_RNvYpNtNtNtCshiqmisuHlyH_12lending_pool7helpers4math16EndpointWrappers4callB9_
FNDA:0,_RNvYpNtNtNtCshiqmisuHlyH_12lending_pool7helpers4math16EndpointWrappers17callback_selectorB9_
FNDA:0,_RNvYpNtNtNtCshiqmisuHlyH_12lending_pool7helpers4math16EndpointWrappers8callbackB9_
FNDA:0,_RNvXs1_NtNtCshiqmisuHlyH_12lending_pool7helpers4mathNtB5_11AbiProviderNtNtNtCslPMlHj3qn2H_13multiversx_sc13contract_base21contract_abi_provider19ContractAbiProvider3abi
FNDA:0,_RNvXININtNtCshiqmisuHlyH_12lending_pool7helpers4maths5_0pEINtB5_11ContractObjpENtNtNtCslPMlHj3qn2H_13multiversx_sc13contract_base17callable_contract16CallableContract4callB9_
FNDA:0,_RINvNtNtCshiqmisuHlyH_12lending_pool7helpers4math12contract_objpEB6_
FNDA:0,_RINvXs6_NtNtCshiqmisuHlyH_12lending_pool7helpers4mathNtB6_15ContractBuilderNtNtNtCslPMlHj3qn2H_13multiversx_sc13contract_base17callable_contract23CallableContractBuilder16new_contract_objpEBa_
FNDA:6,_RNvYINtCs48qTgYy1n57_12lending_pool11ContractObjINtNtNtNtCs1rODQd5oASQ_22multiversx_sc_scenario3api7impl_vh12vm_hooks_api10VMHooksApiNtNtBP_9debug_api15DebugApiBackendEENtNtNtB5_7helpers4math11MathsModule21calculate_liquidationCs8iyf5MSkCde_5tests
FNDA:17,_RNvYINtCs48qTgYy1n57_12lending_pool11ContractObjINtNtNtNtCs1rODQd5oASQ_22multiversx_sc_scenario3api7impl_vh12vm_hooks_api10VMHooksApiNtNtBP_9debug_api15DebugApiBackendEENtNtNtB5_7helpers4math11MathsModule21compute_health_factorCs8iyf5MSkCde_5tests
FNDA:564,_RNvYINtCs48qTgYy1n57_12lending_pool11ContractObjINtNtNtNtCs1rODQd5oASQ_22multiversx_sc_scenario3api7impl_vh12vm_hooks_api10VMHooksApiNtNtBP_9debug_api15DebugApiBackendEENtNtNtB5_7helpers4math11MathsModule21get_anchor_tolerancesCs8iyf5MSkCde_5tests
FNDA:6,_RNvYINtCs48qTgYy1n57_12lending_pool11ContractObjINtNtNtNtCs1rODQd5oASQ_22multiversx_sc_scenario3api7impl_vh12vm_hooks_api10VMHooksApiNtNtBP_9debug_api15DebugApiBackendEENtNtNtB5_7helpers4math11MathsModule22get_max_feasible_bonusCs8iyf5MSkCde_5tests
FNDA:5,_RNvYINtCs48qTgYy1n57_12lending_pool11ContractObjINtNtNtNtCs1rODQd5oASQ_22multiversx_sc_scenario3api7impl_vh12vm_hooks_api10VMHooksApiNtNtBP_9debug_api15DebugApiBackendEENtNtNtB5_7helpers4math11MathsModule26calculate_liquidation_feesCs8iyf5MSkCde_5tests
FNDA:6,_RNvYINtCs48qTgYy1n57_12lending_pool11ContractObjINtNtNtNtCs1rODQd5oASQ_22multiversx_sc_scenario3api7impl_vh12vm_hooks_api10VMHooksApiNtNtBP_9debug_api15DebugApiBackendEENtNtNtB5_7helpers4math11MathsModule27estimate_liquidation_amountCs8iyf5MSkCde_5tests
FNDA:5,_RNvYINtCs48qTgYy1n57_12lending_pool11ContractObjINtNtNtNtCs1rODQd5oASQ_22multiversx_sc_scenario3api7impl_vh12vm_hooks_api10VMHooksApiNtNtBP_9debug_api15DebugApiBackendEENtNtNtB5_7helpers4math11MathsModule30calculate_dynamic_protocol_feeCs8iyf5MSkCde_5tests
FNDA:6,_RNvYINtCs48qTgYy1n57_12lending_pool11ContractObjINtNtNtNtCs1rODQd5oASQ_22multiversx_sc_scenario3api7impl_vh12vm_hooks_api10VMHooksApiNtNtBP_9debug_api15DebugApiBackendEENtNtNtB5_7helpers4math11MathsModule35calculate_dynamic_liquidation_bonusCs8iyf5MSkCde_5tests
FNDA:1128,_RNvYINtCs48qTgYy1n57_12lending_pool11ContractObjINtNtNtNtCs1rODQd5oASQ_22multiversx_sc_scenario3api7impl_vh12vm_hooks_api10VMHooksApiNtNtBP_9debug_api15DebugApiBackendEENtNtNtB5_7helpers4math11MathsModule9get_rangeCs8iyf5MSkCde_5tests
FNDA:0,_RNvYINtCs48qTgYy1n57_12lending_pool11ContractObjINtNtNtNtCs1rODQd5oASQ_22multiversx_sc_scenario3api7impl_vh12vm_hooks_api10VMHooksApiNtNtBP_9debug_api15DebugApiBackendEENtNtNtB5_7helpers4math16EndpointWrappers17callback_selectorCs8iyf5MSkCde_5tests
FNDA:3937,_RNvYINtCs48qTgYy1n57_12lending_pool11ContractObjINtNtNtNtCs1rODQd5oASQ_22multiversx_sc_scenario3api7impl_vh12vm_hooks_api10VMHooksApiNtNtBP_9debug_api15DebugApiBackendEENtNtNtB5_7helpers4math16EndpointWrappers4callCs8iyf5MSkCde_5tests
FNDA:0,_RNvYINtCs48qTgYy1n57_12lending_pool11ContractObjINtNtNtNtCs1rODQd5oASQ_22multiversx_sc_scenario3api7impl_vh12vm_hooks_api10VMHooksApiNtNtBP_9debug_api15DebugApiBackendEENtNtNtB5_7helpers4math16EndpointWrappers8callbackCs8iyf5MSkCde_5tests
FNF:10
FNH:10
DA:15,3937
DA:30,17
DA:31,17
DA:32,17
DA:33,0
DA:34,17
DA:35,17
DA:36,17
DA:37,17
DA:38,17
DA:39,17
DA:40,17
DA:54,1128
DA:55,1128
DA:56,1128
DA:57,1128
DA:58,1128
DA:59,1128
DA:94,564
DA:95,564
DA:96,564
DA:97,564
DA:98,0
DA:101,564
DA:102,564
DA:103,564
DA:104,0
DA:107,564
DA:108,564
DA:109,0
DA:112,564
DA:113,564
DA:114,564
DA:115,564
DA:116,564
DA:117,564
DA:118,564
DA:119,564
DA:120,564
DA:121,564
DA:122,564
DA:143,6
DA:144,6
DA:145,6
DA:146,6
DA:147,6
DA:148,6
DA:149,6
DA:150,6
DA:151,6
DA:152,6
DA:153,6
DA:154,6
DA:155,6
DA:156,6
DA:157,6
DA:158,6
DA:159,6
DA:174,5
DA:175,5
DA:176,5
DA:177,5
DA:178,5
DA:179,5
DA:180,5
DA:181,1
DA:182,4
DA:183,4
DA:184,4
DA:185,4
DA:186,4
DA:187,4
DA:188,4
DA:189,4
DA:190,4
DA:191,4
DA:192,4
DA:193,4
DA:194,4
DA:195,4
DA:196,4
DA:197,4
DA:198,4
DA:217,6
DA:218,6
DA:219,6
DA:220,6
DA:221,6
DA:222,6
DA:223,6
DA:224,6
DA:225,6
DA:248,6
DA:249,6
DA:250,6
DA:251,6
DA:252,6
DA:253,6
DA:254,6
DA:255,6
DA:256,6
DA:257,6
DA:258,6
DA:259,6
DA:260,6
DA:261,6
DA:262,6
DA:263,6
DA:264,6
DA:282,5
DA:283,5
DA:284,5
DA:285,5
DA:286,5
DA:287,5
DA:288,5
DA:311,6
DA:312,6
DA:313,6
DA:314,6
DA:315,6
DA:316,6
DA:317,6
DA:318,6
DA:319,6
DA:320,6
DA:321,6
DA:322,6
DA:323,6
DA:324,6
DA:325,6
DA:326,6
DA:327,6
DA:328,6
DA:329,6
DA:330,6
DA:331,6
DA:332,6
DA:333,6
DA:334,6
BRF:0
BRH:0
LF:140
LH:136
end_of_record
SF:/Users/mihaieremia/GitHub/rs-lending/lending_pool/src/lib.rs
FN:54,_RNvYpNtCshiqmisuHlyH_12lending_pool11LendingPool4initB5_
FN:88,_RNvYpNtCshiqmisuHlyH_12lending_pool11LendingPool6supplyB5_
FN:195,_RNvYpNtCshiqmisuHlyH_12lending_pool11LendingPool8withdrawB5_
FN:264,_RNvYpNtCshiqmisuHlyH_12lending_pool11LendingPool6borrowB5_
FN:394,_RNvYpNtCshiqmisuHlyH_12lending_pool11LendingPool5repayB5_
FN:447,_RNvYpNtCshiqmisuHlyH_12lending_pool11LendingPool9liquidateB5_
FN:492,_RNvYpNtCshiqmisuHlyH_12lending_pool11LendingPool10flash_loanB5_
FN:559,_RNvYpNtCshiqmisuHlyH_12lending_pool11LendingPool24update_account_positionsB5_
FN:584,_RNvYpNtCshiqmisuHlyH_12lending_pool11LendingPool13disable_vaultB5_
FN:616,_RNCNvYpNtCshiqmisuHlyH_12lending_pool11LendingPool13disable_vault0B7_
FN:675,_RNvYpNtCshiqmisuHlyH_12lending_pool11LendingPool12enable_vaultB5_
FN:739,_RNCNvYpNtCshiqmisuHlyH_12lending_pool11LendingPool12enable_vault0B7_
FN:788,_RNvYpNtCshiqmisuHlyH_12lending_pool11LendingPool25update_position_thresholdB5_
FN:865,_RNvYpNtCshiqmisuHlyH_12lending_pool11LendingPool14update_indexesB5_
FN:26,_RNvYpNtCshiqmisuHlyH_12lending_pool16EndpointWrappers9call_initB5_
FN:26,_RNvYpNtCshiqmisuHlyH_12lending_pool16EndpointWrappers12call_upgradeB5_
FN:26,_RNvYpNtCshiqmisuHlyH_12lending_pool16EndpointWrappers11call_supplyB5_
FN:26,_RNvYpNtCshiqmisuHlyH_12lending_pool16EndpointWrappers13call_withdrawB5_
FN:26,_RNvYpNtCshiqmisuHlyH_12lending_pool16EndpointWrappers11call_borrowB5_
FN:26,_RNvYpNtCshiqmisuHlyH_12lending_pool16EndpointWrappers10call_repayB5_
FN:26,_RNvYpNtCshiqmisuHlyH_12lending_pool16EndpointWrappers14call_liquidateB5_
FN:26,_RNvYpNtCshiqmisuHlyH_12lending_pool16EndpointWrappers15call_flash_loanB5_
FN:26,_RNvYpNtCshiqmisuHlyH_12lending_pool16EndpointWrappers29call_update_account_positionsB5_
FN:26,_RNvYpNtCshiqmisuHlyH_12lending_pool16EndpointWrappers18call_disable_vaultB5_
FN:26,_RNvYpNtCshiqmisuHlyH_12lending_pool16EndpointWrappers17call_enable_vaultB5_
FN:26,_RNvYpNtCshiqmisuHlyH_12lending_pool16EndpointWrappers30call_update_position_thresholdB5_
FN:26,_RNvYpNtCshiqmisuHlyH_12lending_pool16EndpointWrappers19call_update_indexesB5_
FN:26,_RNvYpNtCshiqmisuHlyH_12lending_pool16EndpointWrappers4callB5_
FN:26,_RNvYpNtCshiqmisuHlyH_12lending_pool16EndpointWrappers17callback_selectorB5_
FN:26,_RNvYpNtCshiqmisuHlyH_12lending_pool16EndpointWrappers8callbackB5_
FN:26,_RNvXs1_CshiqmisuHlyH_12lending_poolNtB5_11AbiProviderNtNtNtCslPMlHj3qn2H_13multiversx_sc13contract_base21contract_abi_provider19ContractAbiProvider3abi
FN:26,_RNvXINICshiqmisuHlyH_12lending_poolst_0pEINtB5_11ContractObjpENtNtNtCslPMlHj3qn2H_13multiversx_sc13contract_base17callable_contract16CallableContract4callB5_
FN:26,_RINvCshiqmisuHlyH_12lending_pool12contract_objpEB2_
FN:26,_RINvXsu_CshiqmisuHlyH_12lending_poolNtB6_15ContractBuilderNtNtNtCslPMlHj3qn2H_13multiversx_sc13contract_base17callable_contract23CallableContractBuilder16new_contract_objpEB6_
FN:26,_RINvNtCshiqmisuHlyH_12lending_pool19___wasm__endpoints__4initpEB4_
FN:26,_RINvNtCshiqmisuHlyH_12lending_pool19___wasm__endpoints__7upgradepEB4_
FN:26,_RINvNtCshiqmisuHlyH_12lending_pool19___wasm__endpoints__6supplypEB4_
FN:26,_RINvNtCshiqmisuHlyH_12lending_pool19___wasm__endpoints__8withdrawpEB4_
FN:26,_RINvNtCshiqmisuHlyH_12lending_pool19___wasm__endpoints__6borrowpEB4_
FN:26,_RINvNtCshiqmisuHlyH_12lending_pool19___wasm__endpoints__5repaypEB4_
FN:26,_RINvNtCshiqmisuHlyH_12lending_pool19___wasm__endpoints__9liquidatepEB4_
FN:26,_RINvNtCshiqmisuHlyH_12lending_pool19___wasm__endpoints__10flash_loanpEB4_
FN:26,_RINvNtCshiqmisuHlyH_12lending_pool19___wasm__endpoints__24update_account_positionspEB4_
FN:26,_RINvNtCshiqmisuHlyH_12lending_pool19___wasm__endpoints__13disable_vaultpEB4_
FN:26,_RINvNtCshiqmisuHlyH_12lending_pool19___wasm__endpoints__12enable_vaultpEB4_
FN:26,_RINvNtCshiqmisuHlyH_12lending_pool19___wasm__endpoints__25update_position_thresholdpEB4_
FN:26,_RINvNtCshiqmisuHlyH_12lending_pool19___wasm__endpoints__14update_indexespEB4_
FN:26,_RINvNtCshiqmisuHlyH_12lending_pool19___wasm__endpoints__8callBackpEB4_
FN:26,_RINvYpNtCshiqmisuHlyH_12lending_pool10ProxyTrait4initppppEB6_
FN:26,_RNvYpNtCshiqmisuHlyH_12lending_pool10ProxyTrait7upgradeB5_
FN:26,_RINvYpNtCshiqmisuHlyH_12lending_pool10ProxyTrait6supplyppEB6_
FN:26,_RINvYpNtCshiqmisuHlyH_12lending_pool10ProxyTrait8withdrawpEB6_
FN:26,_RINvYpNtCshiqmisuHlyH_12lending_pool10ProxyTrait6borrowpEB6_
FN:26,_RINvYpNtCshiqmisuHlyH_12lending_pool10ProxyTrait5repaypEB6_
FN:26,_RINvYpNtCshiqmisuHlyH_12lending_pool10ProxyTrait9liquidatepppEB6_
FN:26,_RINvYpNtCshiqmisuHlyH_12lending_pool10ProxyTrait10flash_loanpppppEB6_
FN:26,_RINvYpNtCshiqmisuHlyH_12lending_pool10ProxyTrait24update_account_positionspEB6_
FN:26,_RNvYpNtCshiqmisuHlyH_12lending_pool10ProxyTrait13disable_vaultB5_
FN:26,_RNvYpNtCshiqmisuHlyH_12lending_pool10ProxyTrait12enable_vaultB5_
FN:26,_RINvYpNtCshiqmisuHlyH_12lending_pool10ProxyTrait25update_position_thresholdpppEB6_
FN:26,_RINvYpNtCshiqmisuHlyH_12lending_pool10ProxyTrait14update_indexespEB6_
FN:26,_RNvXINICshiqmisuHlyH_12lending_poolsv_0pEINtB5_5ProxypENtNtNtCslPMlHj3qn2H_13multiversx_sc13contract_base14proxy_obj_base12ProxyObjBase19extract_opt_addressB5_
FN:26,_RNvXINICshiqmisuHlyH_12lending_poolsv_0pEINtB5_5ProxypENtNtNtCslPMlHj3qn2H_13multiversx_sc13contract_base14proxy_obj_base12ProxyObjBase16extract_proxy_toB5_
FN:26,_RNvXINICshiqmisuHlyH_12lending_poolsw_0pEINtB5_5ProxypENtNtNtCslPMlHj3qn2H_13multiversx_sc13contract_base14proxy_obj_base11ProxyObjNew13new_proxy_objB5_
FN:26,_RNvXINICshiqmisuHlyH_12lending_poolsw_0pEINtB5_5ProxypENtNtNtCslPMlHj3qn2H_13multiversx_sc13contract_base14proxy_obj_base11ProxyObjNew8contractB5_
FN:26,_RNvXINICshiqmisuHlyH_12lending_poolsx_0pEINtB5_7ProxyTopENtNtNtCslPMlHj3qn2H_13multiversx_sc13contract_base14proxy_obj_base12ProxyObjBase19extract_opt_addressB5_
FN:26,_RNvXINICshiqmisuHlyH_12lending_poolsx_0pEINtB5_7ProxyTopENtNtNtCslPMlHj3qn2H_13multiversx_sc13contract_base14proxy_obj_base12ProxyObjBase15extract_addressB5_
FN:26,_RNvXINICshiqmisuHlyH_12lending_poolsx_0pEINtB5_7ProxyTopENtNtNtCslPMlHj3qn2H_13multiversx_sc13contract_base14proxy_obj_base12ProxyObjBase16extract_proxy_toB5_
FN:26,_RINvCs48qTgYy1n57_12lending_pool12contract_objINtNtNtNtCs1rODQd5oASQ_22multiversx_sc_scenario3api7impl_vh12vm_hooks_api10VMHooksApiNtNtBN_9debug_api15DebugApiBackendEECs8iyf5MSkCde_5tests
FN:26,_RINvXsu_Cs48qTgYy1n57_12lending_poolNtB6_15ContractBuilderNtNtNtCslPMlHj3qn2H_13multiversx_sc13contract_base17callable_contract23CallableContractBuilder16new_contract_objINtNtNtNtCs1rODQd5oASQ_22multiversx_sc_scenario3api7impl_vh12vm_hooks_api10VMHooksApiNtNtB2N_9debug_api15DebugApiBackendEECs8iyf5MSkCde_5tests
FN:739,_RNCNvYINtCs48qTgYy1n57_12lending_pool11ContractObjINtNtNtNtCs1rODQd5oASQ_22multiversx_sc_scenario3api7impl_vh12vm_hooks_api10VMHooksApiNtNtBR_9debug_api15DebugApiBackendEENtB7_11LendingPool12enable_vault0Cs8iyf5MSkCde_5tests
FN:616,_RNCNvYINtCs48qTgYy1n57_12lending_pool11ContractObjINtNtNtNtCs1rODQd5oASQ_22multiversx_sc_scenario3api7impl_vh12vm_hooks_api10VMHooksApiNtNtBR_9debug_api15DebugApiBackendEENtB7_11LendingPool13disable_vault0Cs8iyf5MSkCde_5tests
FN:26,_RNvXst_Cs48qTgYy1n57_12lending_poolINtB5_11ContractObjINtNtNtNtCs1rODQd5oASQ_22multiversx_sc_scenario3api7impl_vh12vm_hooks_api10VMHooksApiNtNtBV_9debug_api15DebugApiBackendEENtNtNtCslPMlHj3qn2H_13multiversx_sc13contract_base17callable_contract16CallableContract4callCs8iyf5MSkCde_5tests
FN:492,_RNvYINtCs48qTgYy1n57_12lending_pool11ContractObjINtNtNtNtCs1rODQd5oASQ_22multiversx_sc_scenario3api7impl_vh12vm_hooks_api10VMHooksApiNtNtBP_9debug_api15DebugApiBackendEENtB5_11LendingPool10flash_loanCs8iyf5MSkCde_5tests
FN:675,_RNvYINtCs48qTgYy1n57_12lending_pool11ContractObjINtNtNtNtCs1rODQd5oASQ_22multiversx_sc_scenario3api7impl_vh12vm_hooks_api10VMHooksApiNtNtBP_9debug_api15DebugApiBackendEENtB5_11LendingPool12enable_vaultCs8iyf5MSkCde_5tests
FN:584,_RNvYINtCs48qTgYy1n57_12lending_pool11ContractObjINtNtNtNtCs1rODQd5oASQ_22multiversx_sc_scenario3api7impl_vh12vm_hooks_api10VMHooksApiNtNtBP_9debug_api15DebugApiBackendEENtB5_11LendingPool13disable_vaultCs8iyf5MSkCde_5tests
FN:865,_RNvYINtCs48qTgYy1n57_12lending_pool11ContractObjINtNtNtNtCs1rODQd5oASQ_22multiversx_sc_scenario3api7impl_vh12vm_hooks_api10VMHooksApiNtNtBP_9debug_api15DebugApiBackendEENtB5_11LendingPool14update_indexesCs8iyf5MSkCde_5tests
FN:559,_RNvYINtCs48qTgYy1n57_12lending_pool11ContractObjINtNtNtNtCs1rODQd5oASQ_22multiversx_sc_scenario3api7impl_vh12vm_hooks_api10VMHooksApiNtNtBP_9debug_api15DebugApiBackendEENtB5_11LendingPool24update_account_positionsCs8iyf5MSkCde_5tests
FN:788,_RNvYINtCs48qTgYy1n57_12lending_pool11ContractObjINtNtNtNtCs1rODQd5oASQ_22multiversx_sc_scenario3api7impl_vh12vm_hooks_api10VMHooksApiNtNtBP_9debug_api15DebugApiBackendEENtB5_11LendingPool25update_position_thresholdCs8iyf5MSkCde_5tests
FN:54,_RNvYINtCs48qTgYy1n57_12lending_pool11ContractObjINtNtNtNtCs1rODQd5oASQ_22multiversx_sc_scenario3api7impl_vh12vm_hooks_api10VMHooksApiNtNtBP_9debug_api15DebugApiBackendEENtB5_11LendingPool4initCs8iyf5MSkCde_5tests
FN:394,_RNvYINtCs48qTgYy1n57_12lending_pool11ContractObjINtNtNtNtCs1rODQd5oASQ_22multiversx_sc_scenario3api7impl_vh12vm_hooks_api10VMHooksApiNtNtBP_9debug_api15DebugApiBackendEENtB5_11LendingPool5repayCs8iyf5MSkCde_5tests
FN:264,_RNvYINtCs48qTgYy1n57_12lending_pool11ContractObjINtNtNtNtCs1rODQd5oASQ_22multiversx_sc_scenario3api7impl_vh12vm_hooks_api10VMHooksApiNtNtBP_9debug_api15DebugApiBackendEENtB5_11LendingPool6borrowCs8iyf5MSkCde_5tests
FN:88,_RNvYINtCs48qTgYy1n57_12lending_pool11ContractObjINtNtNtNtCs1rODQd5oASQ_22multiversx_sc_scenario3api7impl_vh12vm_hooks_api10VMHooksApiNtNtBP_9debug_api15DebugApiBackendEENtB5_11LendingPool6supplyCs8iyf5MSkCde_5tests
FN:195,_RNvYINtCs48qTgYy1n57_12lending_pool11ContractObjINtNtNtNtCs1rODQd5oASQ_22multiversx_sc_scenario3api7impl_vh12vm_hooks_api10VMHooksApiNtNtBP_9debug_api15DebugApiBackendEENtB5_11LendingPool8withdrawCs8iyf5MSkCde_5tests
FN:447,_RNvYINtCs48qTgYy1n57_12lending_pool11ContractObjINtNtNtNtCs1rODQd5oASQ_22multiversx_sc_scenario3api7impl_vh12vm_hooks_api10VMHooksApiNtNtBP_9debug_api15DebugApiBackendEENtB5_11LendingPool9liquidateCs8iyf5MSkCde_5tests
FN:26,_RNvYINtCs48qTgYy1n57_12lending_pool11ContractObjINtNtNtNtCs1rODQd5oASQ_22multiversx_sc_scenario3api7impl_vh12vm_hooks_api10VMHooksApiNtNtBP_9debug_api15DebugApiBackendEENtB5_16EndpointWrappers10call_repayCs8iyf5MSkCde_5tests
FN:26,_RNvYINtCs48qTgYy1n57_12lending_pool11ContractObjINtNtNtNtCs1rODQd5oASQ_22multiversx_sc_scenario3api7impl_vh12vm_hooks_api10VMHooksApiNtNtBP_9debug_api15DebugApiBackendEENtB5_16EndpointWrappers11call_borrowCs8iyf5MSkCde_5tests
FN:26,_RNvYINtCs48qTgYy1n57_12lending_pool11ContractObjINtNtNtNtCs1rODQd5oASQ_22multiversx_sc_scenario3api7impl_vh12vm_hooks_api10VMHooksApiNtNtBP_9debug_api15DebugApiBackendEENtB5_16EndpointWrappers11call_supplyCs8iyf5MSkCde_5tests
FN:26,_RNvYINtCs48qTgYy1n57_12lending_pool11ContractObjINtNtNtNtCs1rODQd5oASQ_22multiversx_sc_scenario3api7impl_vh12vm_hooks_api10VMHooksApiNtNtBP_9debug_api15DebugApiBackendEENtB5_16EndpointWrappers12call_upgradeCs8iyf5MSkCde_5tests
FN:26,_RNvYINtCs48qTgYy1n57_12lending_pool11ContractObjINtNtNtNtCs1rODQd5oASQ_22multiversx_sc_scenario3api7impl_vh12vm_hooks_api10VMHooksApiNtNtBP_9debug_api15DebugApiBackendEENtB5_16EndpointWrappers13call_withdrawCs8iyf5MSkCde_5tests
FN:26,_RNvYINtCs48qTgYy1n57_12lending_pool11ContractObjINtNtNtNtCs1rODQd5oASQ_22multiversx_sc_scenario3api7impl_vh12vm_hooks_api10VMHooksApiNtNtBP_9debug_api15DebugApiBackendEENtB5_16EndpointWrappers14call_liquidateCs8iyf5MSkCde_5tests
FN:26,_RNvYINtCs48qTgYy1n57_12lending_pool11ContractObjINtNtNtNtCs1rODQd5oASQ_22multiversx_sc_scenario3api7impl_vh12vm_hooks_api10VMHooksApiNtNtBP_9debug_api15DebugApiBackendEENtB5_16EndpointWrappers15call_flash_loanCs8iyf5MSkCde_5tests
FN:26,_RNvYINtCs48qTgYy1n57_12lending_pool11ContractObjINtNtNtNtCs1rODQd5oASQ_22multiversx_sc_scenario3api7impl_vh12vm_hooks_api10VMHooksApiNtNtBP_9debug_api15DebugApiBackendEENtB5_16EndpointWrappers17call_enable_vaultCs8iyf5MSkCde_5tests
FN:26,_RNvYINtCs48qTgYy1n57_12lending_pool11ContractObjINtNtNtNtCs1rODQd5oASQ_22multiversx_sc_scenario3api7impl_vh12vm_hooks_api10VMHooksApiNtNtBP_9debug_api15DebugApiBackendEENtB5_16EndpointWrappers17callback_selectorCs8iyf5MSkCde_5tests
FN:26,_RNvYINtCs48qTgYy1n57_12lending_pool11ContractObjINtNtNtNtCs1rODQd5oASQ_22multiversx_sc_scenario3api7impl_vh12vm_hooks_api10VMHooksApiNtNtBP_9debug_api15DebugApiBackendEENtB5_16EndpointWrappers18call_disable_vaultCs8iyf5MSkCde_5tests
FN:26,_RNvYINtCs48qTgYy1n57_12lending_pool11ContractObjINtNtNtNtCs1rODQd5oASQ_22multiversx_sc_scenario3api7impl_vh12vm_hooks_api10VMHooksApiNtNtBP_9debug_api15DebugApiBackendEENtB5_16EndpointWrappers19call_update_indexesCs8iyf5MSkCde_5tests
FN:26,_RNvYINtCs48qTgYy1n57_12lending_pool11ContractObjINtNtNtNtCs1rODQd5oASQ_22multiversx_sc_scenario3api7impl_vh12vm_hooks_api10VMHooksApiNtNtBP_9debug_api15DebugApiBackendEENtB5_16EndpointWrappers29call_update_account_positionsCs8iyf5MSkCde_5tests
FN:26,_RNvYINtCs48qTgYy1n57_12lending_pool11ContractObjINtNtNtNtCs1rODQd5oASQ_22multiversx_sc_scenario3api7impl_vh12vm_hooks_api10VMHooksApiNtNtBP_9debug_api15DebugApiBackendEENtB5_16EndpointWrappers30call_update_position_thresholdCs8iyf5MSkCde_5tests
FN:26,_RNvYINtCs48qTgYy1n57_12lending_pool11ContractObjINtNtNtNtCs1rODQd5oASQ_22multiversx_sc_scenario3api7impl_vh12vm_hooks_api10VMHooksApiNtNtBP_9debug_api15DebugApiBackendEENtB5_16EndpointWrappers4callCs8iyf5MSkCde_5tests
FN:26,_RNvYINtCs48qTgYy1n57_12lending_pool11ContractObjINtNtNtNtCs1rODQd5oASQ_22multiversx_sc_scenario3api7impl_vh12vm_hooks_api10VMHooksApiNtNtBP_9debug_api15DebugApiBackendEENtB5_16EndpointWrappers8callbackCs8iyf5MSkCde_5tests
FN:26,_RNvYINtCs48qTgYy1n57_12lending_pool11ContractObjINtNtNtNtCs1rODQd5oASQ_22multiversx_sc_scenario3api7impl_vh12vm_hooks_api10VMHooksApiNtNtBP_9debug_api15DebugApiBackendEENtB5_16EndpointWrappers9call_initCs8iyf5MSkCde_5tests
FNDA:0,_RNvYpNtCshiqmisuHlyH_12lending_pool11LendingPool4initB5_
FNDA:0,_RNvYpNtCshiqmisuHlyH_12lending_pool11LendingPool6supplyB5_
FNDA:0,_RNvYpNtCshiqmisuHlyH_12lending_pool11LendingPool8withdrawB5_
FNDA:0,_RNvYpNtCshiqmisuHlyH_12lending_pool11LendingPool6borrowB5_
FNDA:0,_RNvYpNtCshiqmisuHlyH_12lending_pool11LendingPool5repayB5_
FNDA:0,_RNvYpNtCshiqmisuHlyH_12lending_pool11LendingPool9liquidateB5_
FNDA:0,_RNvYpNtCshiqmisuHlyH_12lending_pool11LendingPool10flash_loanB5_
FNDA:0,_RNvYpNtCshiqmisuHlyH_12lending_pool11LendingPool24update_account_positionsB5_
FNDA:0,_RNvYpNtCshiqmisuHlyH_12lending_pool11LendingPool13disable_vaultB5_
FNDA:0,_RNCNvYpNtCshiqmisuHlyH_12lending_pool11LendingPool13disable_vault0B7_
FNDA:0,_RNvYpNtCshiqmisuHlyH_12lending_pool11LendingPool12enable_vaultB5_
FNDA:0,_RNCNvYpNtCshiqmisuHlyH_12lending_pool11LendingPool12enable_vault0B7_
FNDA:0,_RNvYpNtCshiqmisuHlyH_12lending_pool11LendingPool25update_position_thresholdB5_
FNDA:0,_RNvYpNtCshiqmisuHlyH_12lending_pool11LendingPool14update_indexesB5_
FNDA:0,_RNvYpNtCshiqmisuHlyH_12lending_pool16EndpointWrappers9call_initB5_
FNDA:0,_RNvYpNtCshiqmisuHlyH_12lending_pool16EndpointWrappers12call_upgradeB5_
FNDA:0,_RNvYpNtCshiqmisuHlyH_12lending_pool16EndpointWrappers11call_supplyB5_
FNDA:0,_RNvYpNtCshiqmisuHlyH_12lending_pool16EndpointWrappers13call_withdrawB5_
FNDA:0,_RNvYpNtCshiqmisuHlyH_12lending_pool16EndpointWrappers11call_borrowB5_
FNDA:0,_RNvYpNtCshiqmisuHlyH_12lending_pool16EndpointWrappers10call_repayB5_
FNDA:0,_RNvYpNtCshiqmisuHlyH_12lending_pool16EndpointWrappers14call_liquidateB5_
FNDA:0,_RNvYpNtCshiqmisuHlyH_12lending_pool16EndpointWrappers15call_flash_loanB5_
FNDA:0,_RNvYpNtCshiqmisuHlyH_12lending_pool16EndpointWrappers29call_update_account_positionsB5_
FNDA:0,_RNvYpNtCshiqmisuHlyH_12lending_pool16EndpointWrappers18call_disable_vaultB5_
FNDA:0,_RNvYpNtCshiqmisuHlyH_12lending_pool16EndpointWrappers17call_enable_vaultB5_
FNDA:0,_RNvYpNtCshiqmisuHlyH_12lending_pool16EndpointWrappers30call_update_position_thresholdB5_
FNDA:0,_RNvYpNtCshiqmisuHlyH_12lending_pool16EndpointWrappers19call_update_indexesB5_
FNDA:0,_RNvYpNtCshiqmisuHlyH_12lending_pool16EndpointWrappers4callB5_
FNDA:0,_RNvYpNtCshiqmisuHlyH_12lending_pool16EndpointWrappers17callback_selectorB5_
FNDA:0,_RNvYpNtCshiqmisuHlyH_12lending_pool16EndpointWrappers8callbackB5_
FNDA:0,_RNvXs1_CshiqmisuHlyH_12lending_poolNtB5_11AbiProviderNtNtNtCslPMlHj3qn2H_13multiversx_sc13contract_base21contract_abi_provider19ContractAbiProvider3abi
FNDA:0,_RNvXINICshiqmisuHlyH_12lending_poolst_0pEINtB5_11ContractObjpENtNtNtCslPMlHj3qn2H_13multiversx_sc13contract_base17callable_contract16CallableContract4callB5_
FNDA:0,_RINvCshiqmisuHlyH_12lending_pool12contract_objpEB2_
FNDA:0,_RINvXsu_CshiqmisuHlyH_12lending_poolNtB6_15ContractBuilderNtNtNtCslPMlHj3qn2H_13multiversx_sc13contract_base17callable_contract23CallableContractBuilder16new_contract_objpEB6_
FNDA:0,_RINvNtCshiqmisuHlyH_12lending_pool19___wasm__endpoints__4initpEB4_
FNDA:0,_RINvNtCshiqmisuHlyH_12lending_pool19___wasm__endpoints__7upgradepEB4_
FNDA:0,_RINvNtCshiqmisuHlyH_12lending_pool19___wasm__endpoints__6supplypEB4_
FNDA:0,_RINvNtCshiqmisuHlyH_12lending_pool19___wasm__endpoints__8withdrawpEB4_
FNDA:0,_RINvNtCshiqmisuHlyH_12lending_pool19___wasm__endpoints__6borrowpEB4_
FNDA:0,_RINvNtCshiqmisuHlyH_12lending_pool19___wasm__endpoints__5repaypEB4_
FNDA:0,_RINvNtCshiqmisuHlyH_12lending_pool19___wasm__endpoints__9liquidatepEB4_
FNDA:0,_RINvNtCshiqmisuHlyH_12lending_pool19___wasm__endpoints__10flash_loanpEB4_
FNDA:0,_RINvNtCshiqmisuHlyH_12lending_pool19___wasm__endpoints__24update_account_positionspEB4_
FNDA:0,_RINvNtCshiqmisuHlyH_12lending_pool19___wasm__endpoints__13disable_vaultpEB4_
FNDA:0,_RINvNtCshiqmisuHlyH_12lending_pool19___wasm__endpoints__12enable_vaultpEB4_
FNDA:0,_RINvNtCshiqmisuHlyH_12lending_pool19___wasm__endpoints__25update_position_thresholdpEB4_
FNDA:0,_RINvNtCshiqmisuHlyH_12lending_pool19___wasm__endpoints__14update_indexespEB4_
FNDA:0,_RINvNtCshiqmisuHlyH_12lending_pool19___wasm__endpoints__8callBackpEB4_
FNDA:0,_RINvYpNtCshiqmisuHlyH_12lending_pool10ProxyTrait4initppppEB6_
FNDA:0,_RNvYpNtCshiqmisuHlyH_12lending_pool10ProxyTrait7upgradeB5_
FNDA:0,_RINvYpNtCshiqmisuHlyH_12lending_pool10ProxyTrait6supplyppEB6_
FNDA:0,_RINvYpNtCshiqmisuHlyH_12lending_pool10ProxyTrait8withdrawpEB6_
FNDA:0,_RINvYpNtCshiqmisuHlyH_12lending_pool10ProxyTrait6borrowpEB6_
FNDA:0,_RINvYpNtCshiqmisuHlyH_12lending_pool10ProxyTrait5repaypEB6_
FNDA:0,_RINvYpNtCshiqmisuHlyH_12lending_pool10ProxyTrait9liquidatepppEB6_
FNDA:0,_RINvYpNtCshiqmisuHlyH_12lending_pool10ProxyTrait10flash_loanpppppEB6_
FNDA:0,_RINvYpNtCshiqmisuHlyH_12lending_pool10ProxyTrait24update_account_positionspEB6_
FNDA:0,_RNvYpNtCshiqmisuHlyH_12lending_pool10ProxyTrait13disable_vaultB5_
FNDA:0,_RNvYpNtCshiqmisuHlyH_12lending_pool10ProxyTrait12enable_vaultB5_
FNDA:0,_RINvYpNtCshiqmisuHlyH_12lending_pool10ProxyTrait25update_position_thresholdpppEB6_
FNDA:0,_RINvYpNtCshiqmisuHlyH_12lending_pool10ProxyTrait14update_indexespEB6_
FNDA:0,_RNvXINICshiqmisuHlyH_12lending_poolsv_0pEINtB5_5ProxypENtNtNtCslPMlHj3qn2H_13multiversx_sc13contract_base14proxy_obj_base12ProxyObjBase19extract_opt_addressB5_
FNDA:0,_RNvXINICshiqmisuHlyH_12lending_poolsv_0pEINtB5_5ProxypENtNtNtCslPMlHj3qn2H_13multiversx_sc13contract_base14proxy_obj_base12ProxyObjBase16extract_proxy_toB5_
FNDA:0,_RNvXINICshiqmisuHlyH_12lending_poolsw_0pEINtB5_5ProxypENtNtNtCslPMlHj3qn2H_13multiversx_sc13contract_base14proxy_obj_base11ProxyObjNew13new_proxy_objB5_
FNDA:0,_RNvXINICshiqmisuHlyH_12lending_poolsw_0pEINtB5_5ProxypENtNtNtCslPMlHj3qn2H_13multiversx_sc13contract_base14proxy_obj_base11ProxyObjNew8contractB5_
FNDA:0,_RNvXINICshiqmisuHlyH_12lending_poolsx_0pEINtB5_7ProxyTopENtNtNtCslPMlHj3qn2H_13multiversx_sc13contract_base14proxy_obj_base12ProxyObjBase19extract_opt_addressB5_
FNDA:0,_RNvXINICshiqmisuHlyH_12lending_poolsx_0pEINtB5_7ProxyTopENtNtNtCslPMlHj3qn2H_13multiversx_sc13contract_base14proxy_obj_base12ProxyObjBase15extract_addressB5_
FNDA:0,_RNvXINICshiqmisuHlyH_12lending_poolsx_0pEINtB5_7ProxyTopENtNtNtCslPMlHj3qn2H_13multiversx_sc13contract_base14proxy_obj_base12ProxyObjBase16extract_proxy_toB5_
FNDA:795,_RINvCs48qTgYy1n57_12lending_pool12contract_objINtNtNtNtCs1rODQd5oASQ_22multiversx_sc_scenario3api7impl_vh12vm_hooks_api10VMHooksApiNtNtBN_9debug_api15DebugApiBackendEECs8iyf5MSkCde_5tests
FNDA:47,_RINvXsu_Cs48qTgYy1n57_12lending_poolNtB6_15ContractBuilderNtNtNtCslPMlHj3qn2H_13multiversx_sc13contract_base17callable_contract23CallableContractBuilder16new_contract_objINtNtNtNtCs1rODQd5oASQ_22multiversx_sc_scenario3api7impl_vh12vm_hooks_api10VMHooksApiNtNtB2N_9debug_api15DebugApiBackendEECs8iyf5MSkCde_5tests
FNDA:2,_RNCNvYINtCs48qTgYy1n57_12lending_pool11ContractObjINtNtNtNtCs1rODQd5oASQ_22multiversx_sc_scenario3api7impl_vh12vm_hooks_api10VMHooksApiNtNtBR_9debug_api15DebugApiBackendEENtB7_11LendingPool12enable_vault0Cs8iyf5MSkCde_5tests
FNDA:3,_RNCNvYINtCs48qTgYy1n57_12lending_pool11ContractObjINtNtNtNtCs1rODQd5oASQ_22multiversx_sc_scenario3api7impl_vh12vm_hooks_api10VMHooksApiNtNtBR_9debug_api15DebugApiBackendEENtB7_11LendingPool13disable_vault0Cs8iyf5MSkCde_5tests
FNDA:1566,_RNvXst_Cs48qTgYy1n57_12lending_poolINtB5_11ContractObjINtNtNtNtCs1rODQd5oASQ_22multiversx_sc_scenario3api7impl_vh12vm_hooks_api10VMHooksApiNtNtBV_9debug_api15DebugApiBackendEENtNtNtCslPMlHj3qn2H_13multiversx_sc13contract_base17callable_contract16CallableContract4callCs8iyf5MSkCde_5tests
FNDA:16,_RNvYINtCs48qTgYy1n57_12lending_pool11ContractObjINtNtNtNtCs1rODQd5oASQ_22multiversx_sc_scenario3api7impl_vh12vm_hooks_api10VMHooksApiNtNtBP_9debug_api15DebugApiBackendEENtB5_11LendingPool10flash_loanCs8iyf5MSkCde_5tests
FNDA:2,_RNvYINtCs48qTgYy1n57_12lending_pool11ContractObjINtNtNtNtCs1rODQd5oASQ_22multiversx_sc_scenario3api7impl_vh12vm_hooks_api10VMHooksApiNtNtBP_9debug_api15DebugApiBackendEENtB5_11LendingPool12enable_vaultCs8iyf5MSkCde_5tests
FNDA:3,_RNvYINtCs48qTgYy1n57_12lending_pool11ContractObjINtNtNtNtCs1rODQd5oASQ_22multiversx_sc_scenario3api7impl_vh12vm_hooks_api10VMHooksApiNtNtBP_9debug_api15DebugApiBackendEENtB5_11LendingPool13disable_vaultCs8iyf5MSkCde_5tests
FNDA:2,_RNvYINtCs48qTgYy1n57_12lending_pool11ContractObjINtNtNtNtCs1rODQd5oASQ_22multiversx_sc_scenario3api7impl_vh12vm_hooks_api10VMHooksApiNtNtBP_9debug_api15DebugApiBackendEENtB5_11LendingPool14update_indexesCs8iyf5MSkCde_5tests
FNDA:2,_RNvYINtCs48qTgYy1n57_12lending_pool11ContractObjINtNtNtNtCs1rODQd5oASQ_22multiversx_sc_scenario3api7impl_vh12vm_hooks_api10VMHooksApiNtNtBP_9debug_api15DebugApiBackendEENtB5_11LendingPool24update_account_positionsCs8iyf5MSkCde_5tests
FNDA:0,_RNvYINtCs48qTgYy1n57_12lending_pool11ContractObjINtNtNtNtCs1rODQd5oASQ_22multiversx_sc_scenario3api7impl_vh12vm_hooks_api10VMHooksApiNtNtBP_9debug_api15DebugApiBackendEENtB5_11LendingPool25update_position_thresholdCs8iyf5MSkCde_5tests
FNDA:47,_RNvYINtCs48qTgYy1n57_12lending_pool11ContractObjINtNtNtNtCs1rODQd5oASQ_22multiversx_sc_scenario3api7impl_vh12vm_hooks_api10VMHooksApiNtNtBP_9debug_api15DebugApiBackendEENtB5_11LendingPool4initCs8iyf5MSkCde_5tests
FNDA:6,_RNvYINtCs48qTgYy1n57_12lending_pool11ContractObjINtNtNtNtCs1rODQd5oASQ_22multiversx_sc_scenario3api7impl_vh12vm_hooks_api10VMHooksApiNtNtBP_9debug_api15DebugApiBackendEENtB5_11LendingPool5repayCs8iyf5MSkCde_5tests
FNDA:40,_RNvYINtCs48qTgYy1n57_12lending_pool11ContractObjINtNtNtNtCs1rODQd5oASQ_22multiversx_sc_scenario3api7impl_vh12vm_hooks_api10VMHooksApiNtNtBP_9debug_api15DebugApiBackendEENtB5_11LendingPool6borrowCs8iyf5MSkCde_5tests
FNDA:87,_RNvYINtCs48qTgYy1n57_12lending_pool11ContractObjINtNtNtNtCs1rODQd5oASQ_22multiversx_sc_scenario3api7impl_vh12vm_hooks_api10VMHooksApiNtNtBP_9debug_api15DebugApiBackendEENtB5_11LendingPool6supplyCs8iyf5MSkCde_5tests
FNDA:7,_RNvYINtCs48qTgYy1n57_12lending_pool11ContractObjINtNtNtNtCs1rODQd5oASQ_22multiversx_sc_scenario3api7impl_vh12vm_hooks_api10VMHooksApiNtNtBP_9debug_api15DebugApiBackendEENtB5_11LendingPool8withdrawCs8iyf5MSkCde_5tests
FNDA:5,_RNvYINtCs48qTgYy1n57_12lending_pool11ContractObjINtNtNtNtCs1rODQd5oASQ_22multiversx_sc_scenario3api7impl_vh12vm_hooks_api10VMHooksApiNtNtBP_9debug_api15DebugApiBackendEENtB5_11LendingPool9liquidateCs8iyf5MSkCde_5tests
FNDA:6,_RNvYINtCs48qTgYy1n57_12lending_pool11ContractObjINtNtNtNtCs1rODQd5oASQ_22multiversx_sc_scenario3api7impl_vh12vm_hooks_api10VMHooksApiNtNtBP_9debug_api15DebugApiBackendEENtB5_16EndpointWrappers10call_repayCs8iyf5MSkCde_5tests
FNDA:40,_RNvYINtCs48qTgYy1n57_12lending_pool11ContractObjINtNtNtNtCs1rODQd5oASQ_22multiversx_sc_scenario3api7impl_vh12vm_hooks_api10VMHooksApiNtNtBP_9debug_api15DebugApiBackendEENtB5_16EndpointWrappers11call_borrowCs8iyf5MSkCde_5tests
FNDA:87,_RNvYINtCs48qTgYy1n57_12lending_pool11ContractObjINtNtNtNtCs1rODQd5oASQ_22multiversx_sc_scenario3api7impl_vh12vm_hooks_api10VMHooksApiNtNtBP_9debug_api15DebugApiBackendEENtB5_16EndpointWrappers11call_supplyCs8iyf5MSkCde_5tests
FNDA:0,_RNvYINtCs48qTgYy1n57_12lending_pool11ContractObjINtNtNtNtCs1rODQd5oASQ_22multiversx_sc_scenario3api7impl_vh12vm_hooks_api10VMHooksApiNtNtBP_9debug_api15DebugApiBackendEENtB5_16EndpointWrappers12call_upgradeCs8iyf5MSkCde_5tests
FNDA:7,_RNvYINtCs48qTgYy1n57_12lending_pool11ContractObjINtNtNtNtCs1rODQd5oASQ_22multiversx_sc_scenario3api7impl_vh12vm_hooks_api10VMHooksApiNtNtBP_9debug_api15DebugApiBackendEENtB5_16EndpointWrappers13call_withdrawCs8iyf5MSkCde_5tests
FNDA:5,_RNvYINtCs48qTgYy1n57_12lending_pool11ContractObjINtNtNtNtCs1rODQd5oASQ_22multiversx_sc_scenario3api7impl_vh12vm_hooks_api10VMHooksApiNtNtBP_9debug_api15DebugApiBackendEENtB5_16EndpointWrappers14call_liquidateCs8iyf5MSkCde_5tests
FNDA:16,_RNvYINtCs48qTgYy1n57_12lending_pool11ContractObjINtNtNtNtCs1rODQd5oASQ_22multiversx_sc_scenario3api7impl_vh12vm_hooks_api10VMHooksApiNtNtBP_9debug_api15DebugApiBackendEENtB5_16EndpointWrappers15call_flash_loanCs8iyf5MSkCde_5tests
FNDA:2,_RNvYINtCs48qTgYy1n57_12lending_pool11ContractObjINtNtNtNtCs1rODQd5oASQ_22multiversx_sc_scenario3api7impl_vh12vm_hooks_api10VMHooksApiNtNtBP_9debug_api15DebugApiBackendEENtB5_16EndpointWrappers17call_enable_vaultCs8iyf5MSkCde_5tests
FNDA:0,_RNvYINtCs48qTgYy1n57_12lending_pool11ContractObjINtNtNtNtCs1rODQd5oASQ_22multiversx_sc_scenario3api7impl_vh12vm_hooks_api10VMHooksApiNtNtBP_9debug_api15DebugApiBackendEENtB5_16EndpointWrappers17callback_selectorCs8iyf5MSkCde_5tests
FNDA:3,_RNvYINtCs48qTgYy1n57_12lending_pool11ContractObjINtNtNtNtCs1rODQd5oASQ_22multiversx_sc_scenario3api7impl_vh12vm_hooks_api10VMHooksApiNtNtBP_9debug_api15DebugApiBackendEENtB5_16EndpointWrappers18call_disable_vaultCs8iyf5MSkCde_5tests
FNDA:2,_RNvYINtCs48qTgYy1n57_12lending_pool11ContractObjINtNtNtNtCs1rODQd5oASQ_22multiversx_sc_scenario3api7impl_vh12vm_hooks_api10VMHooksApiNtNtBP_9debug_api15DebugApiBackendEENtB5_16EndpointWrappers19call_update_indexesCs8iyf5MSkCde_5tests
FNDA:2,_RNvYINtCs48qTgYy1n57_12lending_pool11ContractObjINtNtNtNtCs1rODQd5oASQ_22multiversx_sc_scenario3api7impl_vh12vm_hooks_api10VMHooksApiNtNtBP_9debug_api15DebugApiBackendEENtB5_16EndpointWrappers29call_update_account_positionsCs8iyf5MSkCde_5tests
FNDA:0,_RNvYINtCs48qTgYy1n57_12lending_pool11ContractObjINtNtNtNtCs1rODQd5oASQ_22multiversx_sc_scenario3api7impl_vh12vm_hooks_api10VMHooksApiNtNtBP_9debug_api15DebugApiBackendEENtB5_16EndpointWrappers30call_update_position_thresholdCs8iyf5MSkCde_5tests
FNDA:1566,_RNvYINtCs48qTgYy1n57_12lending_pool11ContractObjINtNtNtNtCs1rODQd5oASQ_22multiversx_sc_scenario3api7impl_vh12vm_hooks_api10VMHooksApiNtNtBP_9debug_api15DebugApiBackendEENtB5_16EndpointWrappers4callCs8iyf5MSkCde_5tests
FNDA:0,_RNvYINtCs48qTgYy1n57_12lending_pool11ContractObjINtNtNtNtCs1rODQd5oASQ_22multiversx_sc_scenario3api7impl_vh12vm_hooks_api10VMHooksApiNtNtBP_9debug_api15DebugApiBackendEENtB5_16EndpointWrappers8callbackCs8iyf5MSkCde_5tests
FNDA:47,_RNvYINtCs48qTgYy1n57_12lending_pool11ContractObjINtNtNtNtCs1rODQd5oASQ_22multiversx_sc_scenario3api7impl_vh12vm_hooks_api10VMHooksApiNtNtBP_9debug_api15DebugApiBackendEENtB5_16EndpointWrappers9call_initCs8iyf5MSkCde_5tests
FNF:15
FNH:14
DA:26,1580
DA:54,47
DA:55,47
DA:56,47
DA:57,47
DA:58,47
DA:88,87
DA:89,87
DA:90,87
DA:91,87
DA:92,87
DA:93,87
DA:94,87
DA:95,87
DA:96,87
DA:97,87
DA:98,87
DA:99,87
DA:100,87
DA:101,87
DA:102,87
DA:103,87
DA:104,87
DA:105,87
DA:106,87
DA:107,87
DA:108,87
DA:110,170
DA:112,90
DA:114,86
DA:116,4
DA:120,90
DA:121,90
DA:122,90
DA:123,90
DA:124,90
DA:125,90
DA:126,90
DA:127,90
DA:128,90
DA:129,90
DA:130,90
DA:131,90
DA:132,90
DA:133,90
DA:134,90
DA:135,90
DA:136,7
DA:140,83
DA:141,83
DA:142,83
DA:143,83
DA:144,83
DA:145,83
DA:146,83
DA:147,83
DA:148,83
DA:149,83
DA:150,83
DA:151,83
DA:152,83
DA:153,83
DA:154,83
DA:155,83
DA:156,83
DA:157,83
DA:158,83
DA:159,83
DA:160,83
DA:161,83
DA:162,83
DA:163,83
DA:164,83
DA:165,83
DA:166,83
DA:167,83
DA:168,83
DA:169,83
DA:170,83
DA:171,83
DA:172,83
DA:173,83
DA:195,7
DA:196,7
DA:197,7
DA:198,7
DA:199,7
DA:200,7
DA:201,7
DA:202,7
DA:203,7
DA:204,7
DA:205,7
DA:207,14
DA:208,7
DA:209,7
DA:210,7
DA:211,7
DA:212,7
DA:213,7
DA:214,7
DA:215,7
DA:216,7
DA:217,7
DA:218,7
DA:219,7
DA:220,7
DA:221,7
DA:222,7
DA:223,7
DA:226,7
DA:227,7
DA:228,7
DA:229,7
DA:264,40
DA:265,40
DA:266,40
DA:267,40
DA:268,40
DA:269,40
DA:270,40
DA:271,40
DA:272,40
DA:273,40
DA:274,40
DA:275,40
DA:276,40
DA:277,40
DA:278,40
DA:279,40
DA:280,40
DA:281,40
DA:282,40
DA:283,40
DA:284,40
DA:285,40
DA:286,40
DA:287,40
DA:289,71
DA:291,40
DA:292,40
DA:293,40
DA:294,40
DA:295,40
DA:296,40
DA:297,40
DA:298,40
DA:299,40
DA:300,40
DA:301,40
DA:302,40
DA:303,40
DA:304,40
DA:305,40
DA:306,40
DA:307,40
DA:308,40
DA:309,40
DA:310,40
DA:311,40
DA:312,40
DA:313,40
DA:316,39
DA:317,39
DA:318,39
DA:319,39
DA:320,39
DA:321,39
DA:322,39
DA:323,39
DA:324,39
DA:325,39
DA:326,39
DA:327,39
DA:328,39
DA:329,39
DA:330,39
DA:331,39
DA:332,39
DA:333,39
DA:334,39
DA:335,39
DA:336,39
DA:337,39
DA:338,39
DA:339,39
DA:340,39
DA:341,39
DA:342,39
DA:343,39
DA:344,39
DA:345,39
DA:346,39
DA:347,39
DA:348,39
DA:349,39
DA:350,39
DA:351,39
DA:352,39
DA:353,39
DA:354,39
DA:355,39
DA:356,39
DA:357,39
DA:358,8
DA:359,8
DA:360,8
DA:361,8
DA:362,8
DA:363,8
DA:364,8
DA:365,8
DA:366,8
DA:367,8
DA:368,8
DA:370,0
DA:373,0
DA:374,0
DA:375,0
DA:376,0
DA:377,0
DA:378,0
DA:380,31
DA:384,31
DA:394,6
DA:395,6
DA:396,6
DA:397,6
DA:398,6
DA:399,6
DA:400,6
DA:401,6
DA:402,6
DA:403,6
DA:404,12
DA:405,6
DA:406,6
DA:407,6
DA:408,6
DA:409,6
DA:410,6
DA:411,6
DA:412,6
DA:413,6
DA:414,6
DA:415,6
DA:416,6
DA:417,6
DA:418,6
DA:419,6
DA:447,5
DA:448,5
DA:449,5
DA:450,5
DA:451,5
DA:452,5
DA:453,5
DA:454,5
DA:455,5
DA:456,5
DA:457,5
DA:458,5
DA:459,5
DA:460,5
DA:461,5
DA:462,5
DA:463,5
DA:492,16
DA:493,16
DA:494,16
DA:496,16
DA:497,16
DA:498,16
DA:499,16
DA:500,16
DA:501,16
DA:502,16
DA:503,16
DA:504,16
DA:505,0
DA:508,16
DA:509,16
DA:510,16
DA:511,16
DA:512,13
DA:515,3
DA:516,3
DA:517,3
DA:518,3
DA:519,3
DA:520,3
DA:521,3
DA:522,3
DA:523,3
DA:524,3
DA:525,3
DA:526,3
DA:527,3
DA:528,3
DA:529,3
DA:530,3
DA:531,3
DA:559,2
DA:560,2
DA:561,2
DA:562,2
DA:563,2
DA:564,2
DA:565,2
DA:584,3
DA:585,3
DA:586,3
DA:587,3
DA:588,3
DA:589,3
DA:590,3
DA:591,3
DA:593,3
DA:594,3
DA:595,3
DA:597,3
DA:598,2
DA:599,2
DA:600,2
DA:601,2
DA:602,2
DA:603,2
DA:604,2
DA:605,2
DA:606,2
DA:607,2
DA:608,2
DA:609,2
DA:611,3
DA:612,3
DA:613,3
DA:614,3
DA:615,3
DA:616,3
DA:617,3
DA:618,3
DA:619,3
DA:620,3
DA:621,3
DA:622,3
DA:623,3
DA:624,3
DA:625,3
DA:626,3
DA:627,3
DA:628,3
DA:629,3
DA:630,3
DA:631,3
DA:632,3
DA:633,3
DA:634,3
DA:635,3
DA:636,3
DA:637,3
DA:638,3
DA:639,3
DA:640,3
DA:641,3
DA:642,3
DA:643,3
DA:644,3
DA:645,3
DA:647,3
DA:648,3
DA:649,3
DA:650,3
DA:651,3
DA:652,3
DA:653,3
DA:654,3
DA:655,3
DA:656,3
DA:657,3
DA:675,2
DA:676,2
DA:677,2
DA:678,2
DA:679,2
DA:680,2
DA:681,2
DA:682,2
DA:683,2
DA:685,2
DA:686,2
DA:687,2
DA:688,2
DA:690,2
DA:691,2
DA:692,2
DA:693,2
DA:694,2
DA:695,2
DA:696,2
DA:697,2
DA:698,2
DA:699,2
DA:700,2
DA:701,2
DA:702,2
DA:704,2
DA:705,2
DA:706,2
DA:707,2
DA:708,2
DA:709,2
DA:710,2
DA:711,2
DA:712,2
DA:713,2
DA:714,2
DA:715,2
DA:716,2
DA:717,2
DA:718,2
DA:719,2
DA:720,2
DA:721,2
DA:722,2
DA:723,2
DA:724,2
DA:725,2
DA:726,2
DA:727,2
DA:728,2
DA:729,2
DA:730,2
DA:731,2
DA:732,2
DA:733,0
DA:736,2
DA:737,2
DA:738,2
DA:739,2
DA:740,2
DA:741,2
DA:742,2
DA:743,2
DA:744,2
DA:745,2
DA:746,2
DA:747,2
DA:748,2
DA:749,2
DA:750,2
DA:751,2
DA:752,2
DA:753,2
DA:754,2
DA:757,2
DA:758,2
DA:759,2
DA:760,2
DA:761,2
DA:762,2
DA:763,2
DA:764,2
DA:765,2
DA:766,2
DA:767,2
DA:768,2
DA:788,0
DA:789,0
DA:790,0
DA:791,0
DA:792,0
DA:793,0
DA:794,0
DA:795,0
DA:796,0
DA:797,0
DA:798,0
DA:800,0
DA:802,0
DA:803,0
DA:804,0
DA:805,0
DA:806,0
DA:808,0
DA:811,0
DA:812,0
DA:814,0
DA:818,0
DA:820,0
DA:821,0
DA:823,0
DA:826,0
DA:827,0
DA:828,0
DA:829,0
DA:830,0
DA:831,0
DA:833,0
DA:834,0
DA:835,0
DA:836,0
DA:837,0
DA:838,0
DA:839,0
DA:840,0
DA:841,0
DA:842,0
DA:844,0
DA:845,0
DA:846,0
DA:847,0
DA:848,0
DA:849,0
DA:850,0
DA:851,0
DA:865,2
DA:866,2
DA:867,4
DA:868,2
DA:869,2
DA:870,2
DA:871,2
DA:872,2
DA:873,2
DA:874,2
DA:875,2
BRF:0
BRH:0
LF:530
LH:472
end_of_record
SF:/Users/mihaieremia/GitHub/rs-lending/lending_pool/src/multiply.rs
FN:28,_RNvYpNtNtCshiqmisuHlyH_12lending_pool8multiply14MultiplyModule8multiplyB7_
FN:11,_RNvYpNtNtCshiqmisuHlyH_12lending_pool8multiply16EndpointWrappers13call_multiplyB7_
FN:11,_RNvYpNtNtCshiqmisuHlyH_12lending_pool8multiply16EndpointWrappers4callB7_
FN:11,_RNvYpNtNtCshiqmisuHlyH_12lending_pool8multiply16EndpointWrappers17callback_selectorB7_
FN:11,_RNvYpNtNtCshiqmisuHlyH_12lending_pool8multiply16EndpointWrappers8callbackB7_
FN:11,_RNvXs1_NtCshiqmisuHlyH_12lending_pool8multiplyNtB5_11AbiProviderNtNtNtCslPMlHj3qn2H_13multiversx_sc13contract_base21contract_abi_provider19ContractAbiProvider3abi
FN:11,_RNvXININtCshiqmisuHlyH_12lending_pool8multiplysj_0pEINtB5_11ContractObjpENtNtNtCslPMlHj3qn2H_13multiversx_sc13contract_base17callable_contract16CallableContract4callB7_
FN:11,_RINvNtCshiqmisuHlyH_12lending_pool8multiply12contract_objpEB4_
FN:11,_RINvXsk_NtCshiqmisuHlyH_12lending_pool8multiplyNtB6_15ContractBuilderNtNtNtCslPMlHj3qn2H_13multiversx_sc13contract_base17callable_contract23CallableContractBuilder16new_contract_objpEB8_
FN:11,_RINvNtNtCshiqmisuHlyH_12lending_pool8multiply19___wasm__endpoints__8multiplypEB6_
FN:11,_RINvYpNtNtCshiqmisuHlyH_12lending_pool8multiply10ProxyTrait8multiplypppEB8_
FNDA:0,_RNvYpNtNtCshiqmisuHlyH_12lending_pool8multiply14MultiplyModule8multiplyB7_
FNDA:0,_RNvYpNtNtCshiqmisuHlyH_12lending_pool8multiply16EndpointWrappers13call_multiplyB7_
FNDA:0,_RNvYpNtNtCshiqmisuHlyH_12lending_pool8multiply16EndpointWrappers4callB7_
FNDA:0,_RNvYpNtNtCshiqmisuHlyH_12lending_pool8multiply16EndpointWrappers17callback_selectorB7_
FNDA:0,_RNvYpNtNtCshiqmisuHlyH_12lending_pool8multiply16EndpointWrappers8callbackB7_
FNDA:0,_RNvXs1_NtCshiqmisuHlyH_12lending_pool8multiplyNtB5_11AbiProviderNtNtNtCslPMlHj3qn2H_13multiversx_sc13contract_base21contract_abi_provider19ContractAbiProvider3abi
FNDA:0,_RNvXININtCshiqmisuHlyH_12lending_pool8multiplysj_0pEINtB5_11ContractObjpENtNtNtCslPMlHj3qn2H_13multiversx_sc13contract_base17callable_contract16CallableContract4callB7_
FNDA:0,_RINvNtCshiqmisuHlyH_12lending_pool8multiply12contract_objpEB4_
FNDA:0,_RINvXsk_NtCshiqmisuHlyH_12lending_pool8multiplyNtB6_15ContractBuilderNtNtNtCslPMlHj3qn2H_13multiversx_sc13contract_base17callable_contract23CallableContractBuilder16new_contract_objpEB8_
FNDA:0,_RINvNtNtCshiqmisuHlyH_12lending_pool8multiply19___wasm__endpoints__8multiplypEB6_
FNDA:0,_RINvYpNtNtCshiqmisuHlyH_12lending_pool8multiply10ProxyTrait8multiplypppEB8_
FNF:2
FNH:0
DA:11,0
DA:28,0
DA:29,0
DA:30,0
DA:31,0
DA:32,0
DA:33,0
DA:34,0
DA:35,0
DA:36,0
DA:37,0
DA:38,0
DA:39,0
DA:40,0
DA:41,0
DA:42,0
DA:43,0
DA:44,0
DA:45,0
DA:46,0
DA:47,0
DA:48,0
DA:49,0
DA:50,0
DA:51,0
DA:52,0
DA:53,0
DA:54,0
DA:55,0
DA:56,0
DA:57,0
DA:58,0
DA:59,0
DA:60,0
DA:61,0
DA:62,0
DA:63,0
DA:64,0
DA:65,0
DA:66,0
DA:67,0
DA:68,0
DA:69,0
DA:72,0
DA:74,0
DA:75,0
DA:76,0
DA:77,0
DA:79,0
DA:80,0
DA:81,0
DA:82,0
DA:84,0
DA:85,0
DA:86,0
DA:87,0
DA:88,0
DA:89,0
DA:90,0
DA:91,0
DA:92,0
DA:93,0
DA:94,0
DA:95,0
DA:96,0
DA:97,0
DA:98,0
DA:99,0
DA:100,0
DA:101,0
DA:102,0
DA:103,0
DA:104,0
DA:105,0
DA:106,0
DA:107,0
DA:108,0
DA:109,0
DA:110,0
DA:111,0
DA:112,0
DA:113,0
DA:114,0
DA:115,0
DA:116,0
DA:117,0
DA:118,0
DA:119,0
DA:120,0
DA:121,0
DA:122,0
DA:123,0
DA:124,0
DA:125,0
DA:126,0
DA:127,0
DA:128,0
DA:129,0
DA:130,0
DA:131,0
DA:132,0
DA:133,0
DA:134,0
DA:135,0
DA:136,0
DA:137,0
DA:138,0
DA:139,0
DA:140,0
DA:141,0
DA:142,0
DA:143,0
DA:144,0
DA:145,0
DA:146,0
DA:147,0
DA:148,0
DA:149,0
DA:150,0
DA:151,0
DA:152,0
DA:153,0
DA:154,0
DA:155,0
DA:156,0
DA:157,0
DA:158,0
DA:159,0
DA:162,0
DA:163,0
DA:164,0
DA:165,0
DA:166,0
DA:167,0
DA:168,0
DA:169,0
DA:170,0
DA:171,0
DA:172,0
DA:173,0
DA:174,0
DA:175,0
DA:176,0
DA:177,0
DA:178,0
DA:179,0
DA:180,0
DA:181,0
DA:182,0
DA:183,0
DA:184,0
DA:185,0
DA:186,0
DA:187,0
BRF:0
BRH:0
LF:154
LH:0
end_of_record
SF:/Users/mihaieremia/GitHub/rs-lending/lending_pool/src/oracle.rs
FN:29,_RNvYpNtNtCshiqmisuHlyH_12lending_pool6oracle12OracleModule24compute_amount_in_tokensB7_
FN:45,_RNvYpNtNtCshiqmisuHlyH_12lending_pool6oracle12OracleModule31get_token_amount_in_dollars_rawB7_
FN:62,_RNvYpNtNtCshiqmisuHlyH_12lending_pool6oracle12OracleModule24get_token_amount_in_egldB7_
FN:75,_RNvYpNtNtCshiqmisuHlyH_12lending_pool6oracle12OracleModule28get_token_amount_in_egld_rawB7_
FN:93,_RNvYpNtNtCshiqmisuHlyH_12lending_pool6oracle12OracleModule15get_token_priceB7_
FN:140,_RNvYpNtNtCshiqmisuHlyH_12lending_pool6oracle12OracleModule15find_price_feedB7_
FN:155,_RNvYpNtNtCshiqmisuHlyH_12lending_pool6oracle12OracleModule17get_safe_lp_priceB7_
FN:196,_RNvYpNtNtCshiqmisuHlyH_12lending_pool6oracle12OracleModule17get_derived_priceB7_
FN:208,_RNvYpNtNtCshiqmisuHlyH_12lending_pool6oracle12OracleModule23get_legld_derived_priceB7_
FN:223,_RNvYpNtNtCshiqmisuHlyH_12lending_pool6oracle12OracleModule23get_xegld_derived_priceB7_
FN:239,_RNvYpNtNtCshiqmisuHlyH_12lending_pool6oracle12OracleModule24get_lxoxno_derived_priceB7_
FN:254,_RNvYpNtNtCshiqmisuHlyH_12lending_pool6oracle12OracleModule14get_pair_stateB7_
FN:268,_RNvYpNtNtCshiqmisuHlyH_12lending_pool6oracle12OracleModule14get_safe_priceB7_
FN:310,_RNvYpNtNtCshiqmisuHlyH_12lending_pool6oracle12OracleModule24get_normal_price_in_egldB7_
FN:375,_RNvYpNtNtCshiqmisuHlyH_12lending_pool6oracle12OracleModule39get_token_price_in_egld_from_aggregatorB7_
FN:394,_RNvYpNtNtCshiqmisuHlyH_12lending_pool6oracle12OracleModule16is_within_anchorB7_
FN:399,_RNvYpNtNtCshiqmisuHlyH_12lending_pool6oracle12OracleModule17create_price_feedB7_
FN:407,_RNvYpNtNtCshiqmisuHlyH_12lending_pool6oracle12OracleModule16get_token_tickerB7_
FN:426,_RNvYpNtNtCshiqmisuHlyH_12lending_pool6oracle12OracleModule12get_lp_priceB7_
FN:468,_RNvYpNtNtCshiqmisuHlyH_12lending_pool6oracle12OracleModule25get_aggregator_price_feedB7_
FN:19,_RNvXININtCshiqmisuHlyH_12lending_pool6oracle0pEpNtB5_12OracleModule16safe_price_proxyB7_
FN:19,_RNvYpNtNtCshiqmisuHlyH_12lending_pool6oracle16EndpointWrappers4callB7_
FN:19,_RNvYpNtNtCshiqmisuHlyH_12lending_pool6oracle16EndpointWrappers17callback_selectorB7_
FN:19,_RNvYpNtNtCshiqmisuHlyH_12lending_pool6oracle16EndpointWrappers8callbackB7_
FN:19,_RNvXs1_NtCshiqmisuHlyH_12lending_pool6oracleNtB5_11AbiProviderNtNtNtCslPMlHj3qn2H_13multiversx_sc13contract_base21contract_abi_provider19ContractAbiProvider3abi
FN:19,_RNvXININtCshiqmisuHlyH_12lending_pool6oracles7_0pEINtB5_11ContractObjpENtNtNtCslPMlHj3qn2H_13multiversx_sc13contract_base17callable_contract16CallableContract4callB7_
FN:19,_RINvNtCshiqmisuHlyH_12lending_pool6oracle12contract_objpEB4_
FN:19,_RINvXs8_NtCshiqmisuHlyH_12lending_pool6oracleNtB6_15ContractBuilderNtNtNtCslPMlHj3qn2H_13multiversx_sc13contract_base17callable_contract23CallableContractBuilder16new_contract_objpEB8_
FN:549,_RINvYpNtNtNtCshiqmisuHlyH_12lending_pool6oracle16safe_price_proxy10ProxyTrait34get_safe_price_by_timestamp_offsetpppEBa_
FN:549,_RINvYpNtNtNtCshiqmisuHlyH_12lending_pool6oracle16safe_price_proxy10ProxyTrait44get_lp_tokens_safe_price_by_timestamp_offsetpppEBa_
FN:549,_RNvXININtNtCshiqmisuHlyH_12lending_pool6oracle16safe_price_proxy0pEINtB5_5ProxypENtNtNtCslPMlHj3qn2H_13multiversx_sc13contract_base14proxy_obj_base12ProxyObjBase19extract_opt_addressB9_
FN:549,_RNvXININtNtCshiqmisuHlyH_12lending_pool6oracle16safe_price_proxy0pEINtB5_5ProxypENtNtNtCslPMlHj3qn2H_13multiversx_sc13contract_base14proxy_obj_base12ProxyObjBase16extract_proxy_toB9_
FN:549,_RNvXININtNtCshiqmisuHlyH_12lending_pool6oracle16safe_price_proxys_0pEINtB5_5ProxypENtNtNtCslPMlHj3qn2H_13multiversx_sc13contract_base14proxy_obj_base11ProxyObjNew13new_proxy_objB9_
FN:549,_RNvXININtNtCshiqmisuHlyH_12lending_pool6oracle16safe_price_proxys_0pEINtB5_5ProxypENtNtNtCslPMlHj3qn2H_13multiversx_sc13contract_base14proxy_obj_base11ProxyObjNew8contractB9_
FN:549,_RNvXININtNtCshiqmisuHlyH_12lending_pool6oracle16safe_price_proxys0_0pEINtB5_7ProxyTopENtNtNtCslPMlHj3qn2H_13multiversx_sc13contract_base14proxy_obj_base12ProxyObjBase19extract_opt_addressB9_
FN:549,_RNvXININtNtCshiqmisuHlyH_12lending_pool6oracle16safe_price_proxys0_0pEINtB5_7ProxyTopENtNtNtCslPMlHj3qn2H_13multiversx_sc13contract_base14proxy_obj_base12ProxyObjBase15extract_addressB9_
FN:549,_RNvXININtNtCshiqmisuHlyH_12lending_pool6oracle16safe_price_proxys0_0pEINtB5_7ProxyTopENtNtNtCslPMlHj3qn2H_13multiversx_sc13contract_base14proxy_obj_base12ProxyObjBase16extract_proxy_toB9_
FN:19,_RNvXNtCs48qTgYy1n57_12lending_pool6oracleINtB4_11ContractObjINtNtNtNtCs1rODQd5oASQ_22multiversx_sc_scenario3api7impl_vh12vm_hooks_api10VMHooksApiNtNtB11_9debug_api15DebugApiBackendEENtB2_12OracleModule16safe_price_proxyCs8iyf5MSkCde_5tests
FN:426,_RNvYINtCs48qTgYy1n57_12lending_pool11ContractObjINtNtNtNtCs1rODQd5oASQ_22multiversx_sc_scenario3api7impl_vh12vm_hooks_api10VMHooksApiNtNtBP_9debug_api15DebugApiBackendEENtNtB5_6oracle12OracleModule12get_lp_priceCs8iyf5MSkCde_5tests
FN:254,_RNvYINtCs48qTgYy1n57_12lending_pool11ContractObjINtNtNtNtCs1rODQd5oASQ_22multiversx_sc_scenario3api7impl_vh12vm_hooks_api10VMHooksApiNtNtBP_9debug_api15DebugApiBackendEENtNtB5_6oracle12OracleModule14get_pair_stateCs8iyf5MSkCde_5tests
FN:268,_RNvYINtCs48qTgYy1n57_12lending_pool11ContractObjINtNtNtNtCs1rODQd5oASQ_22multiversx_sc_scenario3api7impl_vh12vm_hooks_api10VMHooksApiNtNtBP_9debug_api15DebugApiBackendEENtNtB5_6oracle12OracleModule14get_safe_priceCs8iyf5MSkCde_5tests
FN:140,_RNvYINtCs48qTgYy1n57_12lending_pool11ContractObjINtNtNtNtCs1rODQd5oASQ_22multiversx_sc_scenario3api7impl_vh12vm_hooks_api10VMHooksApiNtNtBP_9debug_api15DebugApiBackendEENtNtB5_6oracle12OracleModule15find_price_feedCs8iyf5MSkCde_5tests
FN:93,_RNvYINtCs48qTgYy1n57_12lending_pool11ContractObjINtNtNtNtCs1rODQd5oASQ_22multiversx_sc_scenario3api7impl_vh12vm_hooks_api10VMHooksApiNtNtBP_9debug_api15DebugApiBackendEENtNtB5_6oracle12OracleModule15get_token_priceCs8iyf5MSkCde_5tests
FN:407,_RNvYINtCs48qTgYy1n57_12lending_pool11ContractObjINtNtNtNtCs1rODQd5oASQ_22multiversx_sc_scenario3api7impl_vh12vm_hooks_api10VMHooksApiNtNtBP_9debug_api15DebugApiBackendEENtNtB5_6oracle12OracleModule16get_token_tickerCs8iyf5MSkCde_5tests
FN:394,_RNvYINtCs48qTgYy1n57_12lending_pool11ContractObjINtNtNtNtCs1rODQd5oASQ_22multiversx_sc_scenario3api7impl_vh12vm_hooks_api10VMHooksApiNtNtBP_9debug_api15DebugApiBackendEENtNtB5_6oracle12OracleModule16is_within_anchorCs8iyf5MSkCde_5tests
FN:399,_RNvYINtCs48qTgYy1n57_12lending_pool11ContractObjINtNtNtNtCs1rODQd5oASQ_22multiversx_sc_scenario3api7impl_vh12vm_hooks_api10VMHooksApiNtNtBP_9debug_api15DebugApiBackendEENtNtB5_6oracle12OracleModule17create_price_feedCs8iyf5MSkCde_5tests
FN:196,_RNvYINtCs48qTgYy1n57_12lending_pool11ContractObjINtNtNtNtCs1rODQd5oASQ_22multiversx_sc_scenario3api7impl_vh12vm_hooks_api10VMHooksApiNtNtBP_9debug_api15DebugApiBackendEENtNtB5_6oracle12OracleModule17get_derived_priceCs8iyf5MSkCde_5tests
FN:155,_RNvYINtCs48qTgYy1n57_12lending_pool11ContractObjINtNtNtNtCs1rODQd5oASQ_22multiversx_sc_scenario3api7impl_vh12vm_hooks_api10VMHooksApiNtNtBP_9debug_api15DebugApiBackendEENtNtB5_6oracle12OracleModule17get_safe_lp_priceCs8iyf5MSkCde_5tests
FN:208,_RNvYINtCs48qTgYy1n57_12lending_pool11ContractObjINtNtNtNtCs1rODQd5oASQ_22multiversx_sc_scenario3api7impl_vh12vm_hooks_api10VMHooksApiNtNtBP_9debug_api15DebugApiBackendEENtNtB5_6oracle12OracleModule23get_legld_derived_priceCs8iyf5MSkCde_5tests
FN:223,_RNvYINtCs48qTgYy1n57_12lending_pool11ContractObjINtNtNtNtCs1rODQd5oASQ_22multiversx_sc_scenario3api7impl_vh12vm_hooks_api10VMHooksApiNtNtBP_9debug_api15DebugApiBackendEENtNtB5_6oracle12OracleModule23get_xegld_derived_priceCs8iyf5MSkCde_5tests
FN:29,_RNvYINtCs48qTgYy1n57_12lending_pool11ContractObjINtNtNtNtCs1rODQd5oASQ_22multiversx_sc_scenario3api7impl_vh12vm_hooks_api10VMHooksApiNtNtBP_9debug_api15DebugApiBackendEENtNtB5_6oracle12OracleModule24compute_amount_in_tokensCs8iyf5MSkCde_5tests
FN:239,_RNvYINtCs48qTgYy1n57_12lending_pool11ContractObjINtNtNtNtCs1rODQd5oASQ_22multiversx_sc_scenario3api7impl_vh12vm_hooks_api10VMHooksApiNtNtBP_9debug_api15DebugApiBackendEENtNtB5_6oracle12OracleModule24get_lxoxno_derived_priceCs8iyf5MSkCde_5tests
FN:310,_RNvYINtCs48qTgYy1n57_12lending_pool11ContractObjINtNtNtNtCs1rODQd5oASQ_22multiversx_sc_scenario3api7impl_vh12vm_hooks_api10VMHooksApiNtNtBP_9debug_api15DebugApiBackendEENtNtB5_6oracle12OracleModule24get_normal_price_in_egldCs8iyf5MSkCde_5tests
FN:62,_RNvYINtCs48qTgYy1n57_12lending_pool11ContractObjINtNtNtNtCs1rODQd5oASQ_22multiversx_sc_scenario3api7impl_vh12vm_hooks_api10VMHooksApiNtNtBP_9debug_api15DebugApiBackendEENtNtB5_6oracle12OracleModule24get_token_amount_in_egldCs8iyf5MSkCde_5tests
FN:468,_RNvYINtCs48qTgYy1n57_12lending_pool11ContractObjINtNtNtNtCs1rODQd5oASQ_22multiversx_sc_scenario3api7impl_vh12vm_hooks_api10VMHooksApiNtNtBP_9debug_api15DebugApiBackendEENtNtB5_6oracle12OracleModule25get_aggregator_price_feedCs8iyf5MSkCde_5tests
FN:75,_RNvYINtCs48qTgYy1n57_12lending_pool11ContractObjINtNtNtNtCs1rODQd5oASQ_22multiversx_sc_scenario3api7impl_vh12vm_hooks_api10VMHooksApiNtNtBP_9debug_api15DebugApiBackendEENtNtB5_6oracle12OracleModule28get_token_amount_in_egld_rawCs8iyf5MSkCde_5tests
FN:45,_RNvYINtCs48qTgYy1n57_12lending_pool11ContractObjINtNtNtNtCs1rODQd5oASQ_22multiversx_sc_scenario3api7impl_vh12vm_hooks_api10VMHooksApiNtNtBP_9debug_api15DebugApiBackendEENtNtB5_6oracle12OracleModule31get_token_amount_in_dollars_rawCs8iyf5MSkCde_5tests
FN:375,_RNvYINtCs48qTgYy1n57_12lending_pool11ContractObjINtNtNtNtCs1rODQd5oASQ_22multiversx_sc_scenario3api7impl_vh12vm_hooks_api10VMHooksApiNtNtBP_9debug_api15DebugApiBackendEENtNtB5_6oracle12OracleModule39get_token_price_in_egld_from_aggregatorCs8iyf5MSkCde_5tests
FN:19,_RNvYINtCs48qTgYy1n57_12lending_pool11ContractObjINtNtNtNtCs1rODQd5oASQ_22multiversx_sc_scenario3api7impl_vh12vm_hooks_api10VMHooksApiNtNtBP_9debug_api15DebugApiBackendEENtNtB5_6oracle16EndpointWrappers17callback_selectorCs8iyf5MSkCde_5tests
FN:19,_RNvYINtCs48qTgYy1n57_12lending_pool11ContractObjINtNtNtNtCs1rODQd5oASQ_22multiversx_sc_scenario3api7impl_vh12vm_hooks_api10VMHooksApiNtNtBP_9debug_api15DebugApiBackendEENtNtB5_6oracle16EndpointWrappers4callCs8iyf5MSkCde_5tests
FN:19,_RNvYINtCs48qTgYy1n57_12lending_pool11ContractObjINtNtNtNtCs1rODQd5oASQ_22multiversx_sc_scenario3api7impl_vh12vm_hooks_api10VMHooksApiNtNtBP_9debug_api15DebugApiBackendEENtNtB5_6oracle16EndpointWrappers8callbackCs8iyf5MSkCde_5tests
FN:549,_RINvYINtNtNtCs48qTgYy1n57_12lending_pool6oracle16safe_price_proxy7ProxyToINtNtNtNtCs1rODQd5oASQ_22multiversx_sc_scenario3api7impl_vh12vm_hooks_api10VMHooksApiNtNtB1e_9debug_api15DebugApiBackendEENtB6_10ProxyTrait34get_safe_price_by_timestamp_offsetRINtNtNtNtNtCslPMlHj3qn2H_13multiversx_sc5types7managed7wrapped15managed_address14ManagedAddressB19_EyINtNtB44_18esdt_token_payment16EsdtTokenPaymentB19_EECs8iyf5MSkCde_5tests
FN:549,_RINvYINtNtNtCs48qTgYy1n57_12lending_pool6oracle16safe_price_proxy7ProxyToINtNtNtNtCs1rODQd5oASQ_22multiversx_sc_scenario3api7impl_vh12vm_hooks_api10VMHooksApiNtNtB1e_9debug_api15DebugApiBackendEENtB6_10ProxyTrait44get_lp_tokens_safe_price_by_timestamp_offsetINtNtNtNtNtCslPMlHj3qn2H_13multiversx_sc5types7managed7wrapped15managed_address14ManagedAddressB19_EyRINtNtB4d_8big_uint7BigUintB19_EECs8iyf5MSkCde_5tests
FN:549,_RNvXs0_NtNtCs48qTgYy1n57_12lending_pool6oracle16safe_price_proxyINtB5_7ProxyToINtNtNtNtCs1rODQd5oASQ_22multiversx_sc_scenario3api7impl_vh12vm_hooks_api10VMHooksApiNtNtB1j_9debug_api15DebugApiBackendEENtNtNtCslPMlHj3qn2H_13multiversx_sc13contract_base14proxy_obj_base12ProxyObjBase15extract_addressCs8iyf5MSkCde_5tests
FN:549,_RNvXs0_NtNtCs48qTgYy1n57_12lending_pool6oracle16safe_price_proxyINtB5_7ProxyToINtNtNtNtCs1rODQd5oASQ_22multiversx_sc_scenario3api7impl_vh12vm_hooks_api10VMHooksApiNtNtB1j_9debug_api15DebugApiBackendEENtNtNtCslPMlHj3qn2H_13multiversx_sc13contract_base14proxy_obj_base12ProxyObjBase16extract_proxy_toCs8iyf5MSkCde_5tests
FN:549,_RNvXs_NtNtCs48qTgYy1n57_12lending_pool6oracle16safe_price_proxyINtB4_5ProxyINtNtNtNtCs1rODQd5oASQ_22multiversx_sc_scenario3api7impl_vh12vm_hooks_api10VMHooksApiNtNtB1g_9debug_api15DebugApiBackendEENtNtNtCslPMlHj3qn2H_13multiversx_sc13contract_base14proxy_obj_base11ProxyObjNew13new_proxy_objCs8iyf5MSkCde_5tests
FN:549,_RNvXs_NtNtCs48qTgYy1n57_12lending_pool6oracle16safe_price_proxyINtB4_5ProxyINtNtNtNtCs1rODQd5oASQ_22multiversx_sc_scenario3api7impl_vh12vm_hooks_api10VMHooksApiNtNtB1g_9debug_api15DebugApiBackendEENtNtNtCslPMlHj3qn2H_13multiversx_sc13contract_base14proxy_obj_base11ProxyObjNew8contractCs8iyf5MSkCde_5tests
FNDA:0,_RNvYpNtNtCshiqmisuHlyH_12lending_pool6oracle12OracleModule24compute_amount_in_tokensB7_
FNDA:0,_RNvYpNtNtCshiqmisuHlyH_12lending_pool6oracle12OracleModule31get_token_amount_in_dollars_rawB7_
FNDA:0,_RNvYpNtNtCshiqmisuHlyH_12lending_pool6oracle12OracleModule24get_token_amount_in_egldB7_
FNDA:0,_RNvYpNtNtCshiqmisuHlyH_12lending_pool6oracle12OracleModule28get_token_amount_in_egld_rawB7_
FNDA:0,_RNvYpNtNtCshiqmisuHlyH_12lending_pool6oracle12OracleModule15get_token_priceB7_
FNDA:0,_RNvYpNtNtCshiqmisuHlyH_12lending_pool6oracle12OracleModule15find_price_feedB7_
FNDA:0,_RNvYpNtNtCshiqmisuHlyH_12lending_pool6oracle12OracleModule17get_safe_lp_priceB7_
FNDA:0,_RNvYpNtNtCshiqmisuHlyH_12lending_pool6oracle12OracleModule17get_derived_priceB7_
FNDA:0,_RNvYpNtNtCshiqmisuHlyH_12lending_pool6oracle12OracleModule23get_legld_derived_priceB7_
FNDA:0,_RNvYpNtNtCshiqmisuHlyH_12lending_pool6oracle12OracleModule23get_xegld_derived_priceB7_
FNDA:0,_RNvYpNtNtCshiqmisuHlyH_12lending_pool6oracle12OracleModule24get_lxoxno_derived_priceB7_
FNDA:0,_RNvYpNtNtCshiqmisuHlyH_12lending_pool6oracle12OracleModule14get_pair_stateB7_
FNDA:0,_RNvYpNtNtCshiqmisuHlyH_12lending_pool6oracle12OracleModule14get_safe_priceB7_
FNDA:0,_RNvYpNtNtCshiqmisuHlyH_12lending_pool6oracle12OracleModule24get_normal_price_in_egldB7_
FNDA:0,_RNvYpNtNtCshiqmisuHlyH_12lending_pool6oracle12OracleModule39get_token_price_in_egld_from_aggregatorB7_
FNDA:0,_RNvYpNtNtCshiqmisuHlyH_12lending_pool6oracle12OracleModule16is_within_anchorB7_
FNDA:0,_RNvYpNtNtCshiqmisuHlyH_12lending_pool6oracle12OracleModule17create_price_feedB7_
FNDA:0,_RNvYpNtNtCshiqmisuHlyH_12lending_pool6oracle12OracleModule16get_token_tickerB7_
FNDA:0,_RNvYpNtNtCshiqmisuHlyH_12lending_pool6oracle12OracleModule12get_lp_priceB7_
FNDA:0,_RNvYpNtNtCshiqmisuHlyH_12lending_pool6oracle12OracleModule25get_aggregator_price_feedB7_
FNDA:0,_RNvXININtCshiqmisuHlyH_12lending_pool6oracle0pEpNtB5_12OracleModule16safe_price_proxyB7_
FNDA:0,_RNvYpNtNtCshiqmisuHlyH_12lending_pool6oracle16EndpointWrappers4callB7_
FNDA:0,_RNvYpNtNtCshiqmisuHlyH_12lending_pool6oracle16EndpointWrappers17callback_selectorB7_
FNDA:0,_RNvYpNtNtCshiqmisuHlyH_12lending_pool6oracle16EndpointWrappers8callbackB7_
FNDA:0,_RNvXs1_NtCshiqmisuHlyH_12lending_pool6oracleNtB5_11AbiProviderNtNtNtCslPMlHj3qn2H_13multiversx_sc13contract_base21contract_abi_provider19ContractAbiProvider3abi
FNDA:0,_RNvXININtCshiqmisuHlyH_12lending_pool6oracles7_0pEINtB5_11ContractObjpENtNtNtCslPMlHj3qn2H_13multiversx_sc13contract_base17callable_contract16CallableContract4callB7_
FNDA:0,_RINvNtCshiqmisuHlyH_12lending_pool6oracle12contract_objpEB4_
FNDA:0,_RINvXs8_NtCshiqmisuHlyH_12lending_pool6oracleNtB6_15ContractBuilderNtNtNtCslPMlHj3qn2H_13multiversx_sc13contract_base17callable_contract23CallableContractBuilder16new_contract_objpEB8_
FNDA:0,_RINvYpNtNtNtCshiqmisuHlyH_12lending_pool6oracle16safe_price_proxy10ProxyTrait34get_safe_price_by_timestamp_offsetpppEBa_
FNDA:0,_RINvYpNtNtNtCshiqmisuHlyH_12lending_pool6oracle16safe_price_proxy10ProxyTrait44get_lp_tokens_safe_price_by_timestamp_offsetpppEBa_
FNDA:0,_RNvXININtNtCshiqmisuHlyH_12lending_pool6oracle16safe_price_proxy0pEINtB5_5ProxypENtNtNtCslPMlHj3qn2H_13multiversx_sc13contract_base14proxy_obj_base12ProxyObjBase19extract_opt_addressB9_
FNDA:0,_RNvXININtNtCshiqmisuHlyH_12lending_pool6oracle16safe_price_proxy0pEINtB5_5ProxypENtNtNtCslPMlHj3qn2H_13multiversx_sc13contract_base14proxy_obj_base12ProxyObjBase16extract_proxy_toB9_
FNDA:0,_RNvXININtNtCshiqmisuHlyH_12lending_pool6oracle16safe_price_proxys_0pEINtB5_5ProxypENtNtNtCslPMlHj3qn2H_13multiversx_sc13contract_base14proxy_obj_base11ProxyObjNew13new_proxy_objB9_
FNDA:0,_RNvXININtNtCshiqmisuHlyH_12lending_pool6oracle16safe_price_proxys_0pEINtB5_5ProxypENtNtNtCslPMlHj3qn2H_13multiversx_sc13contract_base14proxy_obj_base11ProxyObjNew8contractB9_
FNDA:0,_RNvXININtNtCshiqmisuHlyH_12lending_pool6oracle16safe_price_proxys0_0pEINtB5_7ProxyTopENtNtNtCslPMlHj3qn2H_13multiversx_sc13contract_base14proxy_obj_base12ProxyObjBase19extract_opt_addressB9_
FNDA:0,_RNvXININtNtCshiqmisuHlyH_12lending_pool6oracle16safe_price_proxys0_0pEINtB5_7ProxyTopENtNtNtCslPMlHj3qn2H_13multiversx_sc13contract_base14proxy_obj_base12ProxyObjBase15extract_addressB9_
FNDA:0,_RNvXININtNtCshiqmisuHlyH_12lending_pool6oracle16safe_price_proxys0_0pEINtB5_7ProxyTopENtNtNtCslPMlHj3qn2H_13multiversx_sc13contract_base14proxy_obj_base12ProxyObjBase16extract_proxy_toB9_
FNDA:123,_RNvXNtCs48qTgYy1n57_12lending_pool6oracleINtB4_11ContractObjINtNtNtNtCs1rODQd5oASQ_22multiversx_sc_scenario3api7impl_vh12vm_hooks_api10VMHooksApiNtNtB11_9debug_api15DebugApiBackendEENtB2_12OracleModule16safe_price_proxyCs8iyf5MSkCde_5tests
FNDA:2,_RNvYINtCs48qTgYy1n57_12lending_pool11ContractObjINtNtNtNtCs1rODQd5oASQ_22multiversx_sc_scenario3api7impl_vh12vm_hooks_api10VMHooksApiNtNtBP_9debug_api15DebugApiBackendEENtNtB5_6oracle12OracleModule12get_lp_priceCs8iyf5MSkCde_5tests
FNDA:121,_RNvYINtCs48qTgYy1n57_12lending_pool11ContractObjINtNtNtNtCs1rODQd5oASQ_22multiversx_sc_scenario3api7impl_vh12vm_hooks_api10VMHooksApiNtNtBP_9debug_api15DebugApiBackendEENtNtB5_6oracle12OracleModule14get_pair_stateCs8iyf5MSkCde_5tests
FNDA:121,_RNvYINtCs48qTgYy1n57_12lending_pool11ContractObjINtNtNtNtCs1rODQd5oASQ_22multiversx_sc_scenario3api7impl_vh12vm_hooks_api10VMHooksApiNtNtBP_9debug_api15DebugApiBackendEENtNtB5_6oracle12OracleModule14get_safe_priceCs8iyf5MSkCde_5tests
FNDA:134,_RNvYINtCs48qTgYy1n57_12lending_pool11ContractObjINtNtNtNtCs1rODQd5oASQ_22multiversx_sc_scenario3api7impl_vh12vm_hooks_api10VMHooksApiNtNtBP_9debug_api15DebugApiBackendEENtNtB5_6oracle12OracleModule15find_price_feedCs8iyf5MSkCde_5tests
FNDA:985,_RNvYINtCs48qTgYy1n57_12lending_pool11ContractObjINtNtNtNtCs1rODQd5oASQ_22multiversx_sc_scenario3api7impl_vh12vm_hooks_api10VMHooksApiNtNtBP_9debug_api15DebugApiBackendEENtNtB5_6oracle12OracleModule15get_token_priceCs8iyf5MSkCde_5tests
FNDA:2172,_RNvYINtCs48qTgYy1n57_12lending_pool11ContractObjINtNtNtNtCs1rODQd5oASQ_22multiversx_sc_scenario3api7impl_vh12vm_hooks_api10VMHooksApiNtNtBP_9debug_api15DebugApiBackendEENtNtB5_6oracle12OracleModule16get_token_tickerCs8iyf5MSkCde_5tests
FNDA:122,_RNvYINtCs48qTgYy1n57_12lending_pool11ContractObjINtNtNtNtCs1rODQd5oASQ_22multiversx_sc_scenario3api7impl_vh12vm_hooks_api10VMHooksApiNtNtBP_9debug_api15DebugApiBackendEENtNtB5_6oracle12OracleModule16is_within_anchorCs8iyf5MSkCde_5tests
FNDA:2053,_RNvYINtCs48qTgYy1n57_12lending_pool11ContractObjINtNtNtNtCs1rODQd5oASQ_22multiversx_sc_scenario3api7impl_vh12vm_hooks_api10VMHooksApiNtNtBP_9debug_api15DebugApiBackendEENtNtB5_6oracle12OracleModule17create_price_feedCs8iyf5MSkCde_5tests
FNDA:3,_RNvYINtCs48qTgYy1n57_12lending_pool11ContractObjINtNtNtNtCs1rODQd5oASQ_22multiversx_sc_scenario3api7impl_vh12vm_hooks_api10VMHooksApiNtNtBP_9debug_api15DebugApiBackendEENtNtB5_6oracle12OracleModule17get_derived_priceCs8iyf5MSkCde_5tests
FNDA:1,_RNvYINtCs48qTgYy1n57_12lending_pool11ContractObjINtNtNtNtCs1rODQd5oASQ_22multiversx_sc_scenario3api7impl_vh12vm_hooks_api10VMHooksApiNtNtBP_9debug_api15DebugApiBackendEENtNtB5_6oracle12OracleModule17get_safe_lp_priceCs8iyf5MSkCde_5tests
FNDA:0,_RNvYINtCs48qTgYy1n57_12lending_pool11ContractObjINtNtNtNtCs1rODQd5oASQ_22multiversx_sc_scenario3api7impl_vh12vm_hooks_api10VMHooksApiNtNtBP_9debug_api15DebugApiBackendEENtNtB5_6oracle12OracleModule23get_legld_derived_priceCs8iyf5MSkCde_5tests
FNDA:3,_RNvYINtCs48qTgYy1n57_12lending_pool11ContractObjINtNtNtNtCs1rODQd5oASQ_22multiversx_sc_scenario3api7impl_vh12vm_hooks_api10VMHooksApiNtNtBP_9debug_api15DebugApiBackendEENtNtB5_6oracle12OracleModule23get_xegld_derived_priceCs8iyf5MSkCde_5tests
FNDA:9,_RNvYINtCs48qTgYy1n57_12lending_pool11ContractObjINtNtNtNtCs1rODQd5oASQ_22multiversx_sc_scenario3api7impl_vh12vm_hooks_api10VMHooksApiNtNtBP_9debug_api15DebugApiBackendEENtNtB5_6oracle12OracleModule24compute_amount_in_tokensCs8iyf5MSkCde_5tests
FNDA:0,_RNvYINtCs48qTgYy1n57_12lending_pool11ContractObjINtNtNtNtCs1rODQd5oASQ_22multiversx_sc_scenario3api7impl_vh12vm_hooks_api10VMHooksApiNtNtBP_9debug_api15DebugApiBackendEENtNtB5_6oracle12OracleModule24get_lxoxno_derived_priceCs8iyf5MSkCde_5tests
FNDA:130,_RNvYINtCs48qTgYy1n57_12lending_pool11ContractObjINtNtNtNtCs1rODQd5oASQ_22multiversx_sc_scenario3api7impl_vh12vm_hooks_api10VMHooksApiNtNtBP_9debug_api15DebugApiBackendEENtNtB5_6oracle12OracleModule24get_normal_price_in_egldCs8iyf5MSkCde_5tests
FNDA:77,_RNvYINtCs48qTgYy1n57_12lending_pool11ContractObjINtNtNtNtCs1rODQd5oASQ_22multiversx_sc_scenario3api7impl_vh12vm_hooks_api10VMHooksApiNtNtBP_9debug_api15DebugApiBackendEENtNtB5_6oracle12OracleModule24get_token_amount_in_egldCs8iyf5MSkCde_5tests
FNDA:1066,_RNvYINtCs48qTgYy1n57_12lending_pool11ContractObjINtNtNtNtCs1rODQd5oASQ_22multiversx_sc_scenario3api7impl_vh12vm_hooks_api10VMHooksApiNtNtBP_9debug_api15DebugApiBackendEENtNtB5_6oracle12OracleModule25get_aggregator_price_feedCs8iyf5MSkCde_5tests
FNDA:142,_RNvYINtCs48qTgYy1n57_12lending_pool11ContractObjINtNtNtNtCs1rODQd5oASQ_22multiversx_sc_scenario3api7impl_vh12vm_hooks_api10VMHooksApiNtNtBP_9debug_api15DebugApiBackendEENtNtB5_6oracle12OracleModule28get_token_amount_in_egld_rawCs8iyf5MSkCde_5tests
FNDA:37,_RNvYINtCs48qTgYy1n57_12lending_pool11ContractObjINtNtNtNtCs1rODQd5oASQ_22multiversx_sc_scenario3api7impl_vh12vm_hooks_api10VMHooksApiNtNtBP_9debug_api15DebugApiBackendEENtNtB5_6oracle12OracleModule31get_token_amount_in_dollars_rawCs8iyf5MSkCde_5tests
FNDA:130,_RNvYINtCs48qTgYy1n57_12lending_pool11ContractObjINtNtNtNtCs1rODQd5oASQ_22multiversx_sc_scenario3api7impl_vh12vm_hooks_api10VMHooksApiNtNtBP_9debug_api15DebugApiBackendEENtNtB5_6oracle12OracleModule39get_token_price_in_egld_from_aggregatorCs8iyf5MSkCde_5tests
FNDA:0,_RNvYINtCs48qTgYy1n57_12lending_pool11ContractObjINtNtNtNtCs1rODQd5oASQ_22multiversx_sc_scenario3api7impl_vh12vm_hooks_api10VMHooksApiNtNtBP_9debug_api15DebugApiBackendEENtNtB5_6oracle16EndpointWrappers17callback_selectorCs8iyf5MSkCde_5tests
FNDA:6199,_RNvYINtCs48qTgYy1n57_12lending_pool11ContractObjINtNtNtNtCs1rODQd5oASQ_22multiversx_sc_scenario3api7impl_vh12vm_hooks_api10VMHooksApiNtNtBP_9debug_api15DebugApiBackendEENtNtB5_6oracle16EndpointWrappers4callCs8iyf5MSkCde_5tests
FNDA:0,_RNvYINtCs48qTgYy1n57_12lending_pool11ContractObjINtNtNtNtCs1rODQd5oASQ_22multiversx_sc_scenario3api7impl_vh12vm_hooks_api10VMHooksApiNtNtBP_9debug_api15DebugApiBackendEENtNtB5_6oracle16EndpointWrappers8callbackCs8iyf5MSkCde_5tests
FNDA:121,_RINvYINtNtNtCs48qTgYy1n57_12lending_pool6oracle16safe_price_proxy7ProxyToINtNtNtNtCs1rODQd5oASQ_22multiversx_sc_scenario3api7impl_vh12vm_hooks_api10VMHooksApiNtNtB1e_9debug_api15DebugApiBackendEENtB6_10ProxyTrait34get_safe_price_by_timestamp_offsetRINtNtNtNtNtCslPMlHj3qn2H_13multiversx_sc5types7managed7wrapped15managed_address14ManagedAddressB19_EyINtNtB44_18esdt_token_payment16EsdtTokenPaymentB19_EECs8iyf5MSkCde_5tests
FNDA:2,_RINvYINtNtNtCs48qTgYy1n57_12lending_pool6oracle16safe_price_proxy7ProxyToINtNtNtNtCs1rODQd5oASQ_22multiversx_sc_scenario3api7impl_vh12vm_hooks_api10VMHooksApiNtNtB1e_9debug_api15DebugApiBackendEENtB6_10ProxyTrait44get_lp_tokens_safe_price_by_timestamp_offsetINtNtNtNtNtCslPMlHj3qn2H_13multiversx_sc5types7managed7wrapped15managed_address14ManagedAddressB19_EyRINtNtB4d_8big_uint7BigUintB19_EECs8iyf5MSkCde_5tests
FNDA:123,_RNvXs0_NtNtCs48qTgYy1n57_12lending_pool6oracle16safe_price_proxyINtB5_7ProxyToINtNtNtNtCs1rODQd5oASQ_22multiversx_sc_scenario3api7impl_vh12vm_hooks_api10VMHooksApiNtNtB1j_9debug_api15DebugApiBackendEENtNtNtCslPMlHj3qn2H_13multiversx_sc13contract_base14proxy_obj_base12ProxyObjBase15extract_addressCs8iyf5MSkCde_5tests
FNDA:123,_RNvXs0_NtNtCs48qTgYy1n57_12lending_pool6oracle16safe_price_proxyINtB5_7ProxyToINtNtNtNtCs1rODQd5oASQ_22multiversx_sc_scenario3api7impl_vh12vm_hooks_api10VMHooksApiNtNtB1j_9debug_api15DebugApiBackendEENtNtNtCslPMlHj3qn2H_13multiversx_sc13contract_base14proxy_obj_base12ProxyObjBase16extract_proxy_toCs8iyf5MSkCde_5tests
FNDA:123,_RNvXs_NtNtCs48qTgYy1n57_12lending_pool6oracle16safe_price_proxyINtB4_5ProxyINtNtNtNtCs1rODQd5oASQ_22multiversx_sc_scenario3api7impl_vh12vm_hooks_api10VMHooksApiNtNtB1g_9debug_api15DebugApiBackendEENtNtNtCslPMlHj3qn2H_13multiversx_sc13contract_base14proxy_obj_base11ProxyObjNew13new_proxy_objCs8iyf5MSkCde_5tests
FNDA:123,_RNvXs_NtNtCs48qTgYy1n57_12lending_pool6oracle16safe_price_proxyINtB4_5ProxyINtNtNtNtCs1rODQd5oASQ_22multiversx_sc_scenario3api7impl_vh12vm_hooks_api10VMHooksApiNtNtB1g_9debug_api15DebugApiBackendEENtNtNtCslPMlHj3qn2H_13multiversx_sc13contract_base14proxy_obj_base11ProxyObjNew8contractCs8iyf5MSkCde_5tests
FNF:22
FNH:20
DA:19,6199
DA:29,9
DA:30,9
DA:31,9
DA:32,9
DA:33,9
DA:34,9
DA:45,37
DA:46,37
DA:47,37
DA:48,37
DA:49,37
DA:50,37
DA:62,77
DA:63,77
DA:64,77
DA:75,142
DA:76,142
DA:77,142
DA:78,142
DA:79,142
DA:80,142
DA:93,985
DA:94,985
DA:95,985
DA:96,985
DA:97,985
DA:98,839
DA:99,146
DA:100,146
DA:101,12
DA:102,12
DA:103,12
DA:104,12
DA:105,12
DA:106,12
DA:107,134
DA:108,134
DA:109,134
DA:110,134
DA:111,134
DA:113,134
DA:114,134
DA:115,134
DA:116,134
DA:117,134
DA:118,134
DA:119,134
DA:120,134
DA:121,134
DA:122,134
DA:123,134
DA:124,134
DA:125,134
DA:140,134
DA:141,134
DA:142,3
DA:143,1
DA:145,130
DA:147,0
DA:155,1
DA:156,1
DA:157,1
DA:158,1
DA:159,1
DA:161,1
DA:162,1
DA:163,1
DA:164,1
DA:165,1
DA:166,1
DA:167,1
DA:168,1
DA:169,1
DA:170,1
DA:171,1
DA:172,0
DA:173,0
DA:174,0
DA:175,0
DA:176,0
DA:177,0
DA:178,0
DA:180,0
DA:181,0
DA:182,0
DA:184,0
DA:188,1
DA:196,3
DA:197,3
DA:198,3
DA:199,0
DA:200,0
DA:201,0
DA:208,0
DA:209,0
DA:210,0
DA:211,0
DA:212,0
DA:213,0
DA:214,0
DA:215,0
DA:216,0
DA:217,0
DA:223,3
DA:224,3
DA:225,3
DA:226,3
DA:227,3
DA:228,3
DA:229,3
DA:230,3
DA:231,3
DA:232,3
DA:239,0
DA:240,0
DA:241,0
DA:242,0
DA:243,0
DA:244,0
DA:245,0
DA:246,0
DA:247,0
DA:248,0
DA:249,0
DA:250,0
DA:251,0
DA:254,121
DA:255,121
DA:256,121
DA:257,121
DA:258,121
DA:259,121
DA:268,121
DA:269,121
DA:270,121
DA:271,121
DA:272,121
DA:273,121
DA:274,121
DA:276,121
DA:277,121
DA:278,121
DA:279,121
DA:280,121
DA:281,121
DA:282,121
DA:283,121
DA:284,121
DA:285,121
DA:286,121
DA:287,121
DA:288,121
DA:289,121
DA:290,121
DA:291,121
DA:292,0
DA:293,0
DA:294,0
DA:295,0
DA:310,130
DA:311,130
DA:312,121
DA:314,130
DA:315,130
DA:316,130
DA:318,0
DA:321,130
DA:322,130
DA:324,121
DA:326,9
DA:329,130
DA:330,121
DA:331,121
DA:332,121
DA:333,121
DA:334,121
DA:335,121
DA:336,121
DA:337,121
DA:338,121
DA:339,121
DA:340,121
DA:341,121
DA:342,0
DA:343,0
DA:344,0
DA:345,0
DA:346,0
DA:347,0
DA:348,0
DA:350,0
DA:351,0
DA:352,0
DA:354,0
DA:356,9
DA:357,9
DA:358,0
DA:359,0
DA:361,0
DA:364,130
DA:375,130
DA:376,130
DA:377,130
DA:378,130
DA:379,130
DA:380,130
DA:381,130
DA:382,130
DA:394,122
DA:395,122
DA:396,122
DA:399,2053
DA:400,2053
DA:407,2172
DA:408,2172
DA:409,2172
DA:410,936
DA:411,1236
DA:412,1236
DA:413,1236
DA:414,1236
DA:415,123
DA:417,1113
DA:426,2
DA:427,2
DA:428,2
DA:429,2
DA:430,2
DA:431,2
DA:432,2
DA:433,2
DA:434,2
DA:435,2
DA:436,2
DA:437,2
DA:438,2
DA:439,2
DA:440,2
DA:441,2
DA:442,2
DA:443,2
DA:444,2
DA:445,2
DA:446,2
DA:447,2
DA:448,2
DA:449,2
DA:450,2
DA:451,2
DA:452,2
DA:453,2
DA:454,2
DA:455,2
DA:456,2
DA:457,2
DA:458,2
DA:460,0
DA:468,1066
DA:469,1066
DA:470,1066
DA:471,1066
DA:472,1066
DA:473,0
DA:493,1066
DA:494,1066
DA:495,1066
DA:496,1066
DA:497,1066
DA:498,1066
DA:499,1066
DA:500,1066
DA:501,1066
DA:549,615
BRF:0
BRH:0
LF:274
LH:215
end_of_record
SF:/Users/mihaieremia/GitHub/rs-lending/lending_pool/src/position.rs
FN:45,_RNvYpNtNtCshiqmisuHlyH_12lending_pool8position14PositionModule11update_debtB7_
FN:103,_RNvYpNtNtCshiqmisuHlyH_12lending_pool8position14PositionModule15update_interestB7_
FN:156,_RNvYpNtNtCshiqmisuHlyH_12lending_pool8position14PositionModule5enterB7_
FN:200,_RNvYpNtNtCshiqmisuHlyH_12lending_pool8position14PositionModule21get_or_create_accountB7_
FN:238,_RNvYpNtNtCshiqmisuHlyH_12lending_pool8position14PositionModule30get_or_create_deposit_positionB7_
FN:282,_RNvYpNtNtCshiqmisuHlyH_12lending_pool8position14PositionModule22update_supply_positionB7_
FN:331,_RNvYpNtNtCshiqmisuHlyH_12lending_pool8position14PositionModule22update_market_positionB7_
FN:363,_RNvYpNtNtCshiqmisuHlyH_12lending_pool8position14PositionModule23increase_vault_positionB7_
FN:364,_RNCNvYpNtNtCshiqmisuHlyH_12lending_pool8position14PositionModule23increase_vault_position0B9_
FN:389,_RNvYpNtNtCshiqmisuHlyH_12lending_pool8position14PositionModule30update_asset_config_for_e_modeB7_
FN:444,_RNvYpNtNtCshiqmisuHlyH_12lending_pool8position14PositionModule9__withdrawB7_
FN:472,_RNCNvYpNtNtCshiqmisuHlyH_12lending_pool8position14PositionModule9__withdraw0B9_
FN:556,_RNvYpNtNtCshiqmisuHlyH_12lending_pool8position14PositionModule25handle_nft_after_withdrawB7_
FN:601,_RNvYpNtNtCshiqmisuHlyH_12lending_pool8position14PositionModule22handle_borrow_positionB7_
FN:665,_RNvYpNtNtCshiqmisuHlyH_12lending_pool8position14PositionModule29get_or_create_borrow_positionB7_
FN:712,_RNvYpNtNtCshiqmisuHlyH_12lending_pool8position14PositionModule21handle_repay_positionB7_
FN:762,_RNvYpNtNtCshiqmisuHlyH_12lending_pool8position14PositionModule21handle_isolated_repayB7_
FN:817,_RNvYpNtNtCshiqmisuHlyH_12lending_pool8position14PositionModule6__repayB7_
FN:878,_RNvYpNtNtCshiqmisuHlyH_12lending_pool8position14PositionModule18handle_liquidationB7_
FN:974,_RNvYpNtNtCshiqmisuHlyH_12lending_pool8position14PositionModule19process_liquidationB7_
FN:16,_RNvYpNtNtCshiqmisuHlyH_12lending_pool8position16EndpointWrappers4callB7_
FN:16,_RNvYpNtNtCshiqmisuHlyH_12lending_pool8position16EndpointWrappers17callback_selectorB7_
FN:16,_RNvYpNtNtCshiqmisuHlyH_12lending_pool8position16EndpointWrappers8callbackB7_
FN:16,_RNvXs1_NtCshiqmisuHlyH_12lending_pool8positionNtB5_11AbiProviderNtNtNtCslPMlHj3qn2H_13multiversx_sc13contract_base21contract_abi_provider19ContractAbiProvider3abi
FN:16,_RNvXININtCshiqmisuHlyH_12lending_pool8positionsh_0pEINtB5_11ContractObjpENtNtNtCslPMlHj3qn2H_13multiversx_sc13contract_base17callable_contract16CallableContract4callB7_
FN:16,_RINvNtCshiqmisuHlyH_12lending_pool8position12contract_objpEB4_
FN:16,_RINvXsi_NtCshiqmisuHlyH_12lending_pool8positionNtB6_15ContractBuilderNtNtNtCslPMlHj3qn2H_13multiversx_sc13contract_base17callable_contract23CallableContractBuilder16new_contract_objpEB8_
FN:45,_RNvYINtCs48qTgYy1n57_12lending_pool11ContractObjINtNtNtNtCs1rODQd5oASQ_22multiversx_sc_scenario3api7impl_vh12vm_hooks_api10VMHooksApiNtNtBP_9debug_api15DebugApiBackendEENtNtB5_8position14PositionModule11update_debtCs8iyf5MSkCde_5tests
FN:103,_RNvYINtCs48qTgYy1n57_12lending_pool11ContractObjINtNtNtNtCs1rODQd5oASQ_22multiversx_sc_scenario3api7impl_vh12vm_hooks_api10VMHooksApiNtNtBP_9debug_api15DebugApiBackendEENtNtB5_8position14PositionModule15update_interestCs8iyf5MSkCde_5tests
FN:878,_RNvYINtCs48qTgYy1n57_12lending_pool11ContractObjINtNtNtNtCs1rODQd5oASQ_22multiversx_sc_scenario3api7impl_vh12vm_hooks_api10VMHooksApiNtNtBP_9debug_api15DebugApiBackendEENtNtB5_8position14PositionModule18handle_liquidationCs8iyf5MSkCde_5tests
FN:974,_RNvYINtCs48qTgYy1n57_12lending_pool11ContractObjINtNtNtNtCs1rODQd5oASQ_22multiversx_sc_scenario3api7impl_vh12vm_hooks_api10VMHooksApiNtNtBP_9debug_api15DebugApiBackendEENtNtB5_8position14PositionModule19process_liquidationCs8iyf5MSkCde_5tests
FN:200,_RNvYINtCs48qTgYy1n57_12lending_pool11ContractObjINtNtNtNtCs1rODQd5oASQ_22multiversx_sc_scenario3api7impl_vh12vm_hooks_api10VMHooksApiNtNtBP_9debug_api15DebugApiBackendEENtNtB5_8position14PositionModule21get_or_create_accountCs8iyf5MSkCde_5tests
FN:762,_RNvYINtCs48qTgYy1n57_12lending_pool11ContractObjINtNtNtNtCs1rODQd5oASQ_22multiversx_sc_scenario3api7impl_vh12vm_hooks_api10VMHooksApiNtNtBP_9debug_api15DebugApiBackendEENtNtB5_8position14PositionModule21handle_isolated_repayCs8iyf5MSkCde_5tests
FN:712,_RNvYINtCs48qTgYy1n57_12lending_pool11ContractObjINtNtNtNtCs1rODQd5oASQ_22multiversx_sc_scenario3api7impl_vh12vm_hooks_api10VMHooksApiNtNtBP_9debug_api15DebugApiBackendEENtNtB5_8position14PositionModule21handle_repay_positionCs8iyf5MSkCde_5tests
FN:601,_RNvYINtCs48qTgYy1n57_12lending_pool11ContractObjINtNtNtNtCs1rODQd5oASQ_22multiversx_sc_scenario3api7impl_vh12vm_hooks_api10VMHooksApiNtNtBP_9debug_api15DebugApiBackendEENtNtB5_8position14PositionModule22handle_borrow_positionCs8iyf5MSkCde_5tests
FN:331,_RNvYINtCs48qTgYy1n57_12lending_pool11ContractObjINtNtNtNtCs1rODQd5oASQ_22multiversx_sc_scenario3api7impl_vh12vm_hooks_api10VMHooksApiNtNtBP_9debug_api15DebugApiBackendEENtNtB5_8position14PositionModule22update_market_positionCs8iyf5MSkCde_5tests
FN:282,_RNvYINtCs48qTgYy1n57_12lending_pool11ContractObjINtNtNtNtCs1rODQd5oASQ_22multiversx_sc_scenario3api7impl_vh12vm_hooks_api10VMHooksApiNtNtBP_9debug_api15DebugApiBackendEENtNtB5_8position14PositionModule22update_supply_positionCs8iyf5MSkCde_5tests
FN:363,_RNvYINtCs48qTgYy1n57_12lending_pool11ContractObjINtNtNtNtCs1rODQd5oASQ_22multiversx_sc_scenario3api7impl_vh12vm_hooks_api10VMHooksApiNtNtBP_9debug_api15DebugApiBackendEENtNtB5_8position14PositionModule23increase_vault_positionCs8iyf5MSkCde_5tests
FN:556,_RNvYINtCs48qTgYy1n57_12lending_pool11ContractObjINtNtNtNtCs1rODQd5oASQ_22multiversx_sc_scenario3api7impl_vh12vm_hooks_api10VMHooksApiNtNtBP_9debug_api15DebugApiBackendEENtNtB5_8position14PositionModule25handle_nft_after_withdrawCs8iyf5MSkCde_5tests
FN:665,_RNvYINtCs48qTgYy1n57_12lending_pool11ContractObjINtNtNtNtCs1rODQd5oASQ_22multiversx_sc_scenario3api7impl_vh12vm_hooks_api10VMHooksApiNtNtBP_9debug_api15DebugApiBackendEENtNtB5_8position14PositionModule29get_or_create_borrow_positionCs8iyf5MSkCde_5tests
FN:238,_RNvYINtCs48qTgYy1n57_12lending_pool11ContractObjINtNtNtNtCs1rODQd5oASQ_22multiversx_sc_scenario3api7impl_vh12vm_hooks_api10VMHooksApiNtNtBP_9debug_api15DebugApiBackendEENtNtB5_8position14PositionModule30get_or_create_deposit_positionCs8iyf5MSkCde_5tests
FN:389,_RNvYINtCs48qTgYy1n57_12lending_pool11ContractObjINtNtNtNtCs1rODQd5oASQ_22multiversx_sc_scenario3api7impl_vh12vm_hooks_api10VMHooksApiNtNtBP_9debug_api15DebugApiBackendEENtNtB5_8position14PositionModule30update_asset_config_for_e_modeCs8iyf5MSkCde_5tests
FN:156,_RNvYINtCs48qTgYy1n57_12lending_pool11ContractObjINtNtNtNtCs1rODQd5oASQ_22multiversx_sc_scenario3api7impl_vh12vm_hooks_api10VMHooksApiNtNtBP_9debug_api15DebugApiBackendEENtNtB5_8position14PositionModule5enterCs8iyf5MSkCde_5tests
FN:817,_RNvYINtCs48qTgYy1n57_12lending_pool11ContractObjINtNtNtNtCs1rODQd5oASQ_22multiversx_sc_scenario3api7impl_vh12vm_hooks_api10VMHooksApiNtNtBP_9debug_api15DebugApiBackendEENtNtB5_8position14PositionModule6__repayCs8iyf5MSkCde_5tests
FN:444,_RNvYINtCs48qTgYy1n57_12lending_pool11ContractObjINtNtNtNtCs1rODQd5oASQ_22multiversx_sc_scenario3api7impl_vh12vm_hooks_api10VMHooksApiNtNtBP_9debug_api15DebugApiBackendEENtNtB5_8position14PositionModule9__withdrawCs8iyf5MSkCde_5tests
FN:16,_RNvYINtCs48qTgYy1n57_12lending_pool11ContractObjINtNtNtNtCs1rODQd5oASQ_22multiversx_sc_scenario3api7impl_vh12vm_hooks_api10VMHooksApiNtNtBP_9debug_api15DebugApiBackendEENtNtB5_8position16EndpointWrappers17callback_selectorCs8iyf5MSkCde_5tests
FN:16,_RNvYINtCs48qTgYy1n57_12lending_pool11ContractObjINtNtNtNtCs1rODQd5oASQ_22multiversx_sc_scenario3api7impl_vh12vm_hooks_api10VMHooksApiNtNtBP_9debug_api15DebugApiBackendEENtNtB5_8position16EndpointWrappers4callCs8iyf5MSkCde_5tests
FN:16,_RNvYINtCs48qTgYy1n57_12lending_pool11ContractObjINtNtNtNtCs1rODQd5oASQ_22multiversx_sc_scenario3api7impl_vh12vm_hooks_api10VMHooksApiNtNtBP_9debug_api15DebugApiBackendEENtNtB5_8position16EndpointWrappers8callbackCs8iyf5MSkCde_5tests
FN:364,_RNCNvYINtCs48qTgYy1n57_12lending_pool11ContractObjINtNtNtNtCs1rODQd5oASQ_22multiversx_sc_scenario3api7impl_vh12vm_hooks_api10VMHooksApiNtNtBR_9debug_api15DebugApiBackendEENtNtB7_8position14PositionModule23increase_vault_position0Cs8iyf5MSkCde_5tests
FN:472,_RNCNvYINtCs48qTgYy1n57_12lending_pool11ContractObjINtNtNtNtCs1rODQd5oASQ_22multiversx_sc_scenario3api7impl_vh12vm_hooks_api10VMHooksApiNtNtBR_9debug_api15DebugApiBackendEENtNtB7_8position14PositionModule9__withdraw0Cs8iyf5MSkCde_5tests
FNDA:0,_RNvYpNtNtCshiqmisuHlyH_12lending_pool8position14PositionModule11update_debtB7_
FNDA:0,_RNvYpNtNtCshiqmisuHlyH_12lending_pool8position14PositionModule15update_interestB7_
FNDA:0,_RNvYpNtNtCshiqmisuHlyH_12lending_pool8position14PositionModule5enterB7_
FNDA:0,_RNvYpNtNtCshiqmisuHlyH_12lending_pool8position14PositionModule21get_or_create_accountB7_
FNDA:0,_RNvYpNtNtCshiqmisuHlyH_12lending_pool8position14PositionModule30get_or_create_deposit_positionB7_
FNDA:0,_RNvYpNtNtCshiqmisuHlyH_12lending_pool8position14PositionModule22update_supply_positionB7_
FNDA:0,_RNvYpNtNtCshiqmisuHlyH_12lending_pool8position14PositionModule22update_market_positionB7_
FNDA:0,_RNvYpNtNtCshiqmisuHlyH_12lending_pool8position14PositionModule23increase_vault_positionB7_
FNDA:0,_RNCNvYpNtNtCshiqmisuHlyH_12lending_pool8position14PositionModule23increase_vault_position0B9_
FNDA:0,_RNvYpNtNtCshiqmisuHlyH_12lending_pool8position14PositionModule30update_asset_config_for_e_modeB7_
FNDA:0,_RNvYpNtNtCshiqmisuHlyH_12lending_pool8position14PositionModule9__withdrawB7_
FNDA:0,_RNCNvYpNtNtCshiqmisuHlyH_12lending_pool8position14PositionModule9__withdraw0B9_
FNDA:0,_RNvYpNtNtCshiqmisuHlyH_12lending_pool8position14PositionModule25handle_nft_after_withdrawB7_
FNDA:0,_RNvYpNtNtCshiqmisuHlyH_12lending_pool8position14PositionModule22handle_borrow_positionB7_
FNDA:0,_RNvYpNtNtCshiqmisuHlyH_12lending_pool8position14PositionModule29get_or_create_borrow_positionB7_
FNDA:0,_RNvYpNtNtCshiqmisuHlyH_12lending_pool8position14PositionModule21handle_repay_positionB7_
FNDA:0,_RNvYpNtNtCshiqmisuHlyH_12lending_pool8position14PositionModule21handle_isolated_repayB7_
FNDA:0,_RNvYpNtNtCshiqmisuHlyH_12lending_pool8position14PositionModule6__repayB7_
FNDA:0,_RNvYpNtNtCshiqmisuHlyH_12lending_pool8position14PositionModule18handle_liquidationB7_
FNDA:0,_RNvYpNtNtCshiqmisuHlyH_12lending_pool8position14PositionModule19process_liquidationB7_
FNDA:0,_RNvYpNtNtCshiqmisuHlyH_12lending_pool8position16EndpointWrappers4callB7_
FNDA:0,_RNvYpNtNtCshiqmisuHlyH_12lending_pool8position16EndpointWrappers17callback_selectorB7_
FNDA:0,_RNvYpNtNtCshiqmisuHlyH_12lending_pool8position16EndpointWrappers8callbackB7_
FNDA:0,_RNvXs1_NtCshiqmisuHlyH_12lending_pool8positionNtB5_11AbiProviderNtNtNtCslPMlHj3qn2H_13multiversx_sc13contract_base21contract_abi_provider19ContractAbiProvider3abi
FNDA:0,_RNvXININtCshiqmisuHlyH_12lending_pool8positionsh_0pEINtB5_11ContractObjpENtNtNtCslPMlHj3qn2H_13multiversx_sc13contract_base17callable_contract16CallableContract4callB7_
FNDA:0,_RINvNtCshiqmisuHlyH_12lending_pool8position12contract_objpEB4_
FNDA:0,_RINvXsi_NtCshiqmisuHlyH_12lending_pool8positionNtB6_15ContractBuilderNtNtNtCslPMlHj3qn2H_13multiversx_sc13contract_base17callable_contract23CallableContractBuilder16new_contract_objpEB8_
FNDA:423,_RNvYINtCs48qTgYy1n57_12lending_pool11ContractObjINtNtNtNtCs1rODQd5oASQ_22multiversx_sc_scenario3api7impl_vh12vm_hooks_api10VMHooksApiNtNtBP_9debug_api15DebugApiBackendEENtNtB5_8position14PositionModule11update_debtCs8iyf5MSkCde_5tests
FNDA:419,_RNvYINtCs48qTgYy1n57_12lending_pool11ContractObjINtNtNtNtCs1rODQd5oASQ_22multiversx_sc_scenario3api7impl_vh12vm_hooks_api10VMHooksApiNtNtBP_9debug_api15DebugApiBackendEENtNtB5_8position14PositionModule15update_interestCs8iyf5MSkCde_5tests
FNDA:5,_RNvYINtCs48qTgYy1n57_12lending_pool11ContractObjINtNtNtNtCs1rODQd5oASQ_22multiversx_sc_scenario3api7impl_vh12vm_hooks_api10VMHooksApiNtNtBP_9debug_api15DebugApiBackendEENtNtB5_8position14PositionModule18handle_liquidationCs8iyf5MSkCde_5tests
FNDA:5,_RNvYINtCs48qTgYy1n57_12lending_pool11ContractObjINtNtNtNtCs1rODQd5oASQ_22multiversx_sc_scenario3api7impl_vh12vm_hooks_api10VMHooksApiNtNtBP_9debug_api15DebugApiBackendEENtNtB5_8position14PositionModule19process_liquidationCs8iyf5MSkCde_5tests
FNDA:87,_RNvYINtCs48qTgYy1n57_12lending_pool11ContractObjINtNtNtNtCs1rODQd5oASQ_22multiversx_sc_scenario3api7impl_vh12vm_hooks_api10VMHooksApiNtNtBP_9debug_api15DebugApiBackendEENtNtB5_8position14PositionModule21get_or_create_accountCs8iyf5MSkCde_5tests
FNDA:11,_RNvYINtCs48qTgYy1n57_12lending_pool11ContractObjINtNtNtNtCs1rODQd5oASQ_22multiversx_sc_scenario3api7impl_vh12vm_hooks_api10VMHooksApiNtNtBP_9debug_api15DebugApiBackendEENtNtB5_8position14PositionModule21handle_isolated_repayCs8iyf5MSkCde_5tests
FNDA:11,_RNvYINtCs48qTgYy1n57_12lending_pool11ContractObjINtNtNtNtCs1rODQd5oASQ_22multiversx_sc_scenario3api7impl_vh12vm_hooks_api10VMHooksApiNtNtBP_9debug_api15DebugApiBackendEENtNtB5_8position14PositionModule21handle_repay_positionCs8iyf5MSkCde_5tests
FNDA:32,_RNvYINtCs48qTgYy1n57_12lending_pool11ContractObjINtNtNtNtCs1rODQd5oASQ_22multiversx_sc_scenario3api7impl_vh12vm_hooks_api10VMHooksApiNtNtBP_9debug_api15DebugApiBackendEENtNtB5_8position14PositionModule22handle_borrow_positionCs8iyf5MSkCde_5tests
FNDA:71,_RNvYINtCs48qTgYy1n57_12lending_pool11ContractObjINtNtNtNtCs1rODQd5oASQ_22multiversx_sc_scenario3api7impl_vh12vm_hooks_api10VMHooksApiNtNtBP_9debug_api15DebugApiBackendEENtNtB5_8position14PositionModule22update_market_positionCs8iyf5MSkCde_5tests
FNDA:80,_RNvYINtCs48qTgYy1n57_12lending_pool11ContractObjINtNtNtNtCs1rODQd5oASQ_22multiversx_sc_scenario3api7impl_vh12vm_hooks_api10VMHooksApiNtNtBP_9debug_api15DebugApiBackendEENtNtB5_8position14PositionModule22update_supply_positionCs8iyf5MSkCde_5tests
FNDA:9,_RNvYINtCs48qTgYy1n57_12lending_pool11ContractObjINtNtNtNtCs1rODQd5oASQ_22multiversx_sc_scenario3api7impl_vh12vm_hooks_api10VMHooksApiNtNtBP_9debug_api15DebugApiBackendEENtNtB5_8position14PositionModule23increase_vault_positionCs8iyf5MSkCde_5tests
FNDA:5,_RNvYINtCs48qTgYy1n57_12lending_pool11ContractObjINtNtNtNtCs1rODQd5oASQ_22multiversx_sc_scenario3api7impl_vh12vm_hooks_api10VMHooksApiNtNtBP_9debug_api15DebugApiBackendEENtNtB5_8position14PositionModule25handle_nft_after_withdrawCs8iyf5MSkCde_5tests
FNDA:32,_RNvYINtCs48qTgYy1n57_12lending_pool11ContractObjINtNtNtNtCs1rODQd5oASQ_22multiversx_sc_scenario3api7impl_vh12vm_hooks_api10VMHooksApiNtNtBP_9debug_api15DebugApiBackendEENtNtB5_8position14PositionModule29get_or_create_borrow_positionCs8iyf5MSkCde_5tests
FNDA:80,_RNvYINtCs48qTgYy1n57_12lending_pool11ContractObjINtNtNtNtCs1rODQd5oASQ_22multiversx_sc_scenario3api7impl_vh12vm_hooks_api10VMHooksApiNtNtBP_9debug_api15DebugApiBackendEENtNtB5_8position14PositionModule30get_or_create_deposit_positionCs8iyf5MSkCde_5tests
FNDA:119,_RNvYINtCs48qTgYy1n57_12lending_pool11ContractObjINtNtNtNtCs1rODQd5oASQ_22multiversx_sc_scenario3api7impl_vh12vm_hooks_api10VMHooksApiNtNtBP_9debug_api15DebugApiBackendEENtNtB5_8position14PositionModule30update_asset_config_for_e_modeCs8iyf5MSkCde_5tests
FNDA:75,_RNvYINtCs48qTgYy1n57_12lending_pool11ContractObjINtNtNtNtCs1rODQd5oASQ_22multiversx_sc_scenario3api7impl_vh12vm_hooks_api10VMHooksApiNtNtBP_9debug_api15DebugApiBackendEENtNtB5_8position14PositionModule5enterCs8iyf5MSkCde_5tests
FNDA:11,_RNvYINtCs48qTgYy1n57_12lending_pool11ContractObjINtNtNtNtCs1rODQd5oASQ_22multiversx_sc_scenario3api7impl_vh12vm_hooks_api10VMHooksApiNtNtBP_9debug_api15DebugApiBackendEENtNtB5_8position14PositionModule6__repayCs8iyf5MSkCde_5tests
FNDA:12,_RNvYINtCs48qTgYy1n57_12lending_pool11ContractObjINtNtNtNtCs1rODQd5oASQ_22multiversx_sc_scenario3api7impl_vh12vm_hooks_api10VMHooksApiNtNtBP_9debug_api15DebugApiBackendEENtNtB5_8position14PositionModule9__withdrawCs8iyf5MSkCde_5tests
FNDA:0,_RNvYINtCs48qTgYy1n57_12lending_pool11ContractObjINtNtNtNtCs1rODQd5oASQ_22multiversx_sc_scenario3api7impl_vh12vm_hooks_api10VMHooksApiNtNtBP_9debug_api15DebugApiBackendEENtNtB5_8position16EndpointWrappers17callback_selectorCs8iyf5MSkCde_5tests
FNDA:57,_RNvYINtCs48qTgYy1n57_12lending_pool11ContractObjINtNtNtNtCs1rODQd5oASQ_22multiversx_sc_scenario3api7impl_vh12vm_hooks_api10VMHooksApiNtNtBP_9debug_api15DebugApiBackendEENtNtB5_8position16EndpointWrappers4callCs8iyf5MSkCde_5tests
FNDA:0,_RNvYINtCs48qTgYy1n57_12lending_pool11ContractObjINtNtNtNtCs1rODQd5oASQ_22multiversx_sc_scenario3api7impl_vh12vm_hooks_api10VMHooksApiNtNtBP_9debug_api15DebugApiBackendEENtNtB5_8position16EndpointWrappers8callbackCs8iyf5MSkCde_5tests
FNDA:9,_RNCNvYINtCs48qTgYy1n57_12lending_pool11ContractObjINtNtNtNtCs1rODQd5oASQ_22multiversx_sc_scenario3api7impl_vh12vm_hooks_api10VMHooksApiNtNtBR_9debug_api15DebugApiBackendEENtNtB7_8position14PositionModule23increase_vault_position0Cs8iyf5MSkCde_5tests
FNDA:2,_RNCNvYINtCs48qTgYy1n57_12lending_pool11ContractObjINtNtNtNtCs1rODQd5oASQ_22multiversx_sc_scenario3api7impl_vh12vm_hooks_api10VMHooksApiNtNtBR_9debug_api15DebugApiBackendEENtNtB7_8position14PositionModule9__withdraw0Cs8iyf5MSkCde_5tests
FNF:21
FNH:21
DA:16,57
DA:45,423
DA:46,423
DA:47,423
DA:48,423
DA:49,423
DA:50,389
DA:51,389
DA:52,389
DA:53,377
DA:54,377
DA:56,12
DA:59,389
DA:60,389
DA:61,389
DA:62,377
DA:63,377
DA:64,377
DA:65,377
DA:66,377
DA:67,377
DA:68,377
DA:69,377
DA:71,389
DA:72,0
DA:73,0
DA:74,0
DA:75,0
DA:76,389
DA:78,389
DA:79,389
DA:80,389
DA:81,389
DA:83,423
DA:103,419
DA:104,419
DA:105,419
DA:106,423
DA:107,423
DA:108,423
DA:109,418
DA:110,374
DA:111,374
DA:113,44
DA:115,418
DA:116,418
DA:117,418
DA:118,374
DA:119,374
DA:120,374
DA:121,374
DA:122,374
DA:123,374
DA:124,374
DA:125,374
DA:126,418
DA:127,418
DA:128,418
DA:129,418
DA:130,5
DA:131,5
DA:132,5
DA:134,419
DA:156,75
DA:157,75
DA:158,75
DA:159,75
DA:160,75
DA:161,7
DA:163,68
DA:165,75
DA:166,75
DA:167,75
DA:168,75
DA:169,75
DA:170,75
DA:171,75
DA:172,75
DA:173,75
DA:174,75
DA:175,75
DA:176,75
DA:200,87
DA:201,87
DA:202,12
DA:203,12
DA:204,12
DA:205,12
DA:206,12
DA:207,12
DA:208,12
DA:209,12
DA:210,12
DA:211,12
DA:212,12
DA:214,75
DA:215,75
DA:238,80
DA:239,80
DA:241,80
DA:242,1
DA:243,1
DA:245,79
DA:246,79
DA:247,79
DA:248,79
DA:249,79
DA:250,79
DA:251,79
DA:252,79
DA:253,79
DA:254,79
DA:255,79
DA:256,79
DA:282,80
DA:283,80
DA:284,80
DA:285,80
DA:286,80
DA:287,80
DA:288,80
DA:289,80
DA:290,80
DA:291,0
DA:292,80
DA:294,80
DA:295,9
DA:296,9
DA:297,9
DA:298,9
DA:299,9
DA:300,71
DA:301,71
DA:302,71
DA:303,71
DA:304,71
DA:305,71
DA:306,71
DA:307,71
DA:310,80
DA:311,80
DA:312,80
DA:313,80
DA:331,71
DA:332,71
DA:333,71
DA:334,71
DA:335,71
DA:336,71
DA:337,71
DA:338,71
DA:339,71
DA:340,71
DA:341,71
DA:342,71
DA:343,71
DA:344,71
DA:345,71
DA:363,9
DA:364,9
DA:365,9
DA:366,9
DA:367,9
DA:368,9
DA:369,9
DA:370,9
DA:389,119
DA:390,119
DA:391,8
DA:392,6
DA:393,6
DA:394,6
DA:396,2
DA:397,2
DA:398,2
DA:401,8
DA:402,8
DA:403,8
DA:404,8
DA:405,8
DA:406,8
DA:407,8
DA:408,8
DA:409,8
DA:410,8
DA:411,8
DA:412,111
DA:444,12
DA:445,12
DA:446,12
DA:447,12
DA:448,12
DA:449,12
DA:450,12
DA:451,12
DA:452,12
DA:453,12
DA:455,11
DA:456,11
DA:457,11
DA:458,11
DA:459,2
DA:460,9
DA:462,11
DA:463,11
DA:464,0
DA:465,0
DA:466,0
DA:468,11
DA:470,11
DA:471,11
DA:472,2
DA:473,2
DA:474,2
DA:475,2
DA:476,2
DA:477,2
DA:478,2
DA:479,2
DA:480,2
DA:481,2
DA:482,1
DA:483,1
DA:484,1
DA:485,1
DA:486,1
DA:487,1
DA:488,1
DA:489,1
DA:490,1
DA:491,1
DA:492,1
DA:493,1
DA:494,1
DA:495,1
DA:496,1
DA:497,1
DA:498,1
DA:499,1
DA:500,1
DA:501,1
DA:502,1
DA:503,1
DA:504,1
DA:505,1
DA:506,1
DA:507,1
DA:509,2
DA:511,9
DA:512,9
DA:513,9
DA:514,9
DA:515,9
DA:516,9
DA:517,9
DA:518,9
DA:519,9
DA:520,9
DA:521,9
DA:522,9
DA:523,9
DA:526,11
DA:527,11
DA:528,11
DA:529,11
DA:530,11
DA:531,11
DA:532,11
DA:533,11
DA:534,11
DA:535,7
DA:536,7
DA:537,4
DA:538,4
DA:540,11
DA:556,5
DA:557,5
DA:558,5
DA:559,5
DA:560,5
DA:561,3
DA:562,3
DA:563,3
DA:564,3
DA:565,3
DA:566,3
DA:567,2
DA:568,2
DA:601,32
DA:602,32
DA:603,32
DA:604,32
DA:605,32
DA:606,32
DA:607,32
DA:608,32
DA:609,32
DA:610,32
DA:611,32
DA:612,32
DA:613,32
DA:614,32
DA:615,32
DA:616,32
DA:617,32
DA:618,32
DA:619,32
DA:620,32
DA:621,32
DA:622,32
DA:623,5
DA:624,5
DA:625,5
DA:626,5
DA:627,5
DA:628,5
DA:629,5
DA:630,5
DA:631,5
DA:632,5
DA:633,5
DA:634,5
DA:635,5
DA:636,27
DA:639,32
DA:640,32
DA:641,32
DA:642,32
DA:665,32
DA:666,32
DA:668,32
DA:669,1
DA:670,1
DA:672,31
DA:673,31
DA:674,31
DA:675,31
DA:676,31
DA:677,31
DA:678,31
DA:679,31
DA:680,31
DA:681,31
DA:682,31
DA:683,31
DA:712,11
DA:713,11
DA:714,11
DA:715,11
DA:716,11
DA:717,11
DA:718,11
DA:719,11
DA:720,11
DA:721,11
DA:722,11
DA:723,11
DA:724,11
DA:725,11
DA:726,11
DA:727,11
DA:728,11
DA:729,11
DA:730,11
DA:731,11
DA:732,11
DA:733,11
DA:734,11
DA:735,11
DA:736,11
DA:737,11
DA:738,11
DA:739,7
DA:740,7
DA:741,4
DA:742,4
DA:762,11
DA:763,11
DA:764,4
DA:765,4
DA:766,4
DA:767,4
DA:768,4
DA:769,4
DA:770,4
DA:771,4
DA:772,4
DA:773,4
DA:774,4
DA:775,4
DA:776,4
DA:777,4
DA:778,4
DA:779,4
DA:780,4
DA:781,4
DA:782,4
DA:783,4
DA:784,4
DA:785,4
DA:786,4
DA:787,7
DA:817,11
DA:818,11
DA:819,11
DA:820,11
DA:821,11
DA:822,11
DA:823,11
DA:824,11
DA:825,11
DA:826,11
DA:827,11
DA:828,11
DA:829,11
DA:830,11
DA:831,11
DA:832,11
DA:833,11
DA:834,11
DA:835,11
DA:836,11
DA:837,11
DA:838,11
DA:839,11
DA:840,11
DA:878,5
DA:879,5
DA:880,5
DA:881,5
DA:882,5
DA:883,5
DA:884,5
DA:885,5
DA:886,5
DA:887,5
DA:888,5
DA:889,5
DA:890,5
DA:891,5
DA:892,5
DA:893,5
DA:894,5
DA:895,5
DA:896,5
DA:897,5
DA:898,5
DA:899,5
DA:900,5
DA:901,5
DA:902,5
DA:903,5
DA:904,5
DA:905,5
DA:906,5
DA:909,5
DA:910,5
DA:911,3
DA:912,3
DA:913,3
DA:914,3
DA:915,3
DA:916,3
DA:917,3
DA:918,3
DA:920,2
DA:924,5
DA:925,3
DA:926,3
DA:927,3
DA:928,3
DA:929,3
DA:930,3
DA:931,3
DA:932,3
DA:933,3
DA:936,5
DA:937,5
DA:938,5
DA:939,5
DA:940,5
DA:941,5
DA:942,5
DA:943,5
DA:944,5
DA:945,5
DA:946,5
DA:947,5
DA:948,5
DA:949,5
DA:950,5
DA:951,5
DA:974,5
DA:975,5
DA:976,5
DA:977,5
DA:978,5
DA:979,5
DA:980,5
DA:981,5
DA:982,5
DA:983,5
DA:984,5
DA:985,5
DA:986,5
DA:987,5
DA:988,5
DA:989,5
DA:990,5
DA:991,5
DA:992,5
DA:993,5
DA:994,5
DA:995,5
DA:996,5
DA:997,5
DA:998,5
DA:999,5
DA:1000,5
DA:1001,5
DA:1002,5
DA:1003,5
DA:1004,5
DA:1005,5
DA:1006,5
DA:1007,5
DA:1008,5
DA:1009,5
DA:1010,5
DA:1011,5
DA:1012,5
DA:1013,5
DA:1014,5
DA:1015,5
DA:1016,5
DA:1017,5
DA:1018,5
DA:1019,5
DA:1020,5
DA:1021,5
DA:1022,5
DA:1023,5
DA:1024,5
DA:1025,5
DA:1026,5
DA:1027,5
BRF:0
BRH:0
LF:550
LH:542
end_of_record
SF:/Users/mihaieremia/GitHub/rs-lending/lending_pool/src/proxies/lxoxno_proxy.rs
FN:23,_RNvXININtNtCshiqmisuHlyH_12lending_pool7proxies12lxoxno_proxy0ppppENtB5_18RsLiquidXoxnoProxyINtNtNtNtCslPMlHj3qn2H_13multiversx_sc5types11interaction8tx_proxy12TxProxyTraitppppE13proxy_methodsB9_
FN:46,_RINvMs_NtNtCshiqmisuHlyH_12lending_pool7proxies12lxoxno_proxyINtB5_25RsLiquidXoxnoProxyMethodsppupE4initpEB9_
FN:69,_RNvMs0_NtNtCshiqmisuHlyH_12lending_pool7proxies12lxoxno_proxyINtB5_25RsLiquidXoxnoProxyMethodsppppE7upgradeB9_
FN:88,_RINvMs1_NtNtCshiqmisuHlyH_12lending_pool7proxies12lxoxno_proxyINtB6_25RsLiquidXoxnoProxyMethodsppppE8delegatepEBa_
FN:100,_RNvMs1_NtNtCshiqmisuHlyH_12lending_pool7proxies12lxoxno_proxyINtB5_25RsLiquidXoxnoProxyMethodsppppE11un_delegateB9_
FN:108,_RNvMs1_NtNtCshiqmisuHlyH_12lending_pool7proxies12lxoxno_proxyINtB5_25RsLiquidXoxnoProxyMethodsppppE8withdrawB9_
FN:116,_RNvMs1_NtNtCshiqmisuHlyH_12lending_pool7proxies12lxoxno_proxyINtB5_25RsLiquidXoxnoProxyMethodsppppE11add_rewardsB9_
FN:124,_RINvMs1_NtNtCshiqmisuHlyH_12lending_pool7proxies12lxoxno_proxyINtB6_25RsLiquidXoxnoProxyMethodsppppE25get_ls_value_for_positionpEBa_
FN:137,_RINvMs1_NtNtCshiqmisuHlyH_12lending_pool7proxies12lxoxno_proxyINtB6_25RsLiquidXoxnoProxyMethodsppppE26get_ls_amount_for_positionpEBa_
FN:150,_RNvMs1_NtNtCshiqmisuHlyH_12lending_pool7proxies12lxoxno_proxyINtB5_25RsLiquidXoxnoProxyMethodsppppE17get_exchange_rateB9_
FN:159,_RINvMs1_NtNtCshiqmisuHlyH_12lending_pool7proxies12lxoxno_proxyINtB6_25RsLiquidXoxnoProxyMethodsppppE17register_ls_tokenpppEBa_
FN:177,_RINvMs1_NtNtCshiqmisuHlyH_12lending_pool7proxies12lxoxno_proxyINtB6_25RsLiquidXoxnoProxyMethodsppppE22register_unstake_tokenpppEBa_
FN:195,_RNvMs1_NtNtCshiqmisuHlyH_12lending_pool7proxies12lxoxno_proxyINtB5_25RsLiquidXoxnoProxyMethodsppppE16set_state_activeB9_
FN:204,_RNvMs1_NtNtCshiqmisuHlyH_12lending_pool7proxies12lxoxno_proxyINtB5_25RsLiquidXoxnoProxyMethodsppppE18set_state_inactiveB9_
FN:213,_RNvMs1_NtNtCshiqmisuHlyH_12lending_pool7proxies12lxoxno_proxyINtB5_25RsLiquidXoxnoProxyMethodsppppE5stateB9_
FN:222,_RNvMs1_NtNtCshiqmisuHlyH_12lending_pool7proxies12lxoxno_proxyINtB5_25RsLiquidXoxnoProxyMethodsppppE8ls_tokenB9_
FN:231,_RNvMs1_NtNtCshiqmisuHlyH_12lending_pool7proxies12lxoxno_proxyINtB5_25RsLiquidXoxnoProxyMethodsppppE10main_tokenB9_
FN:240,_RNvMs1_NtNtCshiqmisuHlyH_12lending_pool7proxies12lxoxno_proxyINtB5_25RsLiquidXoxnoProxyMethodsppppE15ls_token_supplyB9_
FN:249,_RNvMs1_NtNtCshiqmisuHlyH_12lending_pool7proxies12lxoxno_proxyINtB5_25RsLiquidXoxnoProxyMethodsppppE21virtual_xoxno_reserveB9_
FN:258,_RNvMs1_NtNtCshiqmisuHlyH_12lending_pool7proxies12lxoxno_proxyINtB5_25RsLiquidXoxnoProxyMethodsppppE13unstake_tokenB9_
FN:267,_RNvMs1_NtNtCshiqmisuHlyH_12lending_pool7proxies12lxoxno_proxyINtB5_25RsLiquidXoxnoProxyMethodsppppE20unstake_token_supplyB9_
FN:278,_RINvXs5_NtNtCshiqmisuHlyH_12lending_pool7proxies12lxoxno_proxyNtB6_5StateNtNtNtCs5SUGlJDgeoS_19multiversx_sc_codec6single6top_en9TopEncode24top_encode_or_handle_errppEBa_
FN:278,_RINvXs6_NtNtCshiqmisuHlyH_12lending_pool7proxies12lxoxno_proxyNtB6_5StateNtNtNtCs5SUGlJDgeoS_19multiversx_sc_codec6single6top_de9TopDecode24top_decode_or_handle_errppEBa_
FN:277,_RNvXs4_NtNtCshiqmisuHlyH_12lending_pool7proxies12lxoxno_proxyNtB5_5StateNtNtNtCslPMlHj3qn2H_13multiversx_sc3abi8type_abi7TypeAbi9type_name
FN:277,_RINvXs4_NtNtCshiqmisuHlyH_12lending_pool7proxies12lxoxno_proxyNtB6_5StateNtNtNtCslPMlHj3qn2H_13multiversx_sc3abi8type_abi7TypeAbi25provide_type_descriptionspEBa_
FN:285,_RINvXININtNtCshiqmisuHlyH_12lending_pool7proxies12lxoxno_proxysa_0pEINtB6_17AddLiquidityEventpENtNtNtCs5SUGlJDgeoS_19multiversx_sc_codec6single6top_en9TopEncode24top_encode_or_handle_errppEBa_
FN:284,_RNvXININtNtCshiqmisuHlyH_12lending_pool7proxies12lxoxno_proxys9_0pEINtB5_17AddLiquidityEventpENtNtNtCslPMlHj3qn2H_13multiversx_sc3abi8type_abi7TypeAbi9type_nameB9_
FN:284,_RINvXININtNtCshiqmisuHlyH_12lending_pool7proxies12lxoxno_proxys9_0pEINtB6_17AddLiquidityEventpENtNtNtCslPMlHj3qn2H_13multiversx_sc3abi8type_abi7TypeAbi25provide_type_descriptionspEBa_
FN:301,_RINvXININtNtCshiqmisuHlyH_12lending_pool7proxies12lxoxno_proxyse_0pEINtB6_20RemoveLiquidityEventpENtNtNtCs5SUGlJDgeoS_19multiversx_sc_codec6single6top_en9TopEncode24top_encode_or_handle_errppEBa_
FN:300,_RNvXININtNtCshiqmisuHlyH_12lending_pool7proxies12lxoxno_proxysd_0pEINtB5_20RemoveLiquidityEventpENtNtNtCslPMlHj3qn2H_13multiversx_sc3abi8type_abi7TypeAbi9type_nameB9_
FN:300,_RINvXININtNtCshiqmisuHlyH_12lending_pool7proxies12lxoxno_proxysd_0pEINtB6_20RemoveLiquidityEventpENtNtNtCslPMlHj3qn2H_13multiversx_sc3abi8type_abi7TypeAbi25provide_type_descriptionspEBa_
FN:319,_RINvXININtNtCshiqmisuHlyH_12lending_pool7proxies12lxoxno_proxysi_0pEINtB6_15AddRewardsEventpENtNtNtCs5SUGlJDgeoS_19multiversx_sc_codec6single6top_en9TopEncode24top_encode_or_handle_errppEBa_
FN:318,_RNvXININtNtCshiqmisuHlyH_12lending_pool7proxies12lxoxno_proxysh_0pEINtB5_15AddRewardsEventpENtNtNtCslPMlHj3qn2H_13multiversx_sc3abi8type_abi7TypeAbi9type_nameB9_
FN:318,_RINvXININtNtCshiqmisuHlyH_12lending_pool7proxies12lxoxno_proxysh_0pEINtB6_15AddRewardsEventpENtNtNtCslPMlHj3qn2H_13multiversx_sc3abi8type_abi7TypeAbi25provide_type_descriptionspEBa_
FN:46,_RINvMs_NtNtCs48qTgYy1n57_12lending_pool7proxies12lxoxno_proxyINtB5_25RsLiquidXoxnoProxyMethodsNtNtNtNtCs1rODQd5oASQ_22multiversx_sc_scenario6facade8world_tx18scenario_exec_call15ScenarioEnvExecNtNtNtNtNtCslPMlHj3qn2H_13multiversx_sc5types11interaction4expr12test_address11TestAddressuuE4initNtNtB39_21test_token_identifier19TestTokenIdentifierECs8iyf5MSkCde_5tests
FN:231,_RNvMs1_NtNtCs48qTgYy1n57_12lending_pool7proxies12lxoxno_proxyINtB5_25RsLiquidXoxnoProxyMethodsINtNtNtNtNtCslPMlHj3qn2H_13multiversx_sc5types11interaction7tx_exec9tx_env_sc7TxScEnvINtNtNtNtCs1rODQd5oASQ_22multiversx_sc_scenario3api7impl_vh12vm_hooks_api10VMHooksApiNtNtB2W_9debug_api15DebugApiBackendEEuRINtNtNtNtB1D_7managed7wrapped15managed_address14ManagedAddressB2R_EuE10main_tokenCs8iyf5MSkCde_5tests
FN:150,_RNvMs1_NtNtCs48qTgYy1n57_12lending_pool7proxies12lxoxno_proxyINtB5_25RsLiquidXoxnoProxyMethodsINtNtNtNtNtCslPMlHj3qn2H_13multiversx_sc5types11interaction7tx_exec9tx_env_sc7TxScEnvINtNtNtNtCs1rODQd5oASQ_22multiversx_sc_scenario3api7impl_vh12vm_hooks_api10VMHooksApiNtNtB2W_9debug_api15DebugApiBackendEEuRINtNtNtNtB1D_7managed7wrapped15managed_address14ManagedAddressB2R_EuE17get_exchange_rateCs8iyf5MSkCde_5tests
FN:23,_RNvXNtNtCs48qTgYy1n57_12lending_pool7proxies12lxoxno_proxyNtB2_18RsLiquidXoxnoProxyINtNtNtNtCslPMlHj3qn2H_13multiversx_sc5types11interaction8tx_proxy12TxProxyTraitINtNtNtB1o_7tx_exec9tx_env_sc7TxScEnvINtNtNtNtCs1rODQd5oASQ_22multiversx_sc_scenario3api7impl_vh12vm_hooks_api10VMHooksApiNtNtB3h_9debug_api15DebugApiBackendEEuRINtNtNtNtB1q_7managed7wrapped15managed_address14ManagedAddressB3c_EuE13proxy_methodsCs8iyf5MSkCde_5tests
FN:23,_RNvXNtNtCs48qTgYy1n57_12lending_pool7proxies12lxoxno_proxyNtB2_18RsLiquidXoxnoProxyINtNtNtNtCslPMlHj3qn2H_13multiversx_sc5types11interaction8tx_proxy12TxProxyTraitNtNtNtNtCs1rODQd5oASQ_22multiversx_sc_scenario6facade8world_tx18scenario_exec_call15ScenarioEnvExecNtNtNtB1o_4expr12test_address11TestAddressuuE13proxy_methodsCs8iyf5MSkCde_5tests
FNDA:0,_RNvXININtNtCshiqmisuHlyH_12lending_pool7proxies12lxoxno_proxy0ppppENtB5_18RsLiquidXoxnoProxyINtNtNtNtCslPMlHj3qn2H_13multiversx_sc5types11interaction8tx_proxy12TxProxyTraitppppE13proxy_methodsB9_
FNDA:0,_RINvMs_NtNtCshiqmisuHlyH_12lending_pool7proxies12lxoxno_proxyINtB5_25RsLiquidXoxnoProxyMethodsppupE4initpEB9_
FNDA:0,_RNvMs0_NtNtCshiqmisuHlyH_12lending_pool7proxies12lxoxno_proxyINtB5_25RsLiquidXoxnoProxyMethodsppppE7upgradeB9_
FNDA:0,_RINvMs1_NtNtCshiqmisuHlyH_12lending_pool7proxies12lxoxno_proxyINtB6_25RsLiquidXoxnoProxyMethodsppppE8delegatepEBa_
FNDA:0,_RNvMs1_NtNtCshiqmisuHlyH_12lending_pool7proxies12lxoxno_proxyINtB5_25RsLiquidXoxnoProxyMethodsppppE11un_delegateB9_
FNDA:0,_RNvMs1_NtNtCshiqmisuHlyH_12lending_pool7proxies12lxoxno_proxyINtB5_25RsLiquidXoxnoProxyMethodsppppE8withdrawB9_
FNDA:0,_RNvMs1_NtNtCshiqmisuHlyH_12lending_pool7proxies12lxoxno_proxyINtB5_25RsLiquidXoxnoProxyMethodsppppE11add_rewardsB9_
FNDA:0,_RINvMs1_NtNtCshiqmisuHlyH_12lending_pool7proxies12lxoxno_proxyINtB6_25RsLiquidXoxnoProxyMethodsppppE25get_ls_value_for_positionpEBa_
FNDA:0,_RINvMs1_NtNtCshiqmisuHlyH_12lending_pool7proxies12lxoxno_proxyINtB6_25RsLiquidXoxnoProxyMethodsppppE26get_ls_amount_for_positionpEBa_
FNDA:0,_RNvMs1_NtNtCshiqmisuHlyH_12lending_pool7proxies12lxoxno_proxyINtB5_25RsLiquidXoxnoProxyMethodsppppE17get_exchange_rateB9_
FNDA:0,_RINvMs1_NtNtCshiqmisuHlyH_12lending_pool7proxies12lxoxno_proxyINtB6_25RsLiquidXoxnoProxyMethodsppppE17register_ls_tokenpppEBa_
FNDA:0,_RINvMs1_NtNtCshiqmisuHlyH_12lending_pool7proxies12lxoxno_proxyINtB6_25RsLiquidXoxnoProxyMethodsppppE22register_unstake_tokenpppEBa_
FNDA:0,_RNvMs1_NtNtCshiqmisuHlyH_12lending_pool7proxies12lxoxno_proxyINtB5_25RsLiquidXoxnoProxyMethodsppppE16set_state_activeB9_
FNDA:0,_RNvMs1_NtNtCshiqmisuHlyH_12lending_pool7proxies12lxoxno_proxyINtB5_25RsLiquidXoxnoProxyMethodsppppE18set_state_inactiveB9_
FNDA:0,_RNvMs1_NtNtCshiqmisuHlyH_12lending_pool7proxies12lxoxno_proxyINtB5_25RsLiquidXoxnoProxyMethodsppppE5stateB9_
FNDA:0,_RNvMs1_NtNtCshiqmisuHlyH_12lending_pool7proxies12lxoxno_proxyINtB5_25RsLiquidXoxnoProxyMethodsppppE8ls_tokenB9_
FNDA:0,_RNvMs1_NtNtCshiqmisuHlyH_12lending_pool7proxies12lxoxno_proxyINtB5_25RsLiquidXoxnoProxyMethodsppppE10main_tokenB9_
FNDA:0,_RNvMs1_NtNtCshiqmisuHlyH_12lending_pool7proxies12lxoxno_proxyINtB5_25RsLiquidXoxnoProxyMethodsppppE15ls_token_supplyB9_
FNDA:0,_RNvMs1_NtNtCshiqmisuHlyH_12lending_pool7proxies12lxoxno_proxyINtB5_25RsLiquidXoxnoProxyMethodsppppE21virtual_xoxno_reserveB9_
FNDA:0,_RNvMs1_NtNtCshiqmisuHlyH_12lending_pool7proxies12lxoxno_proxyINtB5_25RsLiquidXoxnoProxyMethodsppppE13unstake_tokenB9_
FNDA:0,_RNvMs1_NtNtCshiqmisuHlyH_12lending_pool7proxies12lxoxno_proxyINtB5_25RsLiquidXoxnoProxyMethodsppppE20unstake_token_supplyB9_
FNDA:0,_RINvXs5_NtNtCshiqmisuHlyH_12lending_pool7proxies12lxoxno_proxyNtB6_5StateNtNtNtCs5SUGlJDgeoS_19multiversx_sc_codec6single6top_en9TopEncode24top_encode_or_handle_errppEBa_
FNDA:0,_RINvXs6_NtNtCshiqmisuHlyH_12lending_pool7proxies12lxoxno_proxyNtB6_5StateNtNtNtCs5SUGlJDgeoS_19multiversx_sc_codec6single6top_de9TopDecode24top_decode_or_handle_errppEBa_
FNDA:0,_RNvXs4_NtNtCshiqmisuHlyH_12lending_pool7proxies12lxoxno_proxyNtB5_5StateNtNtNtCslPMlHj3qn2H_13multiversx_sc3abi8type_abi7TypeAbi9type_name
FNDA:0,_RINvXs4_NtNtCshiqmisuHlyH_12lending_pool7proxies12lxoxno_proxyNtB6_5StateNtNtNtCslPMlHj3qn2H_13multiversx_sc3abi8type_abi7TypeAbi25provide_type_descriptionspEBa_
FNDA:0,_RINvXININtNtCshiqmisuHlyH_12lending_pool7proxies12lxoxno_proxysa_0pEINtB6_17AddLiquidityEventpENtNtNtCs5SUGlJDgeoS_19multiversx_sc_codec6single6top_en9TopEncode24top_encode_or_handle_errppEBa_
FNDA:0,_RNvXININtNtCshiqmisuHlyH_12lending_pool7proxies12lxoxno_proxys9_0pEINtB5_17AddLiquidityEventpENtNtNtCslPMlHj3qn2H_13multiversx_sc3abi8type_abi7TypeAbi9type_nameB9_
FNDA:0,_RINvXININtNtCshiqmisuHlyH_12lending_pool7proxies12lxoxno_proxys9_0pEINtB6_17AddLiquidityEventpENtNtNtCslPMlHj3qn2H_13multiversx_sc3abi8type_abi7TypeAbi25provide_type_descriptionspEBa_
FNDA:0,_RINvXININtNtCshiqmisuHlyH_12lending_pool7proxies12lxoxno_proxyse_0pEINtB6_20RemoveLiquidityEventpENtNtNtCs5SUGlJDgeoS_19multiversx_sc_codec6single6top_en9TopEncode24top_encode_or_handle_errppEBa_
FNDA:0,_RNvXININtNtCshiqmisuHlyH_12lending_pool7proxies12lxoxno_proxysd_0pEINtB5_20RemoveLiquidityEventpENtNtNtCslPMlHj3qn2H_13multiversx_sc3abi8type_abi7TypeAbi9type_nameB9_
FNDA:0,_RINvXININtNtCshiqmisuHlyH_12lending_pool7proxies12lxoxno_proxysd_0pEINtB6_20RemoveLiquidityEventpENtNtNtCslPMlHj3qn2H_13multiversx_sc3abi8type_abi7TypeAbi25provide_type_descriptionspEBa_
FNDA:0,_RINvXININtNtCshiqmisuHlyH_12lending_pool7proxies12lxoxno_proxysi_0pEINtB6_15AddRewardsEventpENtNtNtCs5SUGlJDgeoS_19multiversx_sc_codec6single6top_en9TopEncode24top_encode_or_handle_errppEBa_
FNDA:0,_RNvXININtNtCshiqmisuHlyH_12lending_pool7proxies12lxoxno_proxysh_0pEINtB5_15AddRewardsEventpENtNtNtCslPMlHj3qn2H_13multiversx_sc3abi8type_abi7TypeAbi9type_nameB9_
FNDA:0,_RINvXININtNtCshiqmisuHlyH_12lending_pool7proxies12lxoxno_proxysh_0pEINtB6_15AddRewardsEventpENtNtNtCslPMlHj3qn2H_13multiversx_sc3abi8type_abi7TypeAbi25provide_type_descriptionspEBa_
FNDA:47,_RINvMs_NtNtCs48qTgYy1n57_12lending_pool7proxies12lxoxno_proxyINtB5_25RsLiquidXoxnoProxyMethodsNtNtNtNtCs1rODQd5oASQ_22multiversx_sc_scenario6facade8world_tx18scenario_exec_call15ScenarioEnvExecNtNtNtNtNtCslPMlHj3qn2H_13multiversx_sc5types11interaction4expr12test_address11TestAddressuuE4initNtNtB39_21test_token_identifier19TestTokenIdentifierECs8iyf5MSkCde_5tests
FNDA:47,_RNvMs1_NtNtCs48qTgYy1n57_12lending_pool7proxies12lxoxno_proxyINtB5_25RsLiquidXoxnoProxyMethodsINtNtNtNtNtCslPMlHj3qn2H_13multiversx_sc5types11interaction7tx_exec9tx_env_sc7TxScEnvINtNtNtNtCs1rODQd5oASQ_22multiversx_sc_scenario3api7impl_vh12vm_hooks_api10VMHooksApiNtNtB2W_9debug_api15DebugApiBackendEEuRINtNtNtNtB1D_7managed7wrapped15managed_address14ManagedAddressB2R_EuE10main_tokenCs8iyf5MSkCde_5tests
FNDA:0,_RNvMs1_NtNtCs48qTgYy1n57_12lending_pool7proxies12lxoxno_proxyINtB5_25RsLiquidXoxnoProxyMethodsINtNtNtNtNtCslPMlHj3qn2H_13multiversx_sc5types11interaction7tx_exec9tx_env_sc7TxScEnvINtNtNtNtCs1rODQd5oASQ_22multiversx_sc_scenario3api7impl_vh12vm_hooks_api10VMHooksApiNtNtB2W_9debug_api15DebugApiBackendEEuRINtNtNtNtB1D_7managed7wrapped15managed_address14ManagedAddressB2R_EuE17get_exchange_rateCs8iyf5MSkCde_5tests
FNDA:47,_RNvXNtNtCs48qTgYy1n57_12lending_pool7proxies12lxoxno_proxyNtB2_18RsLiquidXoxnoProxyINtNtNtNtCslPMlHj3qn2H_13multiversx_sc5types11interaction8tx_proxy12TxProxyTraitINtNtNtB1o_7tx_exec9tx_env_sc7TxScEnvINtNtNtNtCs1rODQd5oASQ_22multiversx_sc_scenario3api7impl_vh12vm_hooks_api10VMHooksApiNtNtB3h_9debug_api15DebugApiBackendEEuRINtNtNtNtB1q_7managed7wrapped15managed_address14ManagedAddressB3c_EuE13proxy_methodsCs8iyf5MSkCde_5tests
FNDA:47,_RNvXNtNtCs48qTgYy1n57_12lending_pool7proxies12lxoxno_proxyNtB2_18RsLiquidXoxnoProxyINtNtNtNtCslPMlHj3qn2H_13multiversx_sc5types11interaction8tx_proxy12TxProxyTraitNtNtNtNtCs1rODQd5oASQ_22multiversx_sc_scenario6facade8world_tx18scenario_exec_call15ScenarioEnvExecNtNtNtB1o_4expr12test_address11TestAddressuuE13proxy_methodsCs8iyf5MSkCde_5tests
FNF:30
FNH:3
DA:23,94
DA:24,94
DA:25,94
DA:46,47
DA:47,47
DA:48,47
DA:49,47
DA:50,47
DA:51,47
DA:52,47
DA:53,47
DA:54,47
DA:55,47
DA:56,47
DA:57,47
DA:69,0
DA:70,0
DA:71,0
DA:72,0
DA:73,0
DA:74,0
DA:75,0
DA:76,0
DA:88,0
DA:89,0
DA:90,0
DA:91,0
DA:92,0
DA:93,0
DA:94,0
DA:95,0
DA:96,0
DA:97,0
DA:98,0
DA:100,0
DA:101,0
DA:102,0
DA:103,0
DA:104,0
DA:105,0
DA:106,0
DA:108,0
DA:109,0
DA:110,0
DA:111,0
DA:112,0
DA:113,0
DA:114,0
DA:116,0
DA:117,0
DA:118,0
DA:119,0
DA:120,0
DA:121,0
DA:122,0
DA:124,0
DA:125,0
DA:126,0
DA:127,0
DA:128,0
DA:129,0
DA:130,0
DA:131,0
DA:132,0
DA:133,0
DA:134,0
DA:135,0
DA:137,0
DA:138,0
DA:139,0
DA:140,0
DA:141,0
DA:142,0
DA:143,0
DA:144,0
DA:145,0
DA:146,0
DA:147,0
DA:148,0
DA:150,0
DA:151,0
DA:152,0
DA:153,0
DA:154,0
DA:155,0
DA:156,0
DA:157,0
DA:159,0
DA:160,0
DA:161,0
DA:162,0
DA:163,0
DA:164,0
DA:165,0
DA:166,0
DA:167,0
DA:168,0
DA:169,0
DA:170,0
DA:171,0
DA:172,0
DA:173,0
DA:174,0
DA:175,0
DA:177,0
DA:178,0
DA:179,0
DA:180,0
DA:181,0
DA:182,0
DA:183,0
DA:184,0
DA:185,0
DA:186,0
DA:187,0
DA:188,0
DA:189,0
DA:190,0
DA:191,0
DA:192,0
DA:193,0
DA:195,0
DA:196,0
DA:197,0
DA:198,0
DA:199,0
DA:200,0
DA:201,0
DA:202,0
DA:204,0
DA:205,0
DA:206,0
DA:207,0
DA:208,0
DA:209,0
DA:210,0
DA:211,0
DA:213,0
DA:214,0
DA:215,0
DA:216,0
DA:217,0
DA:218,0
DA:219,0
DA:220,0
DA:222,0
DA:223,0
DA:224,0
DA:225,0
DA:226,0
DA:227,0
DA:228,0
DA:229,0
DA:231,47
DA:232,47
DA:233,47
DA:234,47
DA:235,47
DA:236,47
DA:237,47
DA:238,47
DA:240,0
DA:241,0
DA:242,0
DA:243,0
DA:244,0
DA:245,0
DA:246,0
DA:247,0
DA:249,0
DA:250,0
DA:251,0
DA:252,0
DA:253,0
DA:254,0
DA:255,0
DA:256,0
DA:258,0
DA:259,0
DA:260,0
DA:261,0
DA:262,0
DA:263,0
DA:264,0
DA:265,0
DA:267,0
DA:268,0
DA:269,0
DA:270,0
DA:271,0
DA:272,0
DA:273,0
DA:274,0
DA:277,0
DA:278,0
DA:284,0
DA:285,0
DA:300,0
DA:301,0
DA:318,0
DA:319,0
BRF:0
BRH:0
LF:202
LH:23
end_of_record
SF:/Users/mihaieremia/GitHub/rs-lending/lending_pool/src/proxies/proxy_accumulator.rs
FN:23,_RNvXININtNtCshiqmisuHlyH_12lending_pool7proxies17proxy_accumulator0ppppENtB5_16AccumulatorProxyINtNtNtNtCslPMlHj3qn2H_13multiversx_sc5types11interaction8tx_proxy12TxProxyTraitppppE13proxy_methodsB9_
FN:46,_RINvMs_NtNtCshiqmisuHlyH_12lending_pool7proxies17proxy_accumulatorINtB5_23AccumulatorProxyMethodsppupE4initppppppEB9_
FN:84,_RINvMs0_NtNtCshiqmisuHlyH_12lending_pool7proxies17proxy_accumulatorINtB6_23AccumulatorProxyMethodsppppE7upgradeppppppEBa_
FN:122,_RNvMs1_NtNtCshiqmisuHlyH_12lending_pool7proxies17proxy_accumulatorINtB5_23AccumulatorProxyMethodsppppE7depositB9_
FN:130,_RINvMs1_NtNtCshiqmisuHlyH_12lending_pool7proxies17proxy_accumulatorINtB6_23AccumulatorProxyMethodsppppE17deposit_royaltiespEBa_
FN:142,_RINvMs1_NtNtCshiqmisuHlyH_12lending_pool7proxies17proxy_accumulatorINtB6_23AccumulatorProxyMethodsppppE10distributeppppEBa_
FN:164,_RINvMs1_NtNtCshiqmisuHlyH_12lending_pool7proxies17proxy_accumulatorINtB6_23AccumulatorProxyMethodsppppE20distribute_royaltiespppppEBa_
FN:189,_RNvMs1_NtNtCshiqmisuHlyH_12lending_pool7proxies17proxy_accumulatorINtB5_23AccumulatorProxyMethodsppppE23claim_protocol_reservesB9_
FN:198,_RNvMs1_NtNtCshiqmisuHlyH_12lending_pool7proxies17proxy_accumulatorINtB5_23AccumulatorProxyMethodsppppE7reserveB9_
FN:207,_RNvMs1_NtNtCshiqmisuHlyH_12lending_pool7proxies17proxy_accumulatorINtB5_23AccumulatorProxyMethodsppppE12reward_tokenB9_
FN:216,_RNvMs1_NtNtCshiqmisuHlyH_12lending_pool7proxies17proxy_accumulatorINtB5_23AccumulatorProxyMethodsppppE19liquid_reward_tokenB9_
FN:225,_RNvMs1_NtNtCshiqmisuHlyH_12lending_pool7proxies17proxy_accumulatorINtB5_23AccumulatorProxyMethodsppppE9burn_rateB9_
FN:234,_RNvMs1_NtNtCshiqmisuHlyH_12lending_pool7proxies17proxy_accumulatorINtB5_23AccumulatorProxyMethodsppppE10share_rateB9_
FN:243,_RNvMs1_NtNtCshiqmisuHlyH_12lending_pool7proxies17proxy_accumulatorINtB5_23AccumulatorProxyMethodsppppE6tokensB9_
FN:252,_RINvMs1_NtNtCshiqmisuHlyH_12lending_pool7proxies17proxy_accumulatorINtB6_23AccumulatorProxyMethodsppppE13token_balancepEBa_
FN:265,_RNvMs1_NtNtCshiqmisuHlyH_12lending_pool7proxies17proxy_accumulatorINtB5_23AccumulatorProxyMethodsppppE8creatorsB9_
FN:274,_RINvMs1_NtNtCshiqmisuHlyH_12lending_pool7proxies17proxy_accumulatorINtB6_23AccumulatorProxyMethodsppppE14creator_tokenspEBa_
FN:287,_RINvMs1_NtNtCshiqmisuHlyH_12lending_pool7proxies17proxy_accumulatorINtB6_23AccumulatorProxyMethodsppppE17creator_royaltiesppEBa_
FN:303,_RNvMs1_NtNtCshiqmisuHlyH_12lending_pool7proxies17proxy_accumulatorINtB5_23AccumulatorProxyMethodsppppE15xoxno_liquid_scB9_
FN:312,_RNvMs1_NtNtCshiqmisuHlyH_12lending_pool7proxies17proxy_accumulatorINtB5_23AccumulatorProxyMethodsppppE6ash_scB9_
FN:321,_RINvMs1_NtNtCshiqmisuHlyH_12lending_pool7proxies17proxy_accumulatorINtB6_23AccumulatorProxyMethodsppppE21get_creator_royaltiespEBa_
FN:334,_RNvMs1_NtNtCshiqmisuHlyH_12lending_pool7proxies17proxy_accumulatorINtB5_23AccumulatorProxyMethodsppppE25get_all_creator_royaltiesB9_
FN:343,_RNvMs1_NtNtCshiqmisuHlyH_12lending_pool7proxies17proxy_accumulatorINtB5_23AccumulatorProxyMethodsppppE22get_real_yield_pendingB9_
FN:354,_RINvXININtNtCshiqmisuHlyH_12lending_pool7proxies17proxy_accumulators5_0pEINtB6_14AggregatorSteppENtNtNtCs5SUGlJDgeoS_19multiversx_sc_codec6single6top_en9TopEncode24top_encode_or_handle_errppEBa_
FN:354,_RINvXININtNtCshiqmisuHlyH_12lending_pool7proxies17proxy_accumulators6_0pEINtB6_14AggregatorSteppENtNtNtCs5SUGlJDgeoS_19multiversx_sc_codec6single6top_de9TopDecode24top_decode_or_handle_errppEBa_
FN:354,_RINvXININtNtCshiqmisuHlyH_12lending_pool7proxies17proxy_accumulators7_0pEINtB6_14AggregatorSteppENtNtNtCs5SUGlJDgeoS_19multiversx_sc_codec6single9nested_en12NestedEncode24dep_encode_or_handle_errppEBa_
FN:354,_RINvXININtNtCshiqmisuHlyH_12lending_pool7proxies17proxy_accumulators8_0pEINtB6_14AggregatorSteppENtNtNtCs5SUGlJDgeoS_19multiversx_sc_codec6single9nested_de12NestedDecode24dep_decode_or_handle_errppEBa_
FN:354,_RINvXININtNtCshiqmisuHlyH_12lending_pool7proxies17proxy_accumulatorsc_0pEINtB6_14AggregatorSteppENtNtNtNtNtCslPMlHj3qn2H_13multiversx_sc5types7managed7wrapped16managed_vec_item14ManagedVecItem16from_byte_readerpEBa_
FN:354,_RNCINvXININtNtCshiqmisuHlyH_12lending_pool7proxies17proxy_accumulatorsc_0pEINtB8_14AggregatorSteppENtNtNtNtNtCslPMlHj3qn2H_13multiversx_sc5types7managed7wrapped16managed_vec_item14ManagedVecItem16from_byte_readerpE0Bc_
FN:354,_RNCINvXININtNtCshiqmisuHlyH_12lending_pool7proxies17proxy_accumulatorsc_0pEINtB8_14AggregatorSteppENtNtNtNtNtCslPMlHj3qn2H_13multiversx_sc5types7managed7wrapped16managed_vec_item14ManagedVecItem16from_byte_readerpEs_0Bc_
FN:354,_RNCINvXININtNtCshiqmisuHlyH_12lending_pool7proxies17proxy_accumulatorsc_0pEINtB8_14AggregatorSteppENtNtNtNtNtCslPMlHj3qn2H_13multiversx_sc5types7managed7wrapped16managed_vec_item14ManagedVecItem16from_byte_readerpEs0_0Bc_
FN:354,_RNCINvXININtNtCshiqmisuHlyH_12lending_pool7proxies17proxy_accumulatorsc_0pEINtB8_14AggregatorSteppENtNtNtNtNtCslPMlHj3qn2H_13multiversx_sc5types7managed7wrapped16managed_vec_item14ManagedVecItem16from_byte_readerpEs1_0Bc_
FN:354,_RNCINvXININtNtCshiqmisuHlyH_12lending_pool7proxies17proxy_accumulatorsc_0pEINtB8_14AggregatorSteppENtNtNtNtNtCslPMlHj3qn2H_13multiversx_sc5types7managed7wrapped16managed_vec_item14ManagedVecItem16from_byte_readerpEs2_0Bc_
FN:354,_RNCINvXININtNtCshiqmisuHlyH_12lending_pool7proxies17proxy_accumulatorsc_0pEINtB8_14AggregatorSteppENtNtNtNtNtCslPMlHj3qn2H_13multiversx_sc5types7managed7wrapped16managed_vec_item14ManagedVecItem16from_byte_readerpEs3_0Bc_
FN:354,_RINvXININtNtCshiqmisuHlyH_12lending_pool7proxies17proxy_accumulatorsc_0pEINtB6_14AggregatorSteppENtNtNtNtNtCslPMlHj3qn2H_13multiversx_sc5types7managed7wrapped16managed_vec_item14ManagedVecItem26from_byte_reader_as_borrowpEBa_
FN:354,_RINvXININtNtCshiqmisuHlyH_12lending_pool7proxies17proxy_accumulatorsc_0pEINtB6_14AggregatorSteppENtNtNtNtNtCslPMlHj3qn2H_13multiversx_sc5types7managed7wrapped16managed_vec_item14ManagedVecItem16into_byte_writerppEBa_
FN:354,_RNCINvXININtNtCshiqmisuHlyH_12lending_pool7proxies17proxy_accumulatorsc_0pEINtB8_14AggregatorSteppENtNtNtNtNtCslPMlHj3qn2H_13multiversx_sc5types7managed7wrapped16managed_vec_item14ManagedVecItem16into_byte_writerppE0Bc_
FN:354,_RNCINvXININtNtCshiqmisuHlyH_12lending_pool7proxies17proxy_accumulatorsc_0pEINtB8_14AggregatorSteppENtNtNtNtNtCslPMlHj3qn2H_13multiversx_sc5types7managed7wrapped16managed_vec_item14ManagedVecItem16into_byte_writerppEs_0Bc_
FN:354,_RNCINvXININtNtCshiqmisuHlyH_12lending_pool7proxies17proxy_accumulatorsc_0pEINtB8_14AggregatorSteppENtNtNtNtNtCslPMlHj3qn2H_13multiversx_sc5types7managed7wrapped16managed_vec_item14ManagedVecItem16into_byte_writerppEs0_0Bc_
FN:354,_RNCINvXININtNtCshiqmisuHlyH_12lending_pool7proxies17proxy_accumulatorsc_0pEINtB8_14AggregatorSteppENtNtNtNtNtCslPMlHj3qn2H_13multiversx_sc5types7managed7wrapped16managed_vec_item14ManagedVecItem16into_byte_writerppEs1_0Bc_
FN:354,_RNCINvXININtNtCshiqmisuHlyH_12lending_pool7proxies17proxy_accumulatorsc_0pEINtB8_14AggregatorSteppENtNtNtNtNtCslPMlHj3qn2H_13multiversx_sc5types7managed7wrapped16managed_vec_item14ManagedVecItem16into_byte_writerppEs2_0Bc_
FN:354,_RNCINvXININtNtCshiqmisuHlyH_12lending_pool7proxies17proxy_accumulatorsc_0pEINtB8_14AggregatorSteppENtNtNtNtNtCslPMlHj3qn2H_13multiversx_sc5types7managed7wrapped16managed_vec_item14ManagedVecItem16into_byte_writerppEs3_0Bc_
FN:353,_RNvXININtNtCshiqmisuHlyH_12lending_pool7proxies17proxy_accumulators4_0pEINtB5_14AggregatorSteppENtNtNtCslPMlHj3qn2H_13multiversx_sc3abi8type_abi7TypeAbi9type_nameB9_
FN:353,_RINvXININtNtCshiqmisuHlyH_12lending_pool7proxies17proxy_accumulators4_0pEINtB6_14AggregatorSteppENtNtNtCslPMlHj3qn2H_13multiversx_sc3abi8type_abi7TypeAbi25provide_type_descriptionspEBa_
FN:368,_RINvXININtNtCshiqmisuHlyH_12lending_pool7proxies17proxy_accumulatorsg_0pEINtB6_11TokenAmountpENtNtNtCs5SUGlJDgeoS_19multiversx_sc_codec6single6top_en9TopEncode24top_encode_or_handle_errppEBa_
FN:368,_RINvXININtNtCshiqmisuHlyH_12lending_pool7proxies17proxy_accumulatorsh_0pEINtB6_11TokenAmountpENtNtNtCs5SUGlJDgeoS_19multiversx_sc_codec6single6top_de9TopDecode24top_decode_or_handle_errppEBa_
FN:368,_RINvXININtNtCshiqmisuHlyH_12lending_pool7proxies17proxy_accumulatorsi_0pEINtB6_11TokenAmountpENtNtNtCs5SUGlJDgeoS_19multiversx_sc_codec6single9nested_en12NestedEncode24dep_encode_or_handle_errppEBa_
FN:368,_RINvXININtNtCshiqmisuHlyH_12lending_pool7proxies17proxy_accumulatorsj_0pEINtB6_11TokenAmountpENtNtNtCs5SUGlJDgeoS_19multiversx_sc_codec6single9nested_de12NestedDecode24dep_decode_or_handle_errppEBa_
FN:368,_RINvXININtNtCshiqmisuHlyH_12lending_pool7proxies17proxy_accumulatorsn_0pEINtB6_11TokenAmountpENtNtNtNtNtCslPMlHj3qn2H_13multiversx_sc5types7managed7wrapped16managed_vec_item14ManagedVecItem16from_byte_readerpEBa_
FN:368,_RNCINvXININtNtCshiqmisuHlyH_12lending_pool7proxies17proxy_accumulatorsn_0pEINtB8_11TokenAmountpENtNtNtNtNtCslPMlHj3qn2H_13multiversx_sc5types7managed7wrapped16managed_vec_item14ManagedVecItem16from_byte_readerpE0Bc_
FN:368,_RNCINvXININtNtCshiqmisuHlyH_12lending_pool7proxies17proxy_accumulatorsn_0pEINtB8_11TokenAmountpENtNtNtNtNtCslPMlHj3qn2H_13multiversx_sc5types7managed7wrapped16managed_vec_item14ManagedVecItem16from_byte_readerpEs_0Bc_
FN:368,_RINvXININtNtCshiqmisuHlyH_12lending_pool7proxies17proxy_accumulatorsn_0pEINtB6_11TokenAmountpENtNtNtNtNtCslPMlHj3qn2H_13multiversx_sc5types7managed7wrapped16managed_vec_item14ManagedVecItem26from_byte_reader_as_borrowpEBa_
FN:368,_RINvXININtNtCshiqmisuHlyH_12lending_pool7proxies17proxy_accumulatorsn_0pEINtB6_11TokenAmountpENtNtNtNtNtCslPMlHj3qn2H_13multiversx_sc5types7managed7wrapped16managed_vec_item14ManagedVecItem16into_byte_writerppEBa_
FN:368,_RNCINvXININtNtCshiqmisuHlyH_12lending_pool7proxies17proxy_accumulatorsn_0pEINtB8_11TokenAmountpENtNtNtNtNtCslPMlHj3qn2H_13multiversx_sc5types7managed7wrapped16managed_vec_item14ManagedVecItem16into_byte_writerppE0Bc_
FN:368,_RNCINvXININtNtCshiqmisuHlyH_12lending_pool7proxies17proxy_accumulatorsn_0pEINtB8_11TokenAmountpENtNtNtNtNtCslPMlHj3qn2H_13multiversx_sc5types7managed7wrapped16managed_vec_item14ManagedVecItem16into_byte_writerppEs_0Bc_
FN:367,_RNvXININtNtCshiqmisuHlyH_12lending_pool7proxies17proxy_accumulatorsf_0pEINtB5_11TokenAmountpENtNtNtCslPMlHj3qn2H_13multiversx_sc3abi8type_abi7TypeAbi9type_nameB9_
FN:367,_RINvXININtNtCshiqmisuHlyH_12lending_pool7proxies17proxy_accumulatorsf_0pEINtB6_11TokenAmountpENtNtNtCslPMlHj3qn2H_13multiversx_sc3abi8type_abi7TypeAbi25provide_type_descriptionspEBa_
FN:378,_RINvXININtNtCshiqmisuHlyH_12lending_pool7proxies17proxy_accumulatorsr_0pEINtB6_16CreatorRoyaltiespENtNtNtCs5SUGlJDgeoS_19multiversx_sc_codec6single6top_en9TopEncode24top_encode_or_handle_errppEBa_
FN:378,_RINvXININtNtCshiqmisuHlyH_12lending_pool7proxies17proxy_accumulatorss_0pEINtB6_16CreatorRoyaltiespENtNtNtCs5SUGlJDgeoS_19multiversx_sc_codec6single6top_de9TopDecode24top_decode_or_handle_errppEBa_
FN:378,_RINvXININtNtCshiqmisuHlyH_12lending_pool7proxies17proxy_accumulatorst_0pEINtB6_16CreatorRoyaltiespENtNtNtCs5SUGlJDgeoS_19multiversx_sc_codec6single9nested_en12NestedEncode24dep_encode_or_handle_errppEBa_
FN:378,_RINvXININtNtCshiqmisuHlyH_12lending_pool7proxies17proxy_accumulatorsu_0pEINtB6_16CreatorRoyaltiespENtNtNtCs5SUGlJDgeoS_19multiversx_sc_codec6single9nested_de12NestedDecode24dep_decode_or_handle_errppEBa_
FN:378,_RINvXININtNtCshiqmisuHlyH_12lending_pool7proxies17proxy_accumulatorsy_0pEINtB6_16CreatorRoyaltiespENtNtNtNtNtCslPMlHj3qn2H_13multiversx_sc5types7managed7wrapped16managed_vec_item14ManagedVecItem16from_byte_readerpEBa_
FN:378,_RNCINvXININtNtCshiqmisuHlyH_12lending_pool7proxies17proxy_accumulatorsy_0pEINtB8_16CreatorRoyaltiespENtNtNtNtNtCslPMlHj3qn2H_13multiversx_sc5types7managed7wrapped16managed_vec_item14ManagedVecItem16from_byte_readerpE0Bc_
FN:378,_RNCINvXININtNtCshiqmisuHlyH_12lending_pool7proxies17proxy_accumulatorsy_0pEINtB8_16CreatorRoyaltiespENtNtNtNtNtCslPMlHj3qn2H_13multiversx_sc5types7managed7wrapped16managed_vec_item14ManagedVecItem16from_byte_readerpEs_0Bc_
FN:378,_RINvXININtNtCshiqmisuHlyH_12lending_pool7proxies17proxy_accumulatorsy_0pEINtB6_16CreatorRoyaltiespENtNtNtNtNtCslPMlHj3qn2H_13multiversx_sc5types7managed7wrapped16managed_vec_item14ManagedVecItem26from_byte_reader_as_borrowpEBa_
FN:378,_RINvXININtNtCshiqmisuHlyH_12lending_pool7proxies17proxy_accumulatorsy_0pEINtB6_16CreatorRoyaltiespENtNtNtNtNtCslPMlHj3qn2H_13multiversx_sc5types7managed7wrapped16managed_vec_item14ManagedVecItem16into_byte_writerppEBa_
FN:378,_RNCINvXININtNtCshiqmisuHlyH_12lending_pool7proxies17proxy_accumulatorsy_0pEINtB8_16CreatorRoyaltiespENtNtNtNtNtCslPMlHj3qn2H_13multiversx_sc5types7managed7wrapped16managed_vec_item14ManagedVecItem16into_byte_writerppE0Bc_
FN:378,_RNCINvXININtNtCshiqmisuHlyH_12lending_pool7proxies17proxy_accumulatorsy_0pEINtB8_16CreatorRoyaltiespENtNtNtNtNtCslPMlHj3qn2H_13multiversx_sc5types7managed7wrapped16managed_vec_item14ManagedVecItem16into_byte_writerppEs_0Bc_
FN:377,_RNvXININtNtCshiqmisuHlyH_12lending_pool7proxies17proxy_accumulatorsq_0pEINtB5_16CreatorRoyaltiespENtNtNtCslPMlHj3qn2H_13multiversx_sc3abi8type_abi7TypeAbi9type_nameB9_
FN:377,_RINvXININtNtCshiqmisuHlyH_12lending_pool7proxies17proxy_accumulatorsq_0pEINtB6_16CreatorRoyaltiespENtNtNtCslPMlHj3qn2H_13multiversx_sc3abi8type_abi7TypeAbi25provide_type_descriptionspEBa_
FN:122,_RNvMs1_NtNtCs48qTgYy1n57_12lending_pool7proxies17proxy_accumulatorINtB5_23AccumulatorProxyMethodsINtNtNtNtNtCslPMlHj3qn2H_13multiversx_sc5types11interaction7tx_exec9tx_env_sc7TxScEnvINtNtNtNtCs1rODQd5oASQ_22multiversx_sc_scenario3api7impl_vh12vm_hooks_api10VMHooksApiNtNtB2Z_9debug_api15DebugApiBackendEEuRINtNtNtNtB1G_7managed7wrapped15managed_address14ManagedAddressB2U_EuE7depositCs8iyf5MSkCde_5tests
FN:23,_RNvXNtNtCs48qTgYy1n57_12lending_pool7proxies17proxy_accumulatorNtB2_16AccumulatorProxyINtNtNtNtCslPMlHj3qn2H_13multiversx_sc5types11interaction8tx_proxy12TxProxyTraitINtNtNtB1r_7tx_exec9tx_env_sc7TxScEnvINtNtNtNtCs1rODQd5oASQ_22multiversx_sc_scenario3api7impl_vh12vm_hooks_api10VMHooksApiNtNtB3k_9debug_api15DebugApiBackendEEuRINtNtNtNtB1t_7managed7wrapped15managed_address14ManagedAddressB3f_EuE13proxy_methodsCs8iyf5MSkCde_5tests
FNDA:0,_RNvXININtNtCshiqmisuHlyH_12lending_pool7proxies17proxy_accumulator0ppppENtB5_16AccumulatorProxyINtNtNtNtCslPMlHj3qn2H_13multiversx_sc5types11interaction8tx_proxy12TxProxyTraitppppE13proxy_methodsB9_
FNDA:0,_RINvMs_NtNtCshiqmisuHlyH_12lending_pool7proxies17proxy_accumulatorINtB5_23AccumulatorProxyMethodsppupE4initppppppEB9_
FNDA:0,_RINvMs0_NtNtCshiqmisuHlyH_12lending_pool7proxies17proxy_accumulatorINtB6_23AccumulatorProxyMethodsppppE7upgradeppppppEBa_
FNDA:0,_RNvMs1_NtNtCshiqmisuHlyH_12lending_pool7proxies17proxy_accumulatorINtB5_23AccumulatorProxyMethodsppppE7depositB9_
FNDA:0,_RINvMs1_NtNtCshiqmisuHlyH_12lending_pool7proxies17proxy_accumulatorINtB6_23AccumulatorProxyMethodsppppE17deposit_royaltiespEBa_
FNDA:0,_RINvMs1_NtNtCshiqmisuHlyH_12lending_pool7proxies17proxy_accumulatorINtB6_23AccumulatorProxyMethodsppppE10distributeppppEBa_
FNDA:0,_RINvMs1_NtNtCshiqmisuHlyH_12lending_pool7proxies17proxy_accumulatorINtB6_23AccumulatorProxyMethodsppppE20distribute_royaltiespppppEBa_
FNDA:0,_RNvMs1_NtNtCshiqmisuHlyH_12lending_pool7proxies17proxy_accumulatorINtB5_23AccumulatorProxyMethodsppppE23claim_protocol_reservesB9_
FNDA:0,_RNvMs1_NtNtCshiqmisuHlyH_12lending_pool7proxies17proxy_accumulatorINtB5_23AccumulatorProxyMethodsppppE7reserveB9_
FNDA:0,_RNvMs1_NtNtCshiqmisuHlyH_12lending_pool7proxies17proxy_accumulatorINtB5_23AccumulatorProxyMethodsppppE12reward_tokenB9_
FNDA:0,_RNvMs1_NtNtCshiqmisuHlyH_12lending_pool7proxies17proxy_accumulatorINtB5_23AccumulatorProxyMethodsppppE19liquid_reward_tokenB9_
FNDA:0,_RNvMs1_NtNtCshiqmisuHlyH_12lending_pool7proxies17proxy_accumulatorINtB5_23AccumulatorProxyMethodsppppE9burn_rateB9_
FNDA:0,_RNvMs1_NtNtCshiqmisuHlyH_12lending_pool7proxies17proxy_accumulatorINtB5_23AccumulatorProxyMethodsppppE10share_rateB9_
FNDA:0,_RNvMs1_NtNtCshiqmisuHlyH_12lending_pool7proxies17proxy_accumulatorINtB5_23AccumulatorProxyMethodsppppE6tokensB9_
FNDA:0,_RINvMs1_NtNtCshiqmisuHlyH_12lending_pool7proxies17proxy_accumulatorINtB6_23AccumulatorProxyMethodsppppE13token_balancepEBa_
FNDA:0,_RNvMs1_NtNtCshiqmisuHlyH_12lending_pool7proxies17proxy_accumulatorINtB5_23AccumulatorProxyMethodsppppE8creatorsB9_
FNDA:0,_RINvMs1_NtNtCshiqmisuHlyH_12lending_pool7proxies17proxy_accumulatorINtB6_23AccumulatorProxyMethodsppppE14creator_tokenspEBa_
FNDA:0,_RINvMs1_NtNtCshiqmisuHlyH_12lending_pool7proxies17proxy_accumulatorINtB6_23AccumulatorProxyMethodsppppE17creator_royaltiesppEBa_
FNDA:0,_RNvMs1_NtNtCshiqmisuHlyH_12lending_pool7proxies17proxy_accumulatorINtB5_23AccumulatorProxyMethodsppppE15xoxno_liquid_scB9_
FNDA:0,_RNvMs1_NtNtCshiqmisuHlyH_12lending_pool7proxies17proxy_accumulatorINtB5_23AccumulatorProxyMethodsppppE6ash_scB9_
FNDA:0,_RINvMs1_NtNtCshiqmisuHlyH_12lending_pool7proxies17proxy_accumulatorINtB6_23AccumulatorProxyMethodsppppE21get_creator_royaltiespEBa_
FNDA:0,_RNvMs1_NtNtCshiqmisuHlyH_12lending_pool7proxies17proxy_accumulatorINtB5_23AccumulatorProxyMethodsppppE25get_all_creator_royaltiesB9_
FNDA:0,_RNvMs1_NtNtCshiqmisuHlyH_12lending_pool7proxies17proxy_accumulatorINtB5_23AccumulatorProxyMethodsppppE22get_real_yield_pendingB9_
FNDA:0,_RINvXININtNtCshiqmisuHlyH_12lending_pool7proxies17proxy_accumulators5_0pEINtB6_14AggregatorSteppENtNtNtCs5SUGlJDgeoS_19multiversx_sc_codec6single6top_en9TopEncode24top_encode_or_handle_errppEBa_
FNDA:0,_RINvXININtNtCshiqmisuHlyH_12lending_pool7proxies17proxy_accumulators6_0pEINtB6_14AggregatorSteppENtNtNtCs5SUGlJDgeoS_19multiversx_sc_codec6single6top_de9TopDecode24top_decode_or_handle_errppEBa_
FNDA:0,_RINvXININtNtCshiqmisuHlyH_12lending_pool7proxies17proxy_accumulators7_0pEINtB6_14AggregatorSteppENtNtNtCs5SUGlJDgeoS_19multiversx_sc_codec6single9nested_en12NestedEncode24dep_encode_or_handle_errppEBa_
FNDA:0,_RINvXININtNtCshiqmisuHlyH_12lending_pool7proxies17proxy_accumulators8_0pEINtB6_14AggregatorSteppENtNtNtCs5SUGlJDgeoS_19multiversx_sc_codec6single9nested_de12NestedDecode24dep_decode_or_handle_errppEBa_
FNDA:0,_RINvXININtNtCshiqmisuHlyH_12lending_pool7proxies17proxy_accumulatorsc_0pEINtB6_14AggregatorSteppENtNtNtNtNtCslPMlHj3qn2H_13multiversx_sc5types7managed7wrapped16managed_vec_item14ManagedVecItem16from_byte_readerpEBa_
FNDA:0,_RNCINvXININtNtCshiqmisuHlyH_12lending_pool7proxies17proxy_accumulatorsc_0pEINtB8_14AggregatorSteppENtNtNtNtNtCslPMlHj3qn2H_13multiversx_sc5types7managed7wrapped16managed_vec_item14ManagedVecItem16from_byte_readerpE0Bc_
FNDA:0,_RNCINvXININtNtCshiqmisuHlyH_12lending_pool7proxies17proxy_accumulatorsc_0pEINtB8_14AggregatorSteppENtNtNtNtNtCslPMlHj3qn2H_13multiversx_sc5types7managed7wrapped16managed_vec_item14ManagedVecItem16from_byte_readerpEs_0Bc_
FNDA:0,_RNCINvXININtNtCshiqmisuHlyH_12lending_pool7proxies17proxy_accumulatorsc_0pEINtB8_14AggregatorSteppENtNtNtNtNtCslPMlHj3qn2H_13multiversx_sc5types7managed7wrapped16managed_vec_item14ManagedVecItem16from_byte_readerpEs0_0Bc_
FNDA:0,_RNCINvXININtNtCshiqmisuHlyH_12lending_pool7proxies17proxy_accumulatorsc_0pEINtB8_14AggregatorSteppENtNtNtNtNtCslPMlHj3qn2H_13multiversx_sc5types7managed7wrapped16managed_vec_item14ManagedVecItem16from_byte_readerpEs1_0Bc_
FNDA:0,_RNCINvXININtNtCshiqmisuHlyH_12lending_pool7proxies17proxy_accumulatorsc_0pEINtB8_14AggregatorSteppENtNtNtNtNtCslPMlHj3qn2H_13multiversx_sc5types7managed7wrapped16managed_vec_item14ManagedVecItem16from_byte_readerpEs2_0Bc_
FNDA:0,_RNCINvXININtNtCshiqmisuHlyH_12lending_pool7proxies17proxy_accumulatorsc_0pEINtB8_14AggregatorSteppENtNtNtNtNtCslPMlHj3qn2H_13multiversx_sc5types7managed7wrapped16managed_vec_item14ManagedVecItem16from_byte_readerpEs3_0Bc_
FNDA:0,_RINvXININtNtCshiqmisuHlyH_12lending_pool7proxies17proxy_accumulatorsc_0pEINtB6_14AggregatorSteppENtNtNtNtNtCslPMlHj3qn2H_13multiversx_sc5types7managed7wrapped16managed_vec_item14ManagedVecItem26from_byte_reader_as_borrowpEBa_
FNDA:0,_RINvXININtNtCshiqmisuHlyH_12lending_pool7proxies17proxy_accumulatorsc_0pEINtB6_14AggregatorSteppENtNtNtNtNtCslPMlHj3qn2H_13multiversx_sc5types7managed7wrapped16managed_vec_item14ManagedVecItem16into_byte_writerppEBa_
FNDA:0,_RNCINvXININtNtCshiqmisuHlyH_12lending_pool7proxies17proxy_accumulatorsc_0pEINtB8_14AggregatorSteppENtNtNtNtNtCslPMlHj3qn2H_13multiversx_sc5types7managed7wrapped16managed_vec_item14ManagedVecItem16into_byte_writerppE0Bc_
FNDA:0,_RNCINvXININtNtCshiqmisuHlyH_12lending_pool7proxies17proxy_accumulatorsc_0pEINtB8_14AggregatorSteppENtNtNtNtNtCslPMlHj3qn2H_13multiversx_sc5types7managed7wrapped16managed_vec_item14ManagedVecItem16into_byte_writerppEs_0Bc_
FNDA:0,_RNCINvXININtNtCshiqmisuHlyH_12lending_pool7proxies17proxy_accumulatorsc_0pEINtB8_14AggregatorSteppENtNtNtNtNtCslPMlHj3qn2H_13multiversx_sc5types7managed7wrapped16managed_vec_item14ManagedVecItem16into_byte_writerppEs0_0Bc_
FNDA:0,_RNCINvXININtNtCshiqmisuHlyH_12lending_pool7proxies17proxy_accumulatorsc_0pEINtB8_14AggregatorSteppENtNtNtNtNtCslPMlHj3qn2H_13multiversx_sc5types7managed7wrapped16managed_vec_item14ManagedVecItem16into_byte_writerppEs1_0Bc_
FNDA:0,_RNCINvXININtNtCshiqmisuHlyH_12lending_pool7proxies17proxy_accumulatorsc_0pEINtB8_14AggregatorSteppENtNtNtNtNtCslPMlHj3qn2H_13multiversx_sc5types7managed7wrapped16managed_vec_item14ManagedVecItem16into_byte_writerppEs2_0Bc_
FNDA:0,_RNCINvXININtNtCshiqmisuHlyH_12lending_pool7proxies17proxy_accumulatorsc_0pEINtB8_14AggregatorSteppENtNtNtNtNtCslPMlHj3qn2H_13multiversx_sc5types7managed7wrapped16managed_vec_item14ManagedVecItem16into_byte_writerppEs3_0Bc_
FNDA:0,_RNvXININtNtCshiqmisuHlyH_12lending_pool7proxies17proxy_accumulators4_0pEINtB5_14AggregatorSteppENtNtNtCslPMlHj3qn2H_13multiversx_sc3abi8type_abi7TypeAbi9type_nameB9_
FNDA:0,_RINvXININtNtCshiqmisuHlyH_12lending_pool7proxies17proxy_accumulators4_0pEINtB6_14AggregatorSteppENtNtNtCslPMlHj3qn2H_13multiversx_sc3abi8type_abi7TypeAbi25provide_type_descriptionspEBa_
FNDA:0,_RINvXININtNtCshiqmisuHlyH_12lending_pool7proxies17proxy_accumulatorsg_0pEINtB6_11TokenAmountpENtNtNtCs5SUGlJDgeoS_19multiversx_sc_codec6single6top_en9TopEncode24top_encode_or_handle_errppEBa_
FNDA:0,_RINvXININtNtCshiqmisuHlyH_12lending_pool7proxies17proxy_accumulatorsh_0pEINtB6_11TokenAmountpENtNtNtCs5SUGlJDgeoS_19multiversx_sc_codec6single6top_de9TopDecode24top_decode_or_handle_errppEBa_
FNDA:0,_RINvXININtNtCshiqmisuHlyH_12lending_pool7proxies17proxy_accumulatorsi_0pEINtB6_11TokenAmountpENtNtNtCs5SUGlJDgeoS_19multiversx_sc_codec6single9nested_en12NestedEncode24dep_encode_or_handle_errppEBa_
FNDA:0,_RINvXININtNtCshiqmisuHlyH_12lending_pool7proxies17proxy_accumulatorsj_0pEINtB6_11TokenAmountpENtNtNtCs5SUGlJDgeoS_19multiversx_sc_codec6single9nested_de12NestedDecode24dep_decode_or_handle_errppEBa_
FNDA:0,_RINvXININtNtCshiqmisuHlyH_12lending_pool7proxies17proxy_accumulatorsn_0pEINtB6_11TokenAmountpENtNtNtNtNtCslPMlHj3qn2H_13multiversx_sc5types7managed7wrapped16managed_vec_item14ManagedVecItem16from_byte_readerpEBa_
FNDA:0,_RNCINvXININtNtCshiqmisuHlyH_12lending_pool7proxies17proxy_accumulatorsn_0pEINtB8_11TokenAmountpENtNtNtNtNtCslPMlHj3qn2H_13multiversx_sc5types7managed7wrapped16managed_vec_item14ManagedVecItem16from_byte_readerpE0Bc_
FNDA:0,_RNCINvXININtNtCshiqmisuHlyH_12lending_pool7proxies17proxy_accumulatorsn_0pEINtB8_11TokenAmountpENtNtNtNtNtCslPMlHj3qn2H_13multiversx_sc5types7managed7wrapped16managed_vec_item14ManagedVecItem16from_byte_readerpEs_0Bc_
FNDA:0,_RINvXININtNtCshiqmisuHlyH_12lending_pool7proxies17proxy_accumulatorsn_0pEINtB6_11TokenAmountpENtNtNtNtNtCslPMlHj3qn2H_13multiversx_sc5types7managed7wrapped16managed_vec_item14ManagedVecItem26from_byte_reader_as_borrowpEBa_
FNDA:0,_RINvXININtNtCshiqmisuHlyH_12lending_pool7proxies17proxy_accumulatorsn_0pEINtB6_11TokenAmountpENtNtNtNtNtCslPMlHj3qn2H_13multiversx_sc5types7managed7wrapped16managed_vec_item14ManagedVecItem16into_byte_writerppEBa_
FNDA:0,_RNCINvXININtNtCshiqmisuHlyH_12lending_pool7proxies17proxy_accumulatorsn_0pEINtB8_11TokenAmountpENtNtNtNtNtCslPMlHj3qn2H_13multiversx_sc5types7managed7wrapped16managed_vec_item14ManagedVecItem16into_byte_writerppE0Bc_
FNDA:0,_RNCINvXININtNtCshiqmisuHlyH_12lending_pool7proxies17proxy_accumulatorsn_0pEINtB8_11TokenAmountpENtNtNtNtNtCslPMlHj3qn2H_13multiversx_sc5types7managed7wrapped16managed_vec_item14ManagedVecItem16into_byte_writerppEs_0Bc_
FNDA:0,_RNvXININtNtCshiqmisuHlyH_12lending_pool7proxies17proxy_accumulatorsf_0pEINtB5_11TokenAmountpENtNtNtCslPMlHj3qn2H_13multiversx_sc3abi8type_abi7TypeAbi9type_nameB9_
FNDA:0,_RINvXININtNtCshiqmisuHlyH_12lending_pool7proxies17proxy_accumulatorsf_0pEINtB6_11TokenAmountpENtNtNtCslPMlHj3qn2H_13multiversx_sc3abi8type_abi7TypeAbi25provide_type_descriptionspEBa_
FNDA:0,_RINvXININtNtCshiqmisuHlyH_12lending_pool7proxies17proxy_accumulatorsr_0pEINtB6_16CreatorRoyaltiespENtNtNtCs5SUGlJDgeoS_19multiversx_sc_codec6single6top_en9TopEncode24top_encode_or_handle_errppEBa_
FNDA:0,_RINvXININtNtCshiqmisuHlyH_12lending_pool7proxies17proxy_accumulatorss_0pEINtB6_16CreatorRoyaltiespENtNtNtCs5SUGlJDgeoS_19multiversx_sc_codec6single6top_de9TopDecode24top_decode_or_handle_errppEBa_
FNDA:0,_RINvXININtNtCshiqmisuHlyH_12lending_pool7proxies17proxy_accumulatorst_0pEINtB6_16CreatorRoyaltiespENtNtNtCs5SUGlJDgeoS_19multiversx_sc_codec6single9nested_en12NestedEncode24dep_encode_or_handle_errppEBa_
FNDA:0,_RINvXININtNtCshiqmisuHlyH_12lending_pool7proxies17proxy_accumulatorsu_0pEINtB6_16CreatorRoyaltiespENtNtNtCs5SUGlJDgeoS_19multiversx_sc_codec6single9nested_de12NestedDecode24dep_decode_or_handle_errppEBa_
FNDA:0,_RINvXININtNtCshiqmisuHlyH_12lending_pool7proxies17proxy_accumulatorsy_0pEINtB6_16CreatorRoyaltiespENtNtNtNtNtCslPMlHj3qn2H_13multiversx_sc5types7managed7wrapped16managed_vec_item14ManagedVecItem16from_byte_readerpEBa_
FNDA:0,_RNCINvXININtNtCshiqmisuHlyH_12lending_pool7proxies17proxy_accumulatorsy_0pEINtB8_16CreatorRoyaltiespENtNtNtNtNtCslPMlHj3qn2H_13multiversx_sc5types7managed7wrapped16managed_vec_item14ManagedVecItem16from_byte_readerpE0Bc_
FNDA:0,_RNCINvXININtNtCshiqmisuHlyH_12lending_pool7proxies17proxy_accumulatorsy_0pEINtB8_16CreatorRoyaltiespENtNtNtNtNtCslPMlHj3qn2H_13multiversx_sc5types7managed7wrapped16managed_vec_item14ManagedVecItem16from_byte_readerpEs_0Bc_
FNDA:0,_RINvXININtNtCshiqmisuHlyH_12lending_pool7proxies17proxy_accumulatorsy_0pEINtB6_16CreatorRoyaltiespENtNtNtNtNtCslPMlHj3qn2H_13multiversx_sc5types7managed7wrapped16managed_vec_item14ManagedVecItem26from_byte_reader_as_borrowpEBa_
FNDA:0,_RINvXININtNtCshiqmisuHlyH_12lending_pool7proxies17proxy_accumulatorsy_0pEINtB6_16CreatorRoyaltiespENtNtNtNtNtCslPMlHj3qn2H_13multiversx_sc5types7managed7wrapped16managed_vec_item14ManagedVecItem16into_byte_writerppEBa_
FNDA:0,_RNCINvXININtNtCshiqmisuHlyH_12lending_pool7proxies17proxy_accumulatorsy_0pEINtB8_16CreatorRoyaltiespENtNtNtNtNtCslPMlHj3qn2H_13multiversx_sc5types7managed7wrapped16managed_vec_item14ManagedVecItem16into_byte_writerppE0Bc_
FNDA:0,_RNCINvXININtNtCshiqmisuHlyH_12lending_pool7proxies17proxy_accumulatorsy_0pEINtB8_16CreatorRoyaltiespENtNtNtNtNtCslPMlHj3qn2H_13multiversx_sc5types7managed7wrapped16managed_vec_item14ManagedVecItem16into_byte_writerppEs_0Bc_
FNDA:0,_RNvXININtNtCshiqmisuHlyH_12lending_pool7proxies17proxy_accumulatorsq_0pEINtB5_16CreatorRoyaltiespENtNtNtCslPMlHj3qn2H_13multiversx_sc3abi8type_abi7TypeAbi9type_nameB9_
FNDA:0,_RINvXININtNtCshiqmisuHlyH_12lending_pool7proxies17proxy_accumulatorsq_0pEINtB6_16CreatorRoyaltiespENtNtNtCslPMlHj3qn2H_13multiversx_sc3abi8type_abi7TypeAbi25provide_type_descriptionspEBa_
FNDA:0,_RNvMs1_NtNtCs48qTgYy1n57_12lending_pool7proxies17proxy_accumulatorINtB5_23AccumulatorProxyMethodsINtNtNtNtNtCslPMlHj3qn2H_13multiversx_sc5types11interaction7tx_exec9tx_env_sc7TxScEnvINtNtNtNtCs1rODQd5oASQ_22multiversx_sc_scenario3api7impl_vh12vm_hooks_api10VMHooksApiNtNtB2Z_9debug_api15DebugApiBackendEEuRINtNtNtNtB1G_7managed7wrapped15managed_address14ManagedAddressB2U_EuE7depositCs8iyf5MSkCde_5tests
FNDA:0,_RNvXNtNtCs48qTgYy1n57_12lending_pool7proxies17proxy_accumulatorNtB2_16AccumulatorProxyINtNtNtNtCslPMlHj3qn2H_13multiversx_sc5types11interaction8tx_proxy12TxProxyTraitINtNtNtB1r_7tx_exec9tx_env_sc7TxScEnvINtNtNtNtCs1rODQd5oASQ_22multiversx_sc_scenario3api7impl_vh12vm_hooks_api10VMHooksApiNtNtB3k_9debug_api15DebugApiBackendEEuRINtNtNtNtB1t_7managed7wrapped15managed_address14ManagedAddressB3f_EuE13proxy_methodsCs8iyf5MSkCde_5tests
FNF:41
FNH:0
DA:23,0
DA:24,0
DA:25,0
DA:46,0
DA:47,0
DA:48,0
DA:49,0
DA:50,0
DA:51,0
DA:52,0
DA:53,0
DA:54,0
DA:55,0
DA:56,0
DA:57,0
DA:58,0
DA:59,0
DA:60,0
DA:61,0
DA:62,0
DA:63,0
DA:64,0
DA:65,0
DA:66,0
DA:67,0
DA:68,0
DA:69,0
DA:70,0
DA:71,0
DA:72,0
DA:84,0
DA:85,0
DA:86,0
DA:87,0
DA:88,0
DA:89,0
DA:90,0
DA:91,0
DA:92,0
DA:93,0
DA:94,0
DA:95,0
DA:96,0
DA:97,0
DA:98,0
DA:99,0
DA:100,0
DA:101,0
DA:102,0
DA:103,0
DA:104,0
DA:105,0
DA:106,0
DA:107,0
DA:108,0
DA:109,0
DA:110,0
DA:122,0
DA:123,0
DA:124,0
DA:125,0
DA:126,0
DA:127,0
DA:128,0
DA:130,0
DA:131,0
DA:132,0
DA:133,0
DA:134,0
DA:135,0
DA:136,0
DA:137,0
DA:138,0
DA:139,0
DA:140,0
DA:142,0
DA:143,0
DA:144,0
DA:145,0
DA:146,0
DA:147,0
DA:148,0
DA:149,0
DA:150,0
DA:151,0
DA:152,0
DA:153,0
DA:154,0
DA:155,0
DA:156,0
DA:157,0
DA:158,0
DA:159,0
DA:160,0
DA:161,0
DA:162,0
DA:164,0
DA:165,0
DA:166,0
DA:167,0
DA:168,0
DA:169,0
DA:170,0
DA:171,0
DA:172,0
DA:173,0
DA:174,0
DA:175,0
DA:176,0
DA:177,0
DA:178,0
DA:179,0
DA:180,0
DA:181,0
DA:182,0
DA:183,0
DA:184,0
DA:185,0
DA:186,0
DA:187,0
DA:189,0
DA:190,0
DA:191,0
DA:192,0
DA:193,0
DA:194,0
DA:195,0
DA:196,0
DA:198,0
DA:199,0
DA:200,0
DA:201,0
DA:202,0
DA:203,0
DA:204,0
DA:205,0
DA:207,0
DA:208,0
DA:209,0
DA:210,0
DA:211,0
DA:212,0
DA:213,0
DA:214,0
DA:216,0
DA:217,0
DA:218,0
DA:219,0
DA:220,0
DA:221,0
DA:222,0
DA:223,0
DA:225,0
DA:226,0
DA:227,0
DA:228,0
DA:229,0
DA:230,0
DA:231,0
DA:232,0
DA:234,0
DA:235,0
DA:236,0
DA:237,0
DA:238,0
DA:239,0
DA:240,0
DA:241,0
DA:243,0
DA:244,0
DA:245,0
DA:246,0
DA:247,0
DA:248,0
DA:249,0
DA:250,0
DA:252,0
DA:253,0
DA:254,0
DA:255,0
DA:256,0
DA:257,0
DA:258,0
DA:259,0
DA:260,0
DA:261,0
DA:262,0
DA:263,0
DA:265,0
DA:266,0
DA:267,0
DA:268,0
DA:269,0
DA:270,0
DA:271,0
DA:272,0
DA:274,0
DA:275,0
DA:276,0
DA:277,0
DA:278,0
DA:279,0
DA:280,0
DA:281,0
DA:282,0
DA:283,0
DA:284,0
DA:285,0
DA:287,0
DA:288,0
DA:289,0
DA:290,0
DA:291,0
DA:292,0
DA:293,0
DA:294,0
DA:295,0
DA:296,0
DA:297,0
DA:298,0
DA:299,0
DA:300,0
DA:301,0
DA:303,0
DA:304,0
DA:305,0
DA:306,0
DA:307,0
DA:308,0
DA:309,0
DA:310,0
DA:312,0
DA:313,0
DA:314,0
DA:315,0
DA:316,0
DA:317,0
DA:318,0
DA:319,0
DA:321,0
DA:322,0
DA:323,0
DA:324,0
DA:325,0
DA:326,0
DA:327,0
DA:328,0
DA:329,0
DA:330,0
DA:331,0
DA:332,0
DA:334,0
DA:335,0
DA:336,0
DA:337,0
DA:338,0
DA:339,0
DA:340,0
DA:341,0
DA:343,0
DA:344,0
DA:345,0
DA:346,0
DA:347,0
DA:348,0
DA:349,0
DA:350,0
DA:353,0
DA:354,0
DA:367,0
DA:368,0
DA:377,0
DA:378,0
BRF:0
BRH:0
LF:285
LH:0
end_of_record
SF:/Users/mihaieremia/GitHub/rs-lending/lending_pool/src/proxies/proxy_legld.rs
FN:23,_RNvXININtNtCshiqmisuHlyH_12lending_pool7proxies11proxy_legld0ppppENtB5_18SalsaContractProxyINtNtNtNtCslPMlHj3qn2H_13multiversx_sc5types11interaction8tx_proxy12TxProxyTraitppppE13proxy_methodsB9_
FN:46,_RNvMs_NtNtCshiqmisuHlyH_12lending_pool7proxies11proxy_legldINtB4_25SalsaContractProxyMethodsppupE4initB8_
FN:65,_RNvMs0_NtNtCshiqmisuHlyH_12lending_pool7proxies11proxy_legldINtB5_25SalsaContractProxyMethodsppppE7upgradeB9_
FN:85,_RINvMs1_NtNtCshiqmisuHlyH_12lending_pool7proxies11proxy_legldINtB6_25SalsaContractProxyMethodsppppE8delegateppEBa_
FN:101,_RINvMs1_NtNtCshiqmisuHlyH_12lending_pool7proxies11proxy_legldINtB6_25SalsaContractProxyMethodsppppE10undelegateppEBa_
FN:117,_RNvMs1_NtNtCshiqmisuHlyH_12lending_pool7proxies11proxy_legldINtB5_25SalsaContractProxyMethodsppppE8withdrawB9_
FN:127,_RINvMs1_NtNtCshiqmisuHlyH_12lending_pool7proxies11proxy_legldINtB6_25SalsaContractProxyMethodsppppE14add_to_custodypEBa_
FN:140,_RINvMs1_NtNtCshiqmisuHlyH_12lending_pool7proxies11proxy_legldINtB6_25SalsaContractProxyMethodsppppE19remove_from_custodyppEBa_
FN:157,_RINvMs1_NtNtCshiqmisuHlyH_12lending_pool7proxies11proxy_legldINtB6_25SalsaContractProxyMethodsppppE11add_reservepEBa_
FN:170,_RINvMs1_NtNtCshiqmisuHlyH_12lending_pool7proxies11proxy_legldINtB6_25SalsaContractProxyMethodsppppE14remove_reserveppEBa_
FN:187,_RINvMs1_NtNtCshiqmisuHlyH_12lending_pool7proxies11proxy_legldINtB6_25SalsaContractProxyMethodsppppE14undelegate_nowpppEBa_
FN:205,_RINvMs1_NtNtCshiqmisuHlyH_12lending_pool7proxies11proxy_legldINtB6_25SalsaContractProxyMethodsppppE17undelegate_knightpppEBa_
FN:225,_RINvMs1_NtNtCshiqmisuHlyH_12lending_pool7proxies11proxy_legldINtB6_25SalsaContractProxyMethodsppppE21undelegate_now_knightppppEBa_
FN:248,_RINvMs1_NtNtCshiqmisuHlyH_12lending_pool7proxies11proxy_legldINtB6_25SalsaContractProxyMethodsppppE15withdraw_knightpEBa_
FN:262,_RINvMs1_NtNtCshiqmisuHlyH_12lending_pool7proxies11proxy_legldINtB6_25SalsaContractProxyMethodsppppE21remove_reserve_knightpppEBa_
FN:282,_RINvMs1_NtNtCshiqmisuHlyH_12lending_pool7proxies11proxy_legldINtB6_25SalsaContractProxyMethodsppppE15undelegate_heirpppEBa_
FN:302,_RINvMs1_NtNtCshiqmisuHlyH_12lending_pool7proxies11proxy_legldINtB6_25SalsaContractProxyMethodsppppE19undelegate_now_heirppppEBa_
FN:325,_RINvMs1_NtNtCshiqmisuHlyH_12lending_pool7proxies11proxy_legldINtB6_25SalsaContractProxyMethodsppppE13withdraw_heirpEBa_
FN:339,_RINvMs1_NtNtCshiqmisuHlyH_12lending_pool7proxies11proxy_legldINtB6_25SalsaContractProxyMethodsppppE19remove_reserve_heirpppEBa_
FN:359,_RNvMs1_NtNtCshiqmisuHlyH_12lending_pool7proxies11proxy_legldINtB5_25SalsaContractProxyMethodsppppE39call_reduce_egld_to_delegate_undelegateB9_
FN:368,_RINvMs1_NtNtCshiqmisuHlyH_12lending_pool7proxies11proxy_legldINtB6_25SalsaContractProxyMethodsppppE21register_liquid_tokenpppEBa_
FN:386,_RNvMs1_NtNtCshiqmisuHlyH_12lending_pool7proxies11proxy_legldINtB5_25SalsaContractProxyMethodsppppE15liquid_token_idB9_
FN:395,_RNvMs1_NtNtCshiqmisuHlyH_12lending_pool7proxies11proxy_legldINtB5_25SalsaContractProxyMethodsppppE19liquid_token_supplyB9_
FN:404,_RNvMs1_NtNtCshiqmisuHlyH_12lending_pool7proxies11proxy_legldINtB5_25SalsaContractProxyMethodsppppE16set_state_activeB9_
FN:413,_RNvMs1_NtNtCshiqmisuHlyH_12lending_pool7proxies11proxy_legldINtB5_25SalsaContractProxyMethodsppppE18set_state_inactiveB9_
FN:422,_RNvMs1_NtNtCshiqmisuHlyH_12lending_pool7proxies11proxy_legldINtB5_25SalsaContractProxyMethodsppppE5stateB9_
FN:431,_RNvMs1_NtNtCshiqmisuHlyH_12lending_pool7proxies11proxy_legldINtB5_25SalsaContractProxyMethodsppppE13unbond_periodB9_
FN:440,_RINvMs1_NtNtCshiqmisuHlyH_12lending_pool7proxies11proxy_legldINtB6_25SalsaContractProxyMethodsppppE17set_unbond_periodpEBa_
FN:453,_RNvMs1_NtNtCshiqmisuHlyH_12lending_pool7proxies11proxy_legldINtB5_25SalsaContractProxyMethodsppppE11service_feeB9_
FN:462,_RINvMs1_NtNtCshiqmisuHlyH_12lending_pool7proxies11proxy_legldINtB6_25SalsaContractProxyMethodsppppE15set_service_feepEBa_
FN:475,_RNvMs1_NtNtCshiqmisuHlyH_12lending_pool7proxies11proxy_legldINtB5_25SalsaContractProxyMethodsppppE16max_provider_feeB9_
FN:484,_RINvMs1_NtNtCshiqmisuHlyH_12lending_pool7proxies11proxy_legldINtB6_25SalsaContractProxyMethodsppppE20set_max_provider_feepEBa_
FN:497,_RINvMs1_NtNtCshiqmisuHlyH_12lending_pool7proxies11proxy_legldINtB6_25SalsaContractProxyMethodsppppE19luser_undelegationspEBa_
FN:510,_RNvMs1_NtNtCshiqmisuHlyH_12lending_pool7proxies11proxy_legldINtB5_25SalsaContractProxyMethodsppppE17total_egld_stakedB9_
FN:519,_RNvMs1_NtNtCshiqmisuHlyH_12lending_pool7proxies11proxy_legldINtB5_25SalsaContractProxyMethodsppppE19user_withdrawn_egldB9_
FN:528,_RNvMs1_NtNtCshiqmisuHlyH_12lending_pool7proxies11proxy_legldINtB5_25SalsaContractProxyMethodsppppE20total_withdrawn_egldB9_
FN:537,_RNvMs1_NtNtCshiqmisuHlyH_12lending_pool7proxies11proxy_legldINtB5_25SalsaContractProxyMethodsppppE25ltotal_user_undelegationsB9_
FN:546,_RNvMs1_NtNtCshiqmisuHlyH_12lending_pool7proxies11proxy_legldINtB5_25SalsaContractProxyMethodsppppE12egld_reserveB9_
FN:555,_RNvMs1_NtNtCshiqmisuHlyH_12lending_pool7proxies11proxy_legldINtB5_25SalsaContractProxyMethodsppppE14reserve_pointsB9_
FN:564,_RNvMs1_NtNtCshiqmisuHlyH_12lending_pool7proxies11proxy_legldINtB5_25SalsaContractProxyMethodsppppE22available_egld_reserveB9_
FN:573,_RNvMs1_NtNtCshiqmisuHlyH_12lending_pool7proxies11proxy_legldINtB5_25SalsaContractProxyMethodsppppE22lreserve_undelegationsB9_
FN:582,_RINvMs1_NtNtCshiqmisuHlyH_12lending_pool7proxies11proxy_legldINtB6_25SalsaContractProxyMethodsppppE20users_reserve_pointspEBa_
FN:595,_RINvMs1_NtNtCshiqmisuHlyH_12lending_pool7proxies11proxy_legldINtB6_25SalsaContractProxyMethodsppppE22set_undelegate_now_feepEBa_
FN:608,_RNvMs1_NtNtCshiqmisuHlyH_12lending_pool7proxies11proxy_legldINtB5_25SalsaContractProxyMethodsppppE18undelegate_now_feeB9_
FN:617,_RINvMs1_NtNtCshiqmisuHlyH_12lending_pool7proxies11proxy_legldINtB6_25SalsaContractProxyMethodsppppE25get_reserve_points_amountpEBa_
FN:630,_RINvMs1_NtNtCshiqmisuHlyH_12lending_pool7proxies11proxy_legldINtB6_25SalsaContractProxyMethodsppppE23get_reserve_egld_amountpEBa_
FN:643,_RINvMs1_NtNtCshiqmisuHlyH_12lending_pool7proxies11proxy_legldINtB6_25SalsaContractProxyMethodsppppE16get_user_reservepEBa_
FN:656,_RNvMs1_NtNtCshiqmisuHlyH_12lending_pool7proxies11proxy_legldINtB5_25SalsaContractProxyMethodsppppE11token_priceB9_
FN:665,_RINvMs1_NtNtCshiqmisuHlyH_12lending_pool7proxies11proxy_legldINtB6_25SalsaContractProxyMethodsppppE21view_provider_updatedpEBa_
FN:678,_RNvMs1_NtNtCshiqmisuHlyH_12lending_pool7proxies11proxy_legldINtB5_25SalsaContractProxyMethodsppppE22view_providers_updatedB9_
FN:687,_RINvMs1_NtNtCshiqmisuHlyH_12lending_pool7proxies11proxy_legldINtB6_25SalsaContractProxyMethodsppppE11set_wrap_scpEBa_
FN:700,_RNvMs1_NtNtCshiqmisuHlyH_12lending_pool7proxies11proxy_legldINtB5_25SalsaContractProxyMethodsppppE16legld_in_custodyB9_
FN:709,_RINvMs1_NtNtCshiqmisuHlyH_12lending_pool7proxies11proxy_legldINtB6_25SalsaContractProxyMethodsppppE15user_delegationpEBa_
FN:722,_RINvMs1_NtNtCshiqmisuHlyH_12lending_pool7proxies11proxy_legldINtB6_25SalsaContractProxyMethodsppppE12knight_userspEBa_
FN:735,_RINvMs1_NtNtCshiqmisuHlyH_12lending_pool7proxies11proxy_legldINtB6_25SalsaContractProxyMethodsppppE9user_heirpEBa_
FN:748,_RINvMs1_NtNtCshiqmisuHlyH_12lending_pool7proxies11proxy_legldINtB6_25SalsaContractProxyMethodsppppE10heir_userspEBa_
FN:761,_RNvMs1_NtNtCshiqmisuHlyH_12lending_pool7proxies11proxy_legldINtB5_25SalsaContractProxyMethodsppppE12delegate_allB9_
FN:770,_RNvMs1_NtNtCshiqmisuHlyH_12lending_pool7proxies11proxy_legldINtB5_25SalsaContractProxyMethodsppppE14undelegate_allB9_
FN:779,_RNvMs1_NtNtCshiqmisuHlyH_12lending_pool7proxies11proxy_legldINtB5_25SalsaContractProxyMethodsppppE13claim_rewardsB9_
FN:788,_RINvMs1_NtNtCshiqmisuHlyH_12lending_pool7proxies11proxy_legldINtB6_25SalsaContractProxyMethodsppppE12withdraw_allppEBa_
FN:804,_RNvMs1_NtNtCshiqmisuHlyH_12lending_pool7proxies11proxy_legldINtB5_25SalsaContractProxyMethodsppppE17compute_withdrawnB9_
FN:813,_RNvMs1_NtNtCshiqmisuHlyH_12lending_pool7proxies11proxy_legldINtB5_25SalsaContractProxyMethodsppppE20set_arbitrage_activeB9_
FN:822,_RNvMs1_NtNtCshiqmisuHlyH_12lending_pool7proxies11proxy_legldINtB5_25SalsaContractProxyMethodsppppE22set_arbitrage_inactiveB9_
FN:831,_RNvMs1_NtNtCshiqmisuHlyH_12lending_pool7proxies11proxy_legldINtB5_25SalsaContractProxyMethodsppppE9arbitrageB9_
FN:841,_RNvMs1_NtNtCshiqmisuHlyH_12lending_pool7proxies11proxy_legldINtB5_25SalsaContractProxyMethodsppppE17trigger_arbitrageB9_
FN:850,_RNvMs1_NtNtCshiqmisuHlyH_12lending_pool7proxies11proxy_legldINtB5_25SalsaContractProxyMethodsppppE27set_onedex_arbitrage_activeB9_
FN:859,_RNvMs1_NtNtCshiqmisuHlyH_12lending_pool7proxies11proxy_legldINtB5_25SalsaContractProxyMethodsppppE29set_onedex_arbitrage_inactiveB9_
FN:868,_RNvMs1_NtNtCshiqmisuHlyH_12lending_pool7proxies11proxy_legldINtB5_25SalsaContractProxyMethodsppppE16onedex_arbitrageB9_
FN:877,_RINvMs1_NtNtCshiqmisuHlyH_12lending_pool7proxies11proxy_legldINtB6_25SalsaContractProxyMethodsppppE13set_onedex_scpEBa_
FN:890,_RINvMs1_NtNtCshiqmisuHlyH_12lending_pool7proxies11proxy_legldINtB6_25SalsaContractProxyMethodsppppE18set_onedex_pair_idpEBa_
FN:903,_RNvMs1_NtNtCshiqmisuHlyH_12lending_pool7proxies11proxy_legldINtB5_25SalsaContractProxyMethodsppppE30set_xexchange_arbitrage_activeB9_
FN:912,_RNvMs1_NtNtCshiqmisuHlyH_12lending_pool7proxies11proxy_legldINtB5_25SalsaContractProxyMethodsppppE32set_xexchange_arbitrage_inactiveB9_
FN:921,_RNvMs1_NtNtCshiqmisuHlyH_12lending_pool7proxies11proxy_legldINtB5_25SalsaContractProxyMethodsppppE19xexchange_arbitrageB9_
FN:930,_RINvMs1_NtNtCshiqmisuHlyH_12lending_pool7proxies11proxy_legldINtB6_25SalsaContractProxyMethodsppppE16set_xexchange_scpEBa_
FN:943,_RINvMs1_NtNtCshiqmisuHlyH_12lending_pool7proxies11proxy_legldINtB6_25SalsaContractProxyMethodsppppE10set_knightpEBa_
FN:956,_RNvMs1_NtNtCshiqmisuHlyH_12lending_pool7proxies11proxy_legldINtB5_25SalsaContractProxyMethodsppppE13cancel_knightB9_
FN:965,_RNvMs1_NtNtCshiqmisuHlyH_12lending_pool7proxies11proxy_legldINtB5_25SalsaContractProxyMethodsppppE15activate_knightB9_
FN:974,_RINvMs1_NtNtCshiqmisuHlyH_12lending_pool7proxies11proxy_legldINtB6_25SalsaContractProxyMethodsppppE17deactivate_knightpEBa_
FN:987,_RINvMs1_NtNtCshiqmisuHlyH_12lending_pool7proxies11proxy_legldINtB6_25SalsaContractProxyMethodsppppE14confirm_knightpEBa_
FN:1000,_RINvMs1_NtNtCshiqmisuHlyH_12lending_pool7proxies11proxy_legldINtB6_25SalsaContractProxyMethodsppppE13remove_knightpEBa_
FN:1013,_RINvMs1_NtNtCshiqmisuHlyH_12lending_pool7proxies11proxy_legldINtB6_25SalsaContractProxyMethodsppppE8set_heirppEBa_
FN:1029,_RNvMs1_NtNtCshiqmisuHlyH_12lending_pool7proxies11proxy_legldINtB5_25SalsaContractProxyMethodsppppE11cancel_heirB9_
FN:1038,_RINvMs1_NtNtCshiqmisuHlyH_12lending_pool7proxies11proxy_legldINtB6_25SalsaContractProxyMethodsppppE11remove_heirpEBa_
FN:1051,_RNvMs1_NtNtCshiqmisuHlyH_12lending_pool7proxies11proxy_legldINtB5_25SalsaContractProxyMethodsppppE20update_last_accessedB9_
FN:1060,_RINvMs1_NtNtCshiqmisuHlyH_12lending_pool7proxies11proxy_legldINtB6_25SalsaContractProxyMethodsppppE12add_providerpEBa_
FN:1073,_RINvMs1_NtNtCshiqmisuHlyH_12lending_pool7proxies11proxy_legldINtB6_25SalsaContractProxyMethodsppppE16refresh_providerpEBa_
FN:1086,_RINvMs1_NtNtCshiqmisuHlyH_12lending_pool7proxies11proxy_legldINtB6_25SalsaContractProxyMethodsppppE15remove_providerpEBa_
FN:1099,_RINvMs1_NtNtCshiqmisuHlyH_12lending_pool7proxies11proxy_legldINtB6_25SalsaContractProxyMethodsppppE18set_provider_stateppEBa_
FN:1116,_RNvMs1_NtNtCshiqmisuHlyH_12lending_pool7proxies11proxy_legldINtB5_25SalsaContractProxyMethodsppppE17refresh_providersB9_
FN:1127,_RINvXs5_NtNtCshiqmisuHlyH_12lending_pool7proxies11proxy_legldNtB6_5StateNtNtNtCs5SUGlJDgeoS_19multiversx_sc_codec6single6top_en9TopEncode24top_encode_or_handle_errppEBa_
FN:1127,_RINvXs6_NtNtCshiqmisuHlyH_12lending_pool7proxies11proxy_legldNtB6_5StateNtNtNtCs5SUGlJDgeoS_19multiversx_sc_codec6single6top_de9TopDecode24top_decode_or_handle_errppEBa_
FN:1126,_RNvXs4_NtNtCshiqmisuHlyH_12lending_pool7proxies11proxy_legldNtB5_5StateNtNtNtCslPMlHj3qn2H_13multiversx_sc3abi8type_abi7TypeAbi9type_name
FN:1126,_RINvXs4_NtNtCshiqmisuHlyH_12lending_pool7proxies11proxy_legldNtB6_5StateNtNtNtCslPMlHj3qn2H_13multiversx_sc3abi8type_abi7TypeAbi25provide_type_descriptionspEBa_
FN:1135,_RINvXININtNtCshiqmisuHlyH_12lending_pool7proxies11proxy_legldsa_0pEINtB6_12UndelegationpENtNtNtCs5SUGlJDgeoS_19multiversx_sc_codec6single6top_en9TopEncode24top_encode_or_handle_errppEBa_
FN:1135,_RINvXININtNtCshiqmisuHlyH_12lending_pool7proxies11proxy_legldsb_0pEINtB6_12UndelegationpENtNtNtCs5SUGlJDgeoS_19multiversx_sc_codec6single6top_de9TopDecode24top_decode_or_handle_errppEBa_
FN:1134,_RNvXININtNtCshiqmisuHlyH_12lending_pool7proxies11proxy_leglds9_0pEINtB5_12UndelegationpENtNtNtCslPMlHj3qn2H_13multiversx_sc3abi8type_abi7TypeAbi9type_nameB9_
FN:1134,_RINvXININtNtCshiqmisuHlyH_12lending_pool7proxies11proxy_leglds9_0pEINtB6_12UndelegationpENtNtNtCslPMlHj3qn2H_13multiversx_sc3abi8type_abi7TypeAbi25provide_type_descriptionspEBa_
FN:1146,_RINvXsf_NtNtCshiqmisuHlyH_12lending_pool7proxies11proxy_legldNtB6_11KnightStateNtNtNtCs5SUGlJDgeoS_19multiversx_sc_codec6single6top_en9TopEncode24top_encode_or_handle_errppEBa_
FN:1146,_RINvXsg_NtNtCshiqmisuHlyH_12lending_pool7proxies11proxy_legldNtB6_11KnightStateNtNtNtCs5SUGlJDgeoS_19multiversx_sc_codec6single6top_de9TopDecode24top_decode_or_handle_errppEBa_
FN:1145,_RNvXse_NtNtCshiqmisuHlyH_12lending_pool7proxies11proxy_legldNtB5_11KnightStateNtNtNtCslPMlHj3qn2H_13multiversx_sc3abi8type_abi7TypeAbi9type_name
FN:1145,_RINvXse_NtNtCshiqmisuHlyH_12lending_pool7proxies11proxy_legldNtB6_11KnightStateNtNtNtCslPMlHj3qn2H_13multiversx_sc3abi8type_abi7TypeAbi25provide_type_descriptionspEBa_
FN:1155,_RINvXININtNtCshiqmisuHlyH_12lending_pool7proxies11proxy_legldsk_0pEINtB6_4HeirpENtNtNtCs5SUGlJDgeoS_19multiversx_sc_codec6single6top_en9TopEncode24top_encode_or_handle_errppEBa_
FN:1155,_RINvXININtNtCshiqmisuHlyH_12lending_pool7proxies11proxy_legldsl_0pEINtB6_4HeirpENtNtNtCs5SUGlJDgeoS_19multiversx_sc_codec6single6top_de9TopDecode24top_decode_or_handle_errppEBa_
FN:1154,_RNvXININtNtCshiqmisuHlyH_12lending_pool7proxies11proxy_legldsj_0pEINtB5_4HeirpENtNtNtCslPMlHj3qn2H_13multiversx_sc3abi8type_abi7TypeAbi9type_nameB9_
FN:1154,_RINvXININtNtCshiqmisuHlyH_12lending_pool7proxies11proxy_legldsj_0pEINtB6_4HeirpENtNtNtCslPMlHj3qn2H_13multiversx_sc3abi8type_abi7TypeAbi25provide_type_descriptionspEBa_
FN:656,_RNvMs1_NtNtCs48qTgYy1n57_12lending_pool7proxies11proxy_legldINtB5_25SalsaContractProxyMethodsINtNtNtNtNtCslPMlHj3qn2H_13multiversx_sc5types11interaction7tx_exec9tx_env_sc7TxScEnvINtNtNtNtCs1rODQd5oASQ_22multiversx_sc_scenario3api7impl_vh12vm_hooks_api10VMHooksApiNtNtB2V_9debug_api15DebugApiBackendEEuRINtNtNtNtB1C_7managed7wrapped15managed_address14ManagedAddressB2Q_EuE11token_priceCs8iyf5MSkCde_5tests
FN:23,_RNvXNtNtCs48qTgYy1n57_12lending_pool7proxies11proxy_legldNtB2_18SalsaContractProxyINtNtNtNtCslPMlHj3qn2H_13multiversx_sc5types11interaction8tx_proxy12TxProxyTraitINtNtNtB1n_7tx_exec9tx_env_sc7TxScEnvINtNtNtNtCs1rODQd5oASQ_22multiversx_sc_scenario3api7impl_vh12vm_hooks_api10VMHooksApiNtNtB3g_9debug_api15DebugApiBackendEEuRINtNtNtNtB1p_7managed7wrapped15managed_address14ManagedAddressB3b_EuE13proxy_methodsCs8iyf5MSkCde_5tests
FNDA:0,_RNvXININtNtCshiqmisuHlyH_12lending_pool7proxies11proxy_legld0ppppENtB5_18SalsaContractProxyINtNtNtNtCslPMlHj3qn2H_13multiversx_sc5types11interaction8tx_proxy12TxProxyTraitppppE13proxy_methodsB9_
FNDA:0,_RNvMs_NtNtCshiqmisuHlyH_12lending_pool7proxies11proxy_legldINtB4_25SalsaContractProxyMethodsppupE4initB8_
FNDA:0,_RNvMs0_NtNtCshiqmisuHlyH_12lending_pool7proxies11proxy_legldINtB5_25SalsaContractProxyMethodsppppE7upgradeB9_
FNDA:0,_RINvMs1_NtNtCshiqmisuHlyH_12lending_pool7proxies11proxy_legldINtB6_25SalsaContractProxyMethodsppppE8delegateppEBa_
FNDA:0,_RINvMs1_NtNtCshiqmisuHlyH_12lending_pool7proxies11proxy_legldINtB6_25SalsaContractProxyMethodsppppE10undelegateppEBa_
FNDA:0,_RNvMs1_NtNtCshiqmisuHlyH_12lending_pool7proxies11proxy_legldINtB5_25SalsaContractProxyMethodsppppE8withdrawB9_
FNDA:0,_RINvMs1_NtNtCshiqmisuHlyH_12lending_pool7proxies11proxy_legldINtB6_25SalsaContractProxyMethodsppppE14add_to_custodypEBa_
FNDA:0,_RINvMs1_NtNtCshiqmisuHlyH_12lending_pool7proxies11proxy_legldINtB6_25SalsaContractProxyMethodsppppE19remove_from_custodyppEBa_
FNDA:0,_RINvMs1_NtNtCshiqmisuHlyH_12lending_pool7proxies11proxy_legldINtB6_25SalsaContractProxyMethodsppppE11add_reservepEBa_
FNDA:0,_RINvMs1_NtNtCshiqmisuHlyH_12lending_pool7proxies11proxy_legldINtB6_25SalsaContractProxyMethodsppppE14remove_reserveppEBa_
FNDA:0,_RINvMs1_NtNtCshiqmisuHlyH_12lending_pool7proxies11proxy_legldINtB6_25SalsaContractProxyMethodsppppE14undelegate_nowpppEBa_
FNDA:0,_RINvMs1_NtNtCshiqmisuHlyH_12lending_pool7proxies11proxy_legldINtB6_25SalsaContractProxyMethodsppppE17undelegate_knightpppEBa_
FNDA:0,_RINvMs1_NtNtCshiqmisuHlyH_12lending_pool7proxies11proxy_legldINtB6_25SalsaContractProxyMethodsppppE21undelegate_now_knightppppEBa_
FNDA:0,_RINvMs1_NtNtCshiqmisuHlyH_12lending_pool7proxies11proxy_legldINtB6_25SalsaContractProxyMethodsppppE15withdraw_knightpEBa_
FNDA:0,_RINvMs1_NtNtCshiqmisuHlyH_12lending_pool7proxies11proxy_legldINtB6_25SalsaContractProxyMethodsppppE21remove_reserve_knightpppEBa_
FNDA:0,_RINvMs1_NtNtCshiqmisuHlyH_12lending_pool7proxies11proxy_legldINtB6_25SalsaContractProxyMethodsppppE15undelegate_heirpppEBa_
FNDA:0,_RINvMs1_NtNtCshiqmisuHlyH_12lending_pool7proxies11proxy_legldINtB6_25SalsaContractProxyMethodsppppE19undelegate_now_heirppppEBa_
FNDA:0,_RINvMs1_NtNtCshiqmisuHlyH_12lending_pool7proxies11proxy_legldINtB6_25SalsaContractProxyMethodsppppE13withdraw_heirpEBa_
FNDA:0,_RINvMs1_NtNtCshiqmisuHlyH_12lending_pool7proxies11proxy_legldINtB6_25SalsaContractProxyMethodsppppE19remove_reserve_heirpppEBa_
FNDA:0,_RNvMs1_NtNtCshiqmisuHlyH_12lending_pool7proxies11proxy_legldINtB5_25SalsaContractProxyMethodsppppE39call_reduce_egld_to_delegate_undelegateB9_
FNDA:0,_RINvMs1_NtNtCshiqmisuHlyH_12lending_pool7proxies11proxy_legldINtB6_25SalsaContractProxyMethodsppppE21register_liquid_tokenpppEBa_
FNDA:0,_RNvMs1_NtNtCshiqmisuHlyH_12lending_pool7proxies11proxy_legldINtB5_25SalsaContractProxyMethodsppppE15liquid_token_idB9_
FNDA:0,_RNvMs1_NtNtCshiqmisuHlyH_12lending_pool7proxies11proxy_legldINtB5_25SalsaContractProxyMethodsppppE19liquid_token_supplyB9_
FNDA:0,_RNvMs1_NtNtCshiqmisuHlyH_12lending_pool7proxies11proxy_legldINtB5_25SalsaContractProxyMethodsppppE16set_state_activeB9_
FNDA:0,_RNvMs1_NtNtCshiqmisuHlyH_12lending_pool7proxies11proxy_legldINtB5_25SalsaContractProxyMethodsppppE18set_state_inactiveB9_
FNDA:0,_RNvMs1_NtNtCshiqmisuHlyH_12lending_pool7proxies11proxy_legldINtB5_25SalsaContractProxyMethodsppppE5stateB9_
FNDA:0,_RNvMs1_NtNtCshiqmisuHlyH_12lending_pool7proxies11proxy_legldINtB5_25SalsaContractProxyMethodsppppE13unbond_periodB9_
FNDA:0,_RINvMs1_NtNtCshiqmisuHlyH_12lending_pool7proxies11proxy_legldINtB6_25SalsaContractProxyMethodsppppE17set_unbond_periodpEBa_
FNDA:0,_RNvMs1_NtNtCshiqmisuHlyH_12lending_pool7proxies11proxy_legldINtB5_25SalsaContractProxyMethodsppppE11service_feeB9_
FNDA:0,_RINvMs1_NtNtCshiqmisuHlyH_12lending_pool7proxies11proxy_legldINtB6_25SalsaContractProxyMethodsppppE15set_service_feepEBa_
FNDA:0,_RNvMs1_NtNtCshiqmisuHlyH_12lending_pool7proxies11proxy_legldINtB5_25SalsaContractProxyMethodsppppE16max_provider_feeB9_
FNDA:0,_RINvMs1_NtNtCshiqmisuHlyH_12lending_pool7proxies11proxy_legldINtB6_25SalsaContractProxyMethodsppppE20set_max_provider_feepEBa_
FNDA:0,_RINvMs1_NtNtCshiqmisuHlyH_12lending_pool7proxies11proxy_legldINtB6_25SalsaContractProxyMethodsppppE19luser_undelegationspEBa_
FNDA:0,_RNvMs1_NtNtCshiqmisuHlyH_12lending_pool7proxies11proxy_legldINtB5_25SalsaContractProxyMethodsppppE17total_egld_stakedB9_
FNDA:0,_RNvMs1_NtNtCshiqmisuHlyH_12lending_pool7proxies11proxy_legldINtB5_25SalsaContractProxyMethodsppppE19user_withdrawn_egldB9_
FNDA:0,_RNvMs1_NtNtCshiqmisuHlyH_12lending_pool7proxies11proxy_legldINtB5_25SalsaContractProxyMethodsppppE20total_withdrawn_egldB9_
FNDA:0,_RNvMs1_NtNtCshiqmisuHlyH_12lending_pool7proxies11proxy_legldINtB5_25SalsaContractProxyMethodsppppE25ltotal_user_undelegationsB9_
FNDA:0,_RNvMs1_NtNtCshiqmisuHlyH_12lending_pool7proxies11proxy_legldINtB5_25SalsaContractProxyMethodsppppE12egld_reserveB9_
FNDA:0,_RNvMs1_NtNtCshiqmisuHlyH_12lending_pool7proxies11proxy_legldINtB5_25SalsaContractProxyMethodsppppE14reserve_pointsB9_
FNDA:0,_RNvMs1_NtNtCshiqmisuHlyH_12lending_pool7proxies11proxy_legldINtB5_25SalsaContractProxyMethodsppppE22available_egld_reserveB9_
FNDA:0,_RNvMs1_NtNtCshiqmisuHlyH_12lending_pool7proxies11proxy_legldINtB5_25SalsaContractProxyMethodsppppE22lreserve_undelegationsB9_
FNDA:0,_RINvMs1_NtNtCshiqmisuHlyH_12lending_pool7proxies11proxy_legldINtB6_25SalsaContractProxyMethodsppppE20users_reserve_pointspEBa_
FNDA:0,_RINvMs1_NtNtCshiqmisuHlyH_12lending_pool7proxies11proxy_legldINtB6_25SalsaContractProxyMethodsppppE22set_undelegate_now_feepEBa_
FNDA:0,_RNvMs1_NtNtCshiqmisuHlyH_12lending_pool7proxies11proxy_legldINtB5_25SalsaContractProxyMethodsppppE18undelegate_now_feeB9_
FNDA:0,_RINvMs1_NtNtCshiqmisuHlyH_12lending_pool7proxies11proxy_legldINtB6_25SalsaContractProxyMethodsppppE25get_reserve_points_amountpEBa_
FNDA:0,_RINvMs1_NtNtCshiqmisuHlyH_12lending_pool7proxies11proxy_legldINtB6_25SalsaContractProxyMethodsppppE23get_reserve_egld_amountpEBa_
FNDA:0,_RINvMs1_NtNtCshiqmisuHlyH_12lending_pool7proxies11proxy_legldINtB6_25SalsaContractProxyMethodsppppE16get_user_reservepEBa_
FNDA:0,_RNvMs1_NtNtCshiqmisuHlyH_12lending_pool7proxies11proxy_legldINtB5_25SalsaContractProxyMethodsppppE11token_priceB9_
FNDA:0,_RINvMs1_NtNtCshiqmisuHlyH_12lending_pool7proxies11proxy_legldINtB6_25SalsaContractProxyMethodsppppE21view_provider_updatedpEBa_
FNDA:0,_RNvMs1_NtNtCshiqmisuHlyH_12lending_pool7proxies11proxy_legldINtB5_25SalsaContractProxyMethodsppppE22view_providers_updatedB9_
FNDA:0,_RINvMs1_NtNtCshiqmisuHlyH_12lending_pool7proxies11proxy_legldINtB6_25SalsaContractProxyMethodsppppE11set_wrap_scpEBa_
FNDA:0,_RNvMs1_NtNtCshiqmisuHlyH_12lending_pool7proxies11proxy_legldINtB5_25SalsaContractProxyMethodsppppE16legld_in_custodyB9_
FNDA:0,_RINvMs1_NtNtCshiqmisuHlyH_12lending_pool7proxies11proxy_legldINtB6_25SalsaContractProxyMethodsppppE15user_delegationpEBa_
FNDA:0,_RINvMs1_NtNtCshiqmisuHlyH_12lending_pool7proxies11proxy_legldINtB6_25SalsaContractProxyMethodsppppE12knight_userspEBa_
FNDA:0,_RINvMs1_NtNtCshiqmisuHlyH_12lending_pool7proxies11proxy_legldINtB6_25SalsaContractProxyMethodsppppE9user_heirpEBa_
FNDA:0,_RINvMs1_NtNtCshiqmisuHlyH_12lending_pool7proxies11proxy_legldINtB6_25SalsaContractProxyMethodsppppE10heir_userspEBa_
FNDA:0,_RNvMs1_NtNtCshiqmisuHlyH_12lending_pool7proxies11proxy_legldINtB5_25SalsaContractProxyMethodsppppE12delegate_allB9_
FNDA:0,_RNvMs1_NtNtCshiqmisuHlyH_12lending_pool7proxies11proxy_legldINtB5_25SalsaContractProxyMethodsppppE14undelegate_allB9_
FNDA:0,_RNvMs1_NtNtCshiqmisuHlyH_12lending_pool7proxies11proxy_legldINtB5_25SalsaContractProxyMethodsppppE13claim_rewardsB9_
FNDA:0,_RINvMs1_NtNtCshiqmisuHlyH_12lending_pool7proxies11proxy_legldINtB6_25SalsaContractProxyMethodsppppE12withdraw_allppEBa_
FNDA:0,_RNvMs1_NtNtCshiqmisuHlyH_12lending_pool7proxies11proxy_legldINtB5_25SalsaContractProxyMethodsppppE17compute_withdrawnB9_
FNDA:0,_RNvMs1_NtNtCshiqmisuHlyH_12lending_pool7proxies11proxy_legldINtB5_25SalsaContractProxyMethodsppppE20set_arbitrage_activeB9_
FNDA:0,_RNvMs1_NtNtCshiqmisuHlyH_12lending_pool7proxies11proxy_legldINtB5_25SalsaContractProxyMethodsppppE22set_arbitrage_inactiveB9_
FNDA:0,_RNvMs1_NtNtCshiqmisuHlyH_12lending_pool7proxies11proxy_legldINtB5_25SalsaContractProxyMethodsppppE9arbitrageB9_
FNDA:0,_RNvMs1_NtNtCshiqmisuHlyH_12lending_pool7proxies11proxy_legldINtB5_25SalsaContractProxyMethodsppppE17trigger_arbitrageB9_
FNDA:0,_RNvMs1_NtNtCshiqmisuHlyH_12lending_pool7proxies11proxy_legldINtB5_25SalsaContractProxyMethodsppppE27set_onedex_arbitrage_activeB9_
FNDA:0,_RNvMs1_NtNtCshiqmisuHlyH_12lending_pool7proxies11proxy_legldINtB5_25SalsaContractProxyMethodsppppE29set_onedex_arbitrage_inactiveB9_
FNDA:0,_RNvMs1_NtNtCshiqmisuHlyH_12lending_pool7proxies11proxy_legldINtB5_25SalsaContractProxyMethodsppppE16onedex_arbitrageB9_
FNDA:0,_RINvMs1_NtNtCshiqmisuHlyH_12lending_pool7proxies11proxy_legldINtB6_25SalsaContractProxyMethodsppppE13set_onedex_scpEBa_
FNDA:0,_RINvMs1_NtNtCshiqmisuHlyH_12lending_pool7proxies11proxy_legldINtB6_25SalsaContractProxyMethodsppppE18set_onedex_pair_idpEBa_
FNDA:0,_RNvMs1_NtNtCshiqmisuHlyH_12lending_pool7proxies11proxy_legldINtB5_25SalsaContractProxyMethodsppppE30set_xexchange_arbitrage_activeB9_
FNDA:0,_RNvMs1_NtNtCshiqmisuHlyH_12lending_pool7proxies11proxy_legldINtB5_25SalsaContractProxyMethodsppppE32set_xexchange_arbitrage_inactiveB9_
FNDA:0,_RNvMs1_NtNtCshiqmisuHlyH_12lending_pool7proxies11proxy_legldINtB5_25SalsaContractProxyMethodsppppE19xexchange_arbitrageB9_
FNDA:0,_RINvMs1_NtNtCshiqmisuHlyH_12lending_pool7proxies11proxy_legldINtB6_25SalsaContractProxyMethodsppppE16set_xexchange_scpEBa_
FNDA:0,_RINvMs1_NtNtCshiqmisuHlyH_12lending_pool7proxies11proxy_legldINtB6_25SalsaContractProxyMethodsppppE10set_knightpEBa_
FNDA:0,_RNvMs1_NtNtCshiqmisuHlyH_12lending_pool7proxies11proxy_legldINtB5_25SalsaContractProxyMethodsppppE13cancel_knightB9_
FNDA:0,_RNvMs1_NtNtCshiqmisuHlyH_12lending_pool7proxies11proxy_legldINtB5_25SalsaContractProxyMethodsppppE15activate_knightB9_
FNDA:0,_RINvMs1_NtNtCshiqmisuHlyH_12lending_pool7proxies11proxy_legldINtB6_25SalsaContractProxyMethodsppppE17deactivate_knightpEBa_
FNDA:0,_RINvMs1_NtNtCshiqmisuHlyH_12lending_pool7proxies11proxy_legldINtB6_25SalsaContractProxyMethodsppppE14confirm_knightpEBa_
FNDA:0,_RINvMs1_NtNtCshiqmisuHlyH_12lending_pool7proxies11proxy_legldINtB6_25SalsaContractProxyMethodsppppE13remove_knightpEBa_
FNDA:0,_RINvMs1_NtNtCshiqmisuHlyH_12lending_pool7proxies11proxy_legldINtB6_25SalsaContractProxyMethodsppppE8set_heirppEBa_
FNDA:0,_RNvMs1_NtNtCshiqmisuHlyH_12lending_pool7proxies11proxy_legldINtB5_25SalsaContractProxyMethodsppppE11cancel_heirB9_
FNDA:0,_RINvMs1_NtNtCshiqmisuHlyH_12lending_pool7proxies11proxy_legldINtB6_25SalsaContractProxyMethodsppppE11remove_heirpEBa_
FNDA:0,_RNvMs1_NtNtCshiqmisuHlyH_12lending_pool7proxies11proxy_legldINtB5_25SalsaContractProxyMethodsppppE20update_last_accessedB9_
FNDA:0,_RINvMs1_NtNtCshiqmisuHlyH_12lending_pool7proxies11proxy_legldINtB6_25SalsaContractProxyMethodsppppE12add_providerpEBa_
FNDA:0,_RINvMs1_NtNtCshiqmisuHlyH_12lending_pool7proxies11proxy_legldINtB6_25SalsaContractProxyMethodsppppE16refresh_providerpEBa_
FNDA:0,_RINvMs1_NtNtCshiqmisuHlyH_12lending_pool7proxies11proxy_legldINtB6_25SalsaContractProxyMethodsppppE15remove_providerpEBa_
FNDA:0,_RINvMs1_NtNtCshiqmisuHlyH_12lending_pool7proxies11proxy_legldINtB6_25SalsaContractProxyMethodsppppE18set_provider_stateppEBa_
FNDA:0,_RNvMs1_NtNtCshiqmisuHlyH_12lending_pool7proxies11proxy_legldINtB5_25SalsaContractProxyMethodsppppE17refresh_providersB9_
FNDA:0,_RINvXs5_NtNtCshiqmisuHlyH_12lending_pool7proxies11proxy_legldNtB6_5StateNtNtNtCs5SUGlJDgeoS_19multiversx_sc_codec6single6top_en9TopEncode24top_encode_or_handle_errppEBa_
FNDA:0,_RINvXs6_NtNtCshiqmisuHlyH_12lending_pool7proxies11proxy_legldNtB6_5StateNtNtNtCs5SUGlJDgeoS_19multiversx_sc_codec6single6top_de9TopDecode24top_decode_or_handle_errppEBa_
FNDA:0,_RNvXs4_NtNtCshiqmisuHlyH_12lending_pool7proxies11proxy_legldNtB5_5StateNtNtNtCslPMlHj3qn2H_13multiversx_sc3abi8type_abi7TypeAbi9type_name
FNDA:0,_RINvXs4_NtNtCshiqmisuHlyH_12lending_pool7proxies11proxy_legldNtB6_5StateNtNtNtCslPMlHj3qn2H_13multiversx_sc3abi8type_abi7TypeAbi25provide_type_descriptionspEBa_
FNDA:0,_RINvXININtNtCshiqmisuHlyH_12lending_pool7proxies11proxy_legldsa_0pEINtB6_12UndelegationpENtNtNtCs5SUGlJDgeoS_19multiversx_sc_codec6single6top_en9TopEncode24top_encode_or_handle_errppEBa_
FNDA:0,_RINvXININtNtCshiqmisuHlyH_12lending_pool7proxies11proxy_legldsb_0pEINtB6_12UndelegationpENtNtNtCs5SUGlJDgeoS_19multiversx_sc_codec6single6top_de9TopDecode24top_decode_or_handle_errppEBa_
FNDA:0,_RNvXININtNtCshiqmisuHlyH_12lending_pool7proxies11proxy_leglds9_0pEINtB5_12UndelegationpENtNtNtCslPMlHj3qn2H_13multiversx_sc3abi8type_abi7TypeAbi9type_nameB9_
FNDA:0,_RINvXININtNtCshiqmisuHlyH_12lending_pool7proxies11proxy_leglds9_0pEINtB6_12UndelegationpENtNtNtCslPMlHj3qn2H_13multiversx_sc3abi8type_abi7TypeAbi25provide_type_descriptionspEBa_
FNDA:0,_RINvXsf_NtNtCshiqmisuHlyH_12lending_pool7proxies11proxy_legldNtB6_11KnightStateNtNtNtCs5SUGlJDgeoS_19multiversx_sc_codec6single6top_en9TopEncode24top_encode_or_handle_errppEBa_
FNDA:0,_RINvXsg_NtNtCshiqmisuHlyH_12lending_pool7proxies11proxy_legldNtB6_11KnightStateNtNtNtCs5SUGlJDgeoS_19multiversx_sc_codec6single6top_de9TopDecode24top_decode_or_handle_errppEBa_
FNDA:0,_RNvXse_NtNtCshiqmisuHlyH_12lending_pool7proxies11proxy_legldNtB5_11KnightStateNtNtNtCslPMlHj3qn2H_13multiversx_sc3abi8type_abi7TypeAbi9type_name
FNDA:0,_RINvXse_NtNtCshiqmisuHlyH_12lending_pool7proxies11proxy_legldNtB6_11KnightStateNtNtNtCslPMlHj3qn2H_13multiversx_sc3abi8type_abi7TypeAbi25provide_type_descriptionspEBa_
FNDA:0,_RINvXININtNtCshiqmisuHlyH_12lending_pool7proxies11proxy_legldsk_0pEINtB6_4HeirpENtNtNtCs5SUGlJDgeoS_19multiversx_sc_codec6single6top_en9TopEncode24top_encode_or_handle_errppEBa_
FNDA:0,_RINvXININtNtCshiqmisuHlyH_12lending_pool7proxies11proxy_legldsl_0pEINtB6_4HeirpENtNtNtCs5SUGlJDgeoS_19multiversx_sc_codec6single6top_de9TopDecode24top_decode_or_handle_errppEBa_
FNDA:0,_RNvXININtNtCshiqmisuHlyH_12lending_pool7proxies11proxy_legldsj_0pEINtB5_4HeirpENtNtNtCslPMlHj3qn2H_13multiversx_sc3abi8type_abi7TypeAbi9type_nameB9_
FNDA:0,_RINvXININtNtCshiqmisuHlyH_12lending_pool7proxies11proxy_legldsj_0pEINtB6_4HeirpENtNtNtCslPMlHj3qn2H_13multiversx_sc3abi8type_abi7TypeAbi25provide_type_descriptionspEBa_
FNDA:0,_RNvMs1_NtNtCs48qTgYy1n57_12lending_pool7proxies11proxy_legldINtB5_25SalsaContractProxyMethodsINtNtNtNtNtCslPMlHj3qn2H_13multiversx_sc5types11interaction7tx_exec9tx_env_sc7TxScEnvINtNtNtNtCs1rODQd5oASQ_22multiversx_sc_scenario3api7impl_vh12vm_hooks_api10VMHooksApiNtNtB2V_9debug_api15DebugApiBackendEEuRINtNtNtNtB1C_7managed7wrapped15managed_address14ManagedAddressB2Q_EuE11token_priceCs8iyf5MSkCde_5tests
FNDA:0,_RNvXNtNtCs48qTgYy1n57_12lending_pool7proxies11proxy_legldNtB2_18SalsaContractProxyINtNtNtNtCslPMlHj3qn2H_13multiversx_sc5types11interaction8tx_proxy12TxProxyTraitINtNtNtB1n_7tx_exec9tx_env_sc7TxScEnvINtNtNtNtCs1rODQd5oASQ_22multiversx_sc_scenario3api7impl_vh12vm_hooks_api10VMHooksApiNtNtB3g_9debug_api15DebugApiBackendEEuRINtNtNtNtB1p_7managed7wrapped15managed_address14ManagedAddressB3b_EuE13proxy_methodsCs8iyf5MSkCde_5tests
FNF:101
FNH:0
DA:23,0
DA:24,0
DA:25,0
DA:46,0
DA:47,0
DA:48,0
DA:49,0
DA:50,0
DA:51,0
DA:52,0
DA:53,0
DA:65,0
DA:66,0
DA:67,0
DA:68,0
DA:69,0
DA:70,0
DA:71,0
DA:72,0
DA:85,0
DA:86,0
DA:87,0
DA:88,0
DA:89,0
DA:90,0
DA:91,0
DA:92,0
DA:93,0
DA:94,0
DA:95,0
DA:96,0
DA:97,0
DA:98,0
DA:101,0
DA:102,0
DA:103,0
DA:104,0
DA:105,0
DA:106,0
DA:107,0
DA:108,0
DA:109,0
DA:110,0
DA:111,0
DA:112,0
DA:113,0
DA:114,0
DA:117,0
DA:118,0
DA:119,0
DA:120,0
DA:121,0
DA:122,0
DA:123,0
DA:124,0
DA:127,0
DA:128,0
DA:129,0
DA:130,0
DA:131,0
DA:132,0
DA:133,0
DA:134,0
DA:135,0
DA:136,0
DA:137,0
DA:140,0
DA:141,0
DA:142,0
DA:143,0
DA:144,0
DA:145,0
DA:146,0
DA:147,0
DA:148,0
DA:149,0
DA:150,0
DA:151,0
DA:152,0
DA:153,0
DA:154,0
DA:157,0
DA:158,0
DA:159,0
DA:160,0
DA:161,0
DA:162,0
DA:163,0
DA:164,0
DA:165,0
DA:166,0
DA:167,0
DA:170,0
DA:171,0
DA:172,0
DA:173,0
DA:174,0
DA:175,0
DA:176,0
DA:177,0
DA:178,0
DA:179,0
DA:180,0
DA:181,0
DA:182,0
DA:183,0
DA:184,0
DA:187,0
DA:188,0
DA:189,0
DA:190,0
DA:191,0
DA:192,0
DA:193,0
DA:194,0
DA:195,0
DA:196,0
DA:197,0
DA:198,0
DA:199,0
DA:200,0
DA:201,0
DA:202,0
DA:203,0
DA:205,0
DA:206,0
DA:207,0
DA:208,0
DA:209,0
DA:210,0
DA:211,0
DA:212,0
DA:213,0
DA:214,0
DA:215,0
DA:216,0
DA:217,0
DA:218,0
DA:219,0
DA:220,0
DA:221,0
DA:222,0
DA:225,0
DA:226,0
DA:227,0
DA:228,0
DA:229,0
DA:230,0
DA:231,0
DA:232,0
DA:233,0
DA:234,0
DA:235,0
DA:236,0
DA:237,0
DA:238,0
DA:239,0
DA:240,0
DA:241,0
DA:242,0
DA:243,0
DA:244,0
DA:245,0
DA:248,0
DA:249,0
DA:250,0
DA:251,0
DA:252,0
DA:253,0
DA:254,0
DA:255,0
DA:256,0
DA:257,0
DA:258,0
DA:259,0
DA:262,0
DA:263,0
DA:264,0
DA:265,0
DA:266,0
DA:267,0
DA:268,0
DA:269,0
DA:270,0
DA:271,0
DA:272,0
DA:273,0
DA:274,0
DA:275,0
DA:276,0
DA:277,0
DA:278,0
DA:279,0
DA:282,0
DA:283,0
DA:284,0
DA:285,0
DA:286,0
DA:287,0
DA:288,0
DA:289,0
DA:290,0
DA:291,0
DA:292,0
DA:293,0
DA:294,0
DA:295,0
DA:296,0
DA:297,0
DA:298,0
DA:299,0
DA:302,0
DA:303,0
DA:304,0
DA:305,0
DA:306,0
DA:307,0
DA:308,0
DA:309,0
DA:310,0
DA:311,0
DA:312,0
DA:313,0
DA:314,0
DA:315,0
DA:316,0
DA:317,0
DA:318,0
DA:319,0
DA:320,0
DA:321,0
DA:322,0
DA:325,0
DA:326,0
DA:327,0
DA:328,0
DA:329,0
DA:330,0
DA:331,0
DA:332,0
DA:333,0
DA:334,0
DA:335,0
DA:336,0
DA:339,0
DA:340,0
DA:341,0
DA:342,0
DA:343,0
DA:344,0
DA:345,0
DA:346,0
DA:347,0
DA:348,0
DA:349,0
DA:350,0
DA:351,0
DA:352,0
DA:353,0
DA:354,0
DA:355,0
DA:356,0
DA:359,0
DA:360,0
DA:361,0
DA:362,0
DA:363,0
DA:364,0
DA:365,0
DA:366,0
DA:368,0
DA:369,0
DA:370,0
DA:371,0
DA:372,0
DA:373,0
DA:374,0
DA:375,0
DA:376,0
DA:377,0
DA:378,0
DA:379,0
DA:380,0
DA:381,0
DA:382,0
DA:383,0
DA:384,0
DA:386,0
DA:387,0
DA:388,0
DA:389,0
DA:390,0
DA:391,0
DA:392,0
DA:393,0
DA:395,0
DA:396,0
DA:397,0
DA:398,0
DA:399,0
DA:400,0
DA:401,0
DA:402,0
DA:404,0
DA:405,0
DA:406,0
DA:407,0
DA:408,0
DA:409,0
DA:410,0
DA:411,0
DA:413,0
DA:414,0
DA:415,0
DA:416,0
DA:417,0
DA:418,0
DA:419,0
DA:420,0
DA:422,0
DA:423,0
DA:424,0
DA:425,0
DA:426,0
DA:427,0
DA:428,0
DA:429,0
DA:431,0
DA:432,0
DA:433,0
DA:434,0
DA:435,0
DA:436,0
DA:437,0
DA:438,0
DA:440,0
DA:441,0
DA:442,0
DA:443,0
DA:444,0
DA:445,0
DA:446,0
DA:447,0
DA:448,0
DA:449,0
DA:450,0
DA:451,0
DA:453,0
DA:454,0
DA:455,0
DA:456,0
DA:457,0
DA:458,0
DA:459,0
DA:460,0
DA:462,0
DA:463,0
DA:464,0
DA:465,0
DA:466,0
DA:467,0
DA:468,0
DA:469,0
DA:470,0
DA:471,0
DA:472,0
DA:473,0
DA:475,0
DA:476,0
DA:477,0
DA:478,0
DA:479,0
DA:480,0
DA:481,0
DA:482,0
DA:484,0
DA:485,0
DA:486,0
DA:487,0
DA:488,0
DA:489,0
DA:490,0
DA:491,0
DA:492,0
DA:493,0
DA:494,0
DA:495,0
DA:497,0
DA:498,0
DA:499,0
DA:500,0
DA:501,0
DA:502,0
DA:503,0
DA:504,0
DA:505,0
DA:506,0
DA:507,0
DA:508,0
DA:510,0
DA:511,0
DA:512,0
DA:513,0
DA:514,0
DA:515,0
DA:516,0
DA:517,0
DA:519,0
DA:520,0
DA:521,0
DA:522,0
DA:523,0
DA:524,0
DA:525,0
DA:526,0
DA:528,0
DA:529,0
DA:530,0
DA:531,0
DA:532,0
DA:533,0
DA:534,0
DA:535,0
DA:537,0
DA:538,0
DA:539,0
DA:540,0
DA:541,0
DA:542,0
DA:543,0
DA:544,0
DA:546,0
DA:547,0
DA:548,0
DA:549,0
DA:550,0
DA:551,0
DA:552,0
DA:553,0
DA:555,0
DA:556,0
DA:557,0
DA:558,0
DA:559,0
DA:560,0
DA:561,0
DA:562,0
DA:564,0
DA:565,0
DA:566,0
DA:567,0
DA:568,0
DA:569,0
DA:570,0
DA:571,0
DA:573,0
DA:574,0
DA:575,0
DA:576,0
DA:577,0
DA:578,0
DA:579,0
DA:580,0
DA:582,0
DA:583,0
DA:584,0
DA:585,0
DA:586,0
DA:587,0
DA:588,0
DA:589,0
DA:590,0
DA:591,0
DA:592,0
DA:593,0
DA:595,0
DA:596,0
DA:597,0
DA:598,0
DA:599,0
DA:600,0
DA:601,0
DA:602,0
DA:603,0
DA:604,0
DA:605,0
DA:606,0
DA:608,0
DA:609,0
DA:610,0
DA:611,0
DA:612,0
DA:613,0
DA:614,0
DA:615,0
DA:617,0
DA:618,0
DA:619,0
DA:620,0
DA:621,0
DA:622,0
DA:623,0
DA:624,0
DA:625,0
DA:626,0
DA:627,0
DA:628,0
DA:630,0
DA:631,0
DA:632,0
DA:633,0
DA:634,0
DA:635,0
DA:636,0
DA:637,0
DA:638,0
DA:639,0
DA:640,0
DA:641,0
DA:643,0
DA:644,0
DA:645,0
DA:646,0
DA:647,0
DA:648,0
DA:649,0
DA:650,0
DA:651,0
DA:652,0
DA:653,0
DA:654,0
DA:656,0
DA:657,0
DA:658,0
DA:659,0
DA:660,0
DA:661,0
