SF:/Users/mihaieremia/GitHub/rs-lending/common/events/src/events.rs
FN:7,_RNvXCs3rOA4D9qoaG_13common_eventsINtCs48qTgYy1n57_12lending_pool11ContractObjINtNtNtNtCs1rODQd5oASQ_22multiversx_sc_scenario3api7impl_vh12vm_hooks_api10VMHooksApiNtNtB1i_9debug_api15DebugApiBackendEENtB2_12EventsModule21update_position_eventCs8iyf5MSkCde_5tests
FN:7,_RNvXCs3rOA4D9qoaG_13common_eventsINtCs48qTgYy1n57_12lending_pool11ContractObjINtNtNtNtCs1rODQd5oASQ_22multiversx_sc_scenario3api7impl_vh12vm_hooks_api10VMHooksApiNtNtB1i_9debug_api15DebugApiBackendEENtB2_12EventsModule25update_asset_config_eventCs8iyf5MSkCde_5tests
FN:7,_RNvXCs3rOA4D9qoaG_13common_eventsINtCs48qTgYy1n57_12lending_pool11ContractObjINtNtNtNtCs1rODQd5oASQ_22multiversx_sc_scenario3api7impl_vh12vm_hooks_api10VMHooksApiNtNtB1i_9debug_api15DebugApiBackendEENtB2_12EventsModule25update_debt_ceiling_eventCs8iyf5MSkCde_5tests
FN:7,_RNvXCs3rOA4D9qoaG_13common_eventsINtCs48qTgYy1n57_12lending_pool11ContractObjINtNtNtNtCs1rODQd5oASQ_22multiversx_sc_scenario3api7impl_vh12vm_hooks_api10VMHooksApiNtNtB1i_9debug_api15DebugApiBackendEENtB2_12EventsModule25update_e_mode_asset_eventCs8iyf5MSkCde_5tests
FN:7,_RNvXCs3rOA4D9qoaG_13common_eventsINtCs48qTgYy1n57_12lending_pool11ContractObjINtNtNtNtCs1rODQd5oASQ_22multiversx_sc_scenario3api7impl_vh12vm_hooks_api10VMHooksApiNtNtB1i_9debug_api15DebugApiBackendEENtB2_12EventsModule26create_market_params_eventCs8iyf5MSkCde_5tests
FN:7,_RNvXCs3rOA4D9qoaG_13common_eventsINtCs48qTgYy1n57_12lending_pool11ContractObjINtNtNtNtCs1rODQd5oASQ_22multiversx_sc_scenario3api7impl_vh12vm_hooks_api10VMHooksApiNtNtB1i_9debug_api15DebugApiBackendEENtB2_12EventsModule28update_e_mode_category_eventCs8iyf5MSkCde_5tests
FN:7,_RNvXCs3rOA4D9qoaG_13common_eventsINtCs48qTgYy1n57_12lending_pool11ContractObjINtNtNtNtCs1rODQd5oASQ_22multiversx_sc_scenario3api7impl_vh12vm_hooks_api10VMHooksApiNtNtB1i_9debug_api15DebugApiBackendEENtB2_12EventsModule34update_vault_supplied_amount_eventCs8iyf5MSkCde_5tests
FN:7,_RNvYINtCs48qTgYy1n57_12lending_pool11ContractObjINtNtNtNtCs1rODQd5oASQ_22multiversx_sc_scenario3api7impl_vh12vm_hooks_api10VMHooksApiNtNtBP_9debug_api15DebugApiBackendEENtCs3rOA4D9qoaG_13common_events16EndpointWrappers17callback_selectorCs8iyf5MSkCde_5tests
FN:7,_RNvYINtCs48qTgYy1n57_12lending_pool11ContractObjINtNtNtNtCs1rODQd5oASQ_22multiversx_sc_scenario3api7impl_vh12vm_hooks_api10VMHooksApiNtNtBP_9debug_api15DebugApiBackendEENtCs3rOA4D9qoaG_13common_events16EndpointWrappers4callCs8iyf5MSkCde_5tests
FN:7,_RNvYINtCs48qTgYy1n57_12lending_pool11ContractObjINtNtNtNtCs1rODQd5oASQ_22multiversx_sc_scenario3api7impl_vh12vm_hooks_api10VMHooksApiNtNtBP_9debug_api15DebugApiBackendEENtCs3rOA4D9qoaG_13common_events16EndpointWrappers8callbackCs8iyf5MSkCde_5tests
FN:7,_RNvXCs3rOA4D9qoaG_13common_eventsINtCsbsTB6V03K8e_14liquidity_pool11ContractObjINtNtNtNtCs1rODQd5oASQ_22multiversx_sc_scenario3api7impl_vh12vm_hooks_api10VMHooksApiNtNtB1k_9debug_api15DebugApiBackendEENtB2_12EventsModule19market_params_eventCs8iyf5MSkCde_5tests
FN:7,_RNvXCs3rOA4D9qoaG_13common_eventsINtCsbsTB6V03K8e_14liquidity_pool11ContractObjINtNtNtNtCs1rODQd5oASQ_22multiversx_sc_scenario3api7impl_vh12vm_hooks_api10VMHooksApiNtNtB1k_9debug_api15DebugApiBackendEENtB2_12EventsModule31__emit_update_market_state_eventCs8iyf5MSkCde_5tests
FN:46,_RNvYINtCsbsTB6V03K8e_14liquidity_pool11ContractObjINtNtNtNtCs1rODQd5oASQ_22multiversx_sc_scenario3api7impl_vh12vm_hooks_api10VMHooksApiNtNtBR_9debug_api15DebugApiBackendEENtCs3rOA4D9qoaG_13common_events12EventsModule25update_market_state_eventCs8iyf5MSkCde_5tests
FN:7,_RNvYINtCsbsTB6V03K8e_14liquidity_pool11ContractObjINtNtNtNtCs1rODQd5oASQ_22multiversx_sc_scenario3api7impl_vh12vm_hooks_api10VMHooksApiNtNtBR_9debug_api15DebugApiBackendEENtCs3rOA4D9qoaG_13common_events16EndpointWrappers17callback_selectorCs8iyf5MSkCde_5tests
FN:7,_RNvYINtCsbsTB6V03K8e_14liquidity_pool11ContractObjINtNtNtNtCs1rODQd5oASQ_22multiversx_sc_scenario3api7impl_vh12vm_hooks_api10VMHooksApiNtNtBR_9debug_api15DebugApiBackendEENtCs3rOA4D9qoaG_13common_events16EndpointWrappers4callCs8iyf5MSkCde_5tests
FN:7,_RNvYINtCsbsTB6V03K8e_14liquidity_pool11ContractObjINtNtNtNtCs1rODQd5oASQ_22multiversx_sc_scenario3api7impl_vh12vm_hooks_api10VMHooksApiNtNtBR_9debug_api15DebugApiBackendEENtCs3rOA4D9qoaG_13common_events16EndpointWrappers8callbackCs8iyf5MSkCde_5tests
FNDA:893,_RNvXCs3rOA4D9qoaG_13common_eventsINtCs48qTgYy1n57_12lending_pool11ContractObjINtNtNtNtCs1rODQd5oASQ_22multiversx_sc_scenario3api7impl_vh12vm_hooks_api10VMHooksApiNtNtB1i_9debug_api15DebugApiBackendEENtB2_12EventsModule21update_position_eventCs8iyf5MSkCde_5tests
FNDA:192,_RNvXCs3rOA4D9qoaG_13common_eventsINtCs48qTgYy1n57_12lending_pool11ContractObjINtNtNtNtCs1rODQd5oASQ_22multiversx_sc_scenario3api7impl_vh12vm_hooks_api10VMHooksApiNtNtB1i_9debug_api15DebugApiBackendEENtB2_12EventsModule25update_asset_config_eventCs8iyf5MSkCde_5tests
FNDA:7,_RNvXCs3rOA4D9qoaG_13common_eventsINtCs48qTgYy1n57_12lending_pool11ContractObjINtNtNtNtCs1rODQd5oASQ_22multiversx_sc_scenario3api7impl_vh12vm_hooks_api10VMHooksApiNtNtB1i_9debug_api15DebugApiBackendEENtB2_12EventsModule25update_debt_ceiling_eventCs8iyf5MSkCde_5tests
FNDA:192,_RNvXCs3rOA4D9qoaG_13common_eventsINtCs48qTgYy1n57_12lending_pool11ContractObjINtNtNtNtCs1rODQd5oASQ_22multiversx_sc_scenario3api7impl_vh12vm_hooks_api10VMHooksApiNtNtB1i_9debug_api15DebugApiBackendEENtB2_12EventsModule25update_e_mode_asset_eventCs8iyf5MSkCde_5tests
FNDA:480,_RNvXCs3rOA4D9qoaG_13common_eventsINtCs48qTgYy1n57_12lending_pool11ContractObjINtNtNtNtCs1rODQd5oASQ_22multiversx_sc_scenario3api7impl_vh12vm_hooks_api10VMHooksApiNtNtB1i_9debug_api15DebugApiBackendEENtB2_12EventsModule26create_market_params_eventCs8iyf5MSkCde_5tests
FNDA:48,_RNvXCs3rOA4D9qoaG_13common_eventsINtCs48qTgYy1n57_12lending_pool11ContractObjINtNtNtNtCs1rODQd5oASQ_22multiversx_sc_scenario3api7impl_vh12vm_hooks_api10VMHooksApiNtNtB1i_9debug_api15DebugApiBackendEENtB2_12EventsModule28update_e_mode_category_eventCs8iyf5MSkCde_5tests
FNDA:16,_RNvXCs3rOA4D9qoaG_13common_eventsINtCs48qTgYy1n57_12lending_pool11ContractObjINtNtNtNtCs1rODQd5oASQ_22multiversx_sc_scenario3api7impl_vh12vm_hooks_api10VMHooksApiNtNtB1i_9debug_api15DebugApiBackendEENtB2_12EventsModule34update_vault_supplied_amount_eventCs8iyf5MSkCde_5tests
FNDA:0,_RNvYINtCs48qTgYy1n57_12lending_pool11ContractObjINtNtNtNtCs1rODQd5oASQ_22multiversx_sc_scenario3api7impl_vh12vm_hooks_api10VMHooksApiNtNtBP_9debug_api15DebugApiBackendEENtCs3rOA4D9qoaG_13common_events16EndpointWrappers17callback_selectorCs8iyf5MSkCde_5tests
FNDA:6315,_RNvYINtCs48qTgYy1n57_12lending_pool11ContractObjINtNtNtNtCs1rODQd5oASQ_22multiversx_sc_scenario3api7impl_vh12vm_hooks_api10VMHooksApiNtNtBP_9debug_api15DebugApiBackendEENtCs3rOA4D9qoaG_13common_events16EndpointWrappers4callCs8iyf5MSkCde_5tests
FNDA:0,_RNvYINtCs48qTgYy1n57_12lending_pool11ContractObjINtNtNtNtCs1rODQd5oASQ_22multiversx_sc_scenario3api7impl_vh12vm_hooks_api10VMHooksApiNtNtBP_9debug_api15DebugApiBackendEENtCs3rOA4D9qoaG_13common_events16EndpointWrappers8callbackCs8iyf5MSkCde_5tests
FNDA:0,_RNvXCs3rOA4D9qoaG_13common_eventsINtCsbsTB6V03K8e_14liquidity_pool11ContractObjINtNtNtNtCs1rODQd5oASQ_22multiversx_sc_scenario3api7impl_vh12vm_hooks_api10VMHooksApiNtNtB1k_9debug_api15DebugApiBackendEENtB2_12EventsModule19market_params_eventCs8iyf5MSkCde_5tests
FNDA:889,_RNvXCs3rOA4D9qoaG_13common_eventsINtCsbsTB6V03K8e_14liquidity_pool11ContractObjINtNtNtNtCs1rODQd5oASQ_22multiversx_sc_scenario3api7impl_vh12vm_hooks_api10VMHooksApiNtNtB1k_9debug_api15DebugApiBackendEENtB2_12EventsModule31__emit_update_market_state_eventCs8iyf5MSkCde_5tests
FNDA:889,_RNvYINtCsbsTB6V03K8e_14liquidity_pool11ContractObjINtNtNtNtCs1rODQd5oASQ_22multiversx_sc_scenario3api7impl_vh12vm_hooks_api10VMHooksApiNtNtBR_9debug_api15DebugApiBackendEENtCs3rOA4D9qoaG_13common_events12EventsModule25update_market_state_eventCs8iyf5MSkCde_5tests
FNDA:0,_RNvYINtCsbsTB6V03K8e_14liquidity_pool11ContractObjINtNtNtNtCs1rODQd5oASQ_22multiversx_sc_scenario3api7impl_vh12vm_hooks_api10VMHooksApiNtNtBR_9debug_api15DebugApiBackendEENtCs3rOA4D9qoaG_13common_events16EndpointWrappers17callback_selectorCs8iyf5MSkCde_5tests
FNDA:969,_RNvYINtCsbsTB6V03K8e_14liquidity_pool11ContractObjINtNtNtNtCs1rODQd5oASQ_22multiversx_sc_scenario3api7impl_vh12vm_hooks_api10VMHooksApiNtNtBR_9debug_api15DebugApiBackendEENtCs3rOA4D9qoaG_13common_events16EndpointWrappers4callCs8iyf5MSkCde_5tests
FNDA:0,_RNvYINtCsbsTB6V03K8e_14liquidity_pool11ContractObjINtNtNtNtCs1rODQd5oASQ_22multiversx_sc_scenario3api7impl_vh12vm_hooks_api10VMHooksApiNtNtBR_9debug_api15DebugApiBackendEENtCs3rOA4D9qoaG_13common_events16EndpointWrappers8callbackCs8iyf5MSkCde_5tests
FNF:2
FNH:2
DA:7,7284
DA:46,889
DA:47,889
DA:48,889
DA:49,889
DA:50,889
DA:51,889
DA:52,889
DA:53,889
DA:54,889
DA:55,889
DA:56,889
DA:57,889
BRF:0
BRH:0
LF:13
LH:13
end_of_record
SF:/Users/mihaieremia/GitHub/rs-lending/common/structs/src/model.rs
FN:146,_RINvXs10_Cs2eHPTk3TAlu_14common_structsINtB7_25EgldOrEsdtTokenPaymentNewINtNtNtNtCs1rODQd5oASQ_22multiversx_sc_scenario3api7impl_vh12vm_hooks_api10VMHooksApiNtNtB1d_9debug_api15DebugApiBackendEENtNtNtNtNtCslPMlHj3qn2H_13multiversx_sc5types7managed7wrapped16managed_vec_item14ManagedVecItem16from_byte_readerNCNvMs2_NtB3a_11managed_vecINtB53_10ManagedVecB18_BB_E7try_get0ECs8iyf5MSkCde_5tests
FN:146,_RINvXs10_Cs2eHPTk3TAlu_14common_structsINtB7_25EgldOrEsdtTokenPaymentNewINtNtNtNtCs1rODQd5oASQ_22multiversx_sc_scenario3api7impl_vh12vm_hooks_api10VMHooksApiNtNtB1d_9debug_api15DebugApiBackendEENtNtNtNtNtCslPMlHj3qn2H_13multiversx_sc5types7managed7wrapped16managed_vec_item14ManagedVecItem16from_byte_readerNCNvXs0_NtB3a_22managed_vec_owned_iterINtB53_23ManagedVecOwnedIteratorB18_BB_ENtNtNtNtCslGS7pEIChKc_4core4iter6traits8iterator8Iterator4next0ECs8iyf5MSkCde_5tests
FN:146,_RINvXs10_Cs2eHPTk3TAlu_14common_structsINtB7_25EgldOrEsdtTokenPaymentNewINtNtNtNtCs1rODQd5oASQ_22multiversx_sc_scenario3api7impl_vh12vm_hooks_api10VMHooksApiNtNtB1d_9debug_api15DebugApiBackendEENtNtNtNtNtCslPMlHj3qn2H_13multiversx_sc5types7managed7wrapped16managed_vec_item14ManagedVecItem16into_byte_writeruNCNvMs2_NtB3a_11managed_vecINtB54_10ManagedVecB18_BB_E4push0ECs8iyf5MSkCde_5tests
FN:146,_RINvXs10_Cs2eHPTk3TAlu_14common_structsINtB7_25EgldOrEsdtTokenPaymentNewINtNtNtNtCs1rODQd5oASQ_22multiversx_sc_scenario3api7impl_vh12vm_hooks_api10VMHooksApiNtNtB1d_9debug_api15DebugApiBackendEENtNtNtNtNtCslPMlHj3qn2H_13multiversx_sc5types7managed7wrapped16managed_vec_item14ManagedVecItem26from_byte_reader_as_borrowNCNvMs2_NtB3a_11managed_vecINtB5d_10ManagedVecB18_BB_E7try_get0ECs8iyf5MSkCde_5tests
FN:111,_RINvXs1B_Cs2eHPTk3TAlu_14common_structsINtB7_23AssetExtendedConfigViewINtNtNtNtCs1rODQd5oASQ_22multiversx_sc_scenario3api7impl_vh12vm_hooks_api10VMHooksApiNtNtB1b_9debug_api15DebugApiBackendEENtNtNtNtNtCslPMlHj3qn2H_13multiversx_sc5types7managed7wrapped16managed_vec_item14ManagedVecItem16from_byte_readerNCNvXs0_NtB38_22managed_vec_owned_iterINtB51_23ManagedVecOwnedIteratorB16_BB_ENtNtNtNtCslGS7pEIChKc_4core4iter6traits8iterator8Iterator4next0ECs8iyf5MSkCde_5tests
FN:111,_RINvXs1B_Cs2eHPTk3TAlu_14common_structsINtB7_23AssetExtendedConfigViewINtNtNtNtCs1rODQd5oASQ_22multiversx_sc_scenario3api7impl_vh12vm_hooks_api10VMHooksApiNtNtB1b_9debug_api15DebugApiBackendEENtNtNtNtNtCslPMlHj3qn2H_13multiversx_sc5types7managed7wrapped16managed_vec_item14ManagedVecItem16into_byte_writeruNCNvMs2_NtB38_11managed_vecINtB52_10ManagedVecB16_BB_E4push0ECs8iyf5MSkCde_5tests
FN:111,_RINvXs1E_Cs2eHPTk3TAlu_14common_structsINtB7_23AssetExtendedConfigViewINtNtNtNtCs1rODQd5oASQ_22multiversx_sc_scenario3api7impl_vh12vm_hooks_api10VMHooksApiNtNtB1b_9debug_api15DebugApiBackendEENtNtNtCs5SUGlJDgeoS_19multiversx_sc_codec6single9nested_en12NestedEncode24dep_encode_or_handle_errINtNtNtNtNtNtCslPMlHj3qn2H_13multiversx_sc5types7managed7wrapped7builder22managed_buffer_builder20ManagedBufferBuilderB16_EINtNtNtNtB4R_13contract_base8wrappers10serializer21ExitCodecErrorHandlerB16_EECs8iyf5MSkCde_5tests
FN:76,_RINvXs1J_Cs2eHPTk3TAlu_14common_structsINtB7_11AssetConfigINtNtNtNtCs1rODQd5oASQ_22multiversx_sc_scenario3api7impl_vh12vm_hooks_api10VMHooksApiNtNtBZ_9debug_api15DebugApiBackendEENtNtNtNtNtCslPMlHj3qn2H_13multiversx_sc5types7managed7wrapped16managed_vec_item14ManagedVecItem16from_byte_readerNCINvXs1B_B7_INtB7_23AssetExtendedConfigViewBU_EB2R_16from_byte_readerNCNvXs0_NtB2V_22managed_vec_owned_iterINtB5W_23ManagedVecOwnedIteratorBU_B4T_ENtNtNtNtCslGS7pEIChKc_4core4iter6traits8iterator8Iterator4next0E0ECs8iyf5MSkCde_5tests
FN:76,_RINvXs1J_Cs2eHPTk3TAlu_14common_structsINtB7_11AssetConfigINtNtNtNtCs1rODQd5oASQ_22multiversx_sc_scenario3api7impl_vh12vm_hooks_api10VMHooksApiNtNtBZ_9debug_api15DebugApiBackendEENtNtNtNtNtCslPMlHj3qn2H_13multiversx_sc5types7managed7wrapped16managed_vec_item14ManagedVecItem16into_byte_writeruNCINvXs1B_B7_INtB7_23AssetExtendedConfigViewBU_EB2R_16into_byte_writeruNCNvMs2_NtB2V_11managed_vecINtB5Y_10ManagedVecBU_B4U_E4push0E0ECs8iyf5MSkCde_5tests
FN:76,_RINvXs1K_Cs2eHPTk3TAlu_14common_structsINtB7_11AssetConfigINtNtNtNtCs1rODQd5oASQ_22multiversx_sc_scenario3api7impl_vh12vm_hooks_api10VMHooksApiNtNtBZ_10static_api16StaticApiBackendEENtNtNtCs5SUGlJDgeoS_19multiversx_sc_codec6single6top_en9TopEncode24top_encode_or_handle_errQINtNtNtNtNtCslPMlHj3qn2H_13multiversx_sc5types7managed5basic14managed_buffer13ManagedBufferBU_EINtNtNtNtB4z_13contract_base8wrappers10serializer21ExitCodecErrorHandlerBU_EECs8iyf5MSkCde_5tests
FN:76,_RINvXs1K_Cs2eHPTk3TAlu_14common_structsINtB7_11AssetConfigINtNtNtNtCs1rODQd5oASQ_22multiversx_sc_scenario3api7impl_vh12vm_hooks_api10VMHooksApiNtNtBZ_9debug_api15DebugApiBackendEENtNtNtCs5SUGlJDgeoS_19multiversx_sc_codec6single6top_en9TopEncode24top_encode_or_handle_errINtNtNtCslPMlHj3qn2H_13multiversx_sc2io6finish16ApiOutputAdapterBU_EINtNtNtNtB4r_13contract_base8wrappers10serializer21ExitCodecErrorHandlerBU_EECs8iyf5MSkCde_5tests
FN:76,_RINvXs1K_Cs2eHPTk3TAlu_14common_structsINtB7_11AssetConfigINtNtNtNtCs1rODQd5oASQ_22multiversx_sc_scenario3api7impl_vh12vm_hooks_api10VMHooksApiNtNtBZ_9debug_api15DebugApiBackendEENtNtNtCs5SUGlJDgeoS_19multiversx_sc_codec6single6top_en9TopEncode24top_encode_or_handle_errINtNtNtCslPMlHj3qn2H_13multiversx_sc7storage11storage_set16StorageSetOutputBU_EINtNtNtNtB4r_13contract_base8wrappers10serializer21ExitCodecErrorHandlerBU_EECs8iyf5MSkCde_5tests
FN:76,_RINvXs1K_Cs2eHPTk3TAlu_14common_structsINtB7_11AssetConfigINtNtNtNtCs1rODQd5oASQ_22multiversx_sc_scenario3api7impl_vh12vm_hooks_api10VMHooksApiNtNtBZ_9debug_api15DebugApiBackendEENtNtNtCs5SUGlJDgeoS_19multiversx_sc_codec6single6top_en9TopEncode24top_encode_or_handle_errQINtNtNtNtNtCslPMlHj3qn2H_13multiversx_sc5types7managed5basic14managed_buffer13ManagedBufferBU_EINtNtNtNtB4w_13contract_base8wrappers10serializer21ExitCodecErrorHandlerBU_EECs8iyf5MSkCde_5tests
FN:76,_RINvXs1L_Cs2eHPTk3TAlu_14common_structsINtB7_11AssetConfigINtNtNtNtCs1rODQd5oASQ_22multiversx_sc_scenario3api7impl_vh12vm_hooks_api10VMHooksApiNtNtBZ_9debug_api15DebugApiBackendEENtNtNtCs5SUGlJDgeoS_19multiversx_sc_codec6single6top_de9TopDecode24top_decode_or_handle_errINtNtNtCslPMlHj3qn2H_13multiversx_sc2io12arg_de_input14ArgDecodeInputBU_EINtNtB4p_17arg_error_handler15ArgErrorHandlerBU_EECs8iyf5MSkCde_5tests
FN:76,_RINvXs1L_Cs2eHPTk3TAlu_14common_structsINtB7_11AssetConfigINtNtNtNtCs1rODQd5oASQ_22multiversx_sc_scenario3api7impl_vh12vm_hooks_api10VMHooksApiNtNtBZ_9debug_api15DebugApiBackendEENtNtNtCs5SUGlJDgeoS_19multiversx_sc_codec6single6top_de9TopDecode24top_decode_or_handle_errINtNtNtCslPMlHj3qn2H_13multiversx_sc7storage11storage_get15StorageGetInputBU_EINtB4n_22StorageGetErrorHandlerBU_EECs8iyf5MSkCde_5tests
FN:76,_RINvXs1M_Cs2eHPTk3TAlu_14common_structsINtB7_11AssetConfigINtNtNtNtCs1rODQd5oASQ_22multiversx_sc_scenario3api7impl_vh12vm_hooks_api10VMHooksApiNtNtBZ_9debug_api15DebugApiBackendEENtNtNtCs5SUGlJDgeoS_19multiversx_sc_codec6single9nested_en12NestedEncode24dep_encode_or_handle_errINtNtNtNtNtNtCslPMlHj3qn2H_13multiversx_sc5types7managed7wrapped7builder22managed_buffer_builder20ManagedBufferBuilderBU_EINtNtNtNtB4E_13contract_base8wrappers10serializer21ExitCodecErrorHandlerBU_EECs8iyf5MSkCde_5tests
FN:29,_RINvXs1S_Cs2eHPTk3TAlu_14common_structsINtB7_15AccountPositionINtNtNtNtCs1rODQd5oASQ_22multiversx_sc_scenario3api7impl_vh12vm_hooks_api10VMHooksApiNtNtB13_9debug_api15DebugApiBackendEENtNtNtNtNtCslPMlHj3qn2H_13multiversx_sc5types7managed7wrapped16managed_vec_item14ManagedVecItem16from_byte_readerNCNvMs2_NtB30_11managed_vecINtB4T_10ManagedVecBY_BB_E7try_get0ECs8iyf5MSkCde_5tests
FN:29,_RINvXs1S_Cs2eHPTk3TAlu_14common_structsINtB7_15AccountPositionINtNtNtNtCs1rODQd5oASQ_22multiversx_sc_scenario3api7impl_vh12vm_hooks_api10VMHooksApiNtNtB13_9debug_api15DebugApiBackendEENtNtNtNtNtCslPMlHj3qn2H_13multiversx_sc5types7managed7wrapped16managed_vec_item14ManagedVecItem16from_byte_readerNCNvXs0_NtB30_22managed_vec_owned_iterINtB4T_23ManagedVecOwnedIteratorBY_BB_ENtNtNtNtCslGS7pEIChKc_4core4iter6traits8iterator8Iterator4next0ECs8iyf5MSkCde_5tests
FN:29,_RINvXs1S_Cs2eHPTk3TAlu_14common_structsINtB7_15AccountPositionINtNtNtNtCs1rODQd5oASQ_22multiversx_sc_scenario3api7impl_vh12vm_hooks_api10VMHooksApiNtNtB13_9debug_api15DebugApiBackendEENtNtNtNtNtCslPMlHj3qn2H_13multiversx_sc5types7managed7wrapped16managed_vec_item14ManagedVecItem16into_byte_writerINtNtCslGS7pEIChKc_4core6result6ResultuNtNtNtNtB36_3api13managed_types18managed_buffer_api17InvalidSliceErrorENCNvMs2_NtB30_11managed_vecINtB6F_10ManagedVecBY_BB_E3set0ECs8iyf5MSkCde_5tests
FN:29,_RINvXs1S_Cs2eHPTk3TAlu_14common_structsINtB7_15AccountPositionINtNtNtNtCs1rODQd5oASQ_22multiversx_sc_scenario3api7impl_vh12vm_hooks_api10VMHooksApiNtNtB13_9debug_api15DebugApiBackendEENtNtNtNtNtCslPMlHj3qn2H_13multiversx_sc5types7managed7wrapped16managed_vec_item14ManagedVecItem16into_byte_writeruNCNvMs2_NtB30_11managed_vecINtB4U_10ManagedVecBY_BB_E4push0ECs8iyf5MSkCde_5tests
FN:29,_RINvXs1S_Cs2eHPTk3TAlu_14common_structsINtB7_15AccountPositionINtNtNtNtCs1rODQd5oASQ_22multiversx_sc_scenario3api7impl_vh12vm_hooks_api10VMHooksApiNtNtB13_9debug_api15DebugApiBackendEENtNtNtNtNtCslPMlHj3qn2H_13multiversx_sc5types7managed7wrapped16managed_vec_item14ManagedVecItem26from_byte_reader_as_borrowNCNvMs2_NtB30_11managed_vecINtB53_10ManagedVecBY_BB_E7try_get0ECs8iyf5MSkCde_5tests
FN:29,_RINvXs1T_Cs2eHPTk3TAlu_14common_structsINtB7_15AccountPositionINtNtNtNtCs1rODQd5oASQ_22multiversx_sc_scenario3api7impl_vh12vm_hooks_api10VMHooksApiNtNtB13_9debug_api15DebugApiBackendEENtNtNtCs5SUGlJDgeoS_19multiversx_sc_codec6single9nested_en12NestedEncode24dep_encode_or_handle_errINtNtNtNtNtNtCslPMlHj3qn2H_13multiversx_sc5types7managed7wrapped7builder22managed_buffer_builder20ManagedBufferBuilderBY_EINtNtNtNtB4J_13contract_base8wrappers10serializer21ExitCodecErrorHandlerBY_EECs8iyf5MSkCde_5tests
FN:29,_RINvXs1V_Cs2eHPTk3TAlu_14common_structsINtB7_15AccountPositionINtNtNtNtCs1rODQd5oASQ_22multiversx_sc_scenario3api7impl_vh12vm_hooks_api10VMHooksApiNtNtB13_9debug_api15DebugApiBackendEENtNtNtCs5SUGlJDgeoS_19multiversx_sc_codec6single6top_en9TopEncode24top_encode_or_handle_errINtNtNtCslPMlHj3qn2H_13multiversx_sc2io6finish16ApiOutputAdapterBY_EINtNtNtNtB4w_13contract_base8wrappers10serializer21ExitCodecErrorHandlerBY_EECs8iyf5MSkCde_5tests
FN:29,_RINvXs1V_Cs2eHPTk3TAlu_14common_structsINtB7_15AccountPositionINtNtNtNtCs1rODQd5oASQ_22multiversx_sc_scenario3api7impl_vh12vm_hooks_api10VMHooksApiNtNtB13_9debug_api15DebugApiBackendEENtNtNtCs5SUGlJDgeoS_19multiversx_sc_codec6single6top_en9TopEncode24top_encode_or_handle_errINtNtNtCslPMlHj3qn2H_13multiversx_sc7storage11storage_set16StorageSetOutputBY_EINtNtNtNtB4w_13contract_base8wrappers10serializer21ExitCodecErrorHandlerBY_EECs8iyf5MSkCde_5tests
FN:29,_RINvXs1V_Cs2eHPTk3TAlu_14common_structsINtB7_15AccountPositionINtNtNtNtCs1rODQd5oASQ_22multiversx_sc_scenario3api7impl_vh12vm_hooks_api10VMHooksApiNtNtB13_9debug_api15DebugApiBackendEENtNtNtCs5SUGlJDgeoS_19multiversx_sc_codec6single6top_en9TopEncode24top_encode_or_handle_errQINtNtNtNtNtCslPMlHj3qn2H_13multiversx_sc5types7managed5basic14managed_buffer13ManagedBufferBY_EINtNtNtNtB4B_13contract_base8wrappers10serializer21ExitCodecErrorHandlerBY_EECs8iyf5MSkCde_5tests
FN:29,_RINvXs1W_Cs2eHPTk3TAlu_14common_structsINtB7_15AccountPositionINtNtNtNtCs1rODQd5oASQ_22multiversx_sc_scenario3api7impl_vh12vm_hooks_api10VMHooksApiNtNtB13_9debug_api15DebugApiBackendEENtNtNtCs5SUGlJDgeoS_19multiversx_sc_codec6single6top_de9TopDecode24top_decode_or_handle_errINtNtNtCslPMlHj3qn2H_13multiversx_sc2io12arg_de_input14ArgDecodeInputBY_EINtNtB4u_17arg_error_handler15ArgErrorHandlerBY_EECs8iyf5MSkCde_5tests
FN:29,_RINvXs1W_Cs2eHPTk3TAlu_14common_structsINtB7_15AccountPositionINtNtNtNtCs1rODQd5oASQ_22multiversx_sc_scenario3api7impl_vh12vm_hooks_api10VMHooksApiNtNtB13_9debug_api15DebugApiBackendEENtNtNtCs5SUGlJDgeoS_19multiversx_sc_codec6single6top_de9TopDecode24top_decode_or_handle_errINtNtNtCslPMlHj3qn2H_13multiversx_sc7storage11storage_get15StorageGetInputBY_EINtB4s_22StorageGetErrorHandlerBY_EECs8iyf5MSkCde_5tests
FN:29,_RINvXs1W_Cs2eHPTk3TAlu_14common_structsINtB7_15AccountPositionINtNtNtNtCs1rODQd5oASQ_22multiversx_sc_scenario3api7impl_vh12vm_hooks_api10VMHooksApiNtNtB13_9debug_api15DebugApiBackendEENtNtNtCs5SUGlJDgeoS_19multiversx_sc_codec6single6top_de9TopDecode24top_decode_or_handle_errINtNtNtNtNtCslPMlHj3qn2H_13multiversx_sc5types7managed5basic14managed_buffer13ManagedBufferBY_EINtNtNtB4A_2io17arg_error_handler15ArgErrorHandlerBY_EECs8iyf5MSkCde_5tests
FN:137,_RINvXs1f_Cs2eHPTk3TAlu_14common_structsNtB7_20NftAccountAttributesNtNtNtCs5SUGlJDgeoS_19multiversx_sc_codec6single6top_en9TopEncode24top_encode_or_handle_errINtNtNtCslPMlHj3qn2H_13multiversx_sc2io6finish16ApiOutputAdapterINtNtNtNtCs1rODQd5oASQ_22multiversx_sc_scenario3api7impl_vh12vm_hooks_api10VMHooksApiNtNtB3C_9debug_api15DebugApiBackendEEINtNtNtNtB2C_13contract_base8wrappers10serializer21ExitCodecErrorHandlerB3x_EECs8iyf5MSkCde_5tests
FN:137,_RINvXs1f_Cs2eHPTk3TAlu_14common_structsNtB7_20NftAccountAttributesNtNtNtCs5SUGlJDgeoS_19multiversx_sc_codec6single6top_en9TopEncode24top_encode_or_handle_errINtNtNtCslPMlHj3qn2H_13multiversx_sc7storage11storage_set16StorageSetOutputINtNtNtNtCs1rODQd5oASQ_22multiversx_sc_scenario3api7impl_vh12vm_hooks_api10VMHooksApiNtNtB3N_9debug_api15DebugApiBackendEEINtNtNtNtB2C_13contract_base8wrappers10serializer21ExitCodecErrorHandlerB3I_EECs8iyf5MSkCde_5tests
FN:137,_RINvXs1f_Cs2eHPTk3TAlu_14common_structsNtB7_20NftAccountAttributesNtNtNtCs5SUGlJDgeoS_19multiversx_sc_codec6single6top_en9TopEncode24top_encode_or_handle_errQINtNtCshTKFwE22Rw2_5alloc3vec3VechENtNtB18_17codec_err_handler19DefaultErrorHandlerECs8iyf5MSkCde_5tests
FN:137,_RINvXs1f_Cs2eHPTk3TAlu_14common_structsNtB7_20NftAccountAttributesNtNtNtCs5SUGlJDgeoS_19multiversx_sc_codec6single6top_en9TopEncode24top_encode_or_handle_errQINtNtNtNtNtCslPMlHj3qn2H_13multiversx_sc5types7managed5basic14managed_buffer13ManagedBufferINtNtNtNtCs1rODQd5oASQ_22multiversx_sc_scenario3api7impl_vh12vm_hooks_api10VMHooksApiNtNtB44_9debug_api15DebugApiBackendEEINtNtNtNtB2H_13contract_base8wrappers10serializer21ExitCodecErrorHandlerB3Z_EECs8iyf5MSkCde_5tests
FN:137,_RINvXs1g_Cs2eHPTk3TAlu_14common_structsNtB7_20NftAccountAttributesNtNtNtCs5SUGlJDgeoS_19multiversx_sc_codec6single6top_de9TopDecode24top_decode_or_handle_errINtNtNtCslPMlHj3qn2H_13multiversx_sc7storage11storage_get15StorageGetInputINtNtNtNtCs1rODQd5oASQ_22multiversx_sc_scenario3api7impl_vh12vm_hooks_api10VMHooksApiNtNtB3M_9debug_api15DebugApiBackendEEINtB2y_22StorageGetErrorHandlerB3H_EECs8iyf5MSkCde_5tests
FN:137,_RINvXs1g_Cs2eHPTk3TAlu_14common_structsNtB7_20NftAccountAttributesNtNtNtCs5SUGlJDgeoS_19multiversx_sc_codec6single6top_de9TopDecode24top_decode_or_handle_errINtNtNtNtNtCslPMlHj3qn2H_13multiversx_sc5types7managed5basic14managed_buffer13ManagedBufferINtNtNtNtCs1rODQd5oASQ_22multiversx_sc_scenario3api7impl_vh12vm_hooks_api10VMHooksApiNtNtB43_9debug_api15DebugApiBackendEEINtNtNtNtB2G_13contract_base8wrappers10serializer21ExitCodecErrorHandlerB3Y_EECs8iyf5MSkCde_5tests
FN:130,_RINvXs1m_Cs2eHPTk3TAlu_14common_structsNtB7_16EModeAssetConfigNtNtNtCs5SUGlJDgeoS_19multiversx_sc_codec6single6top_en9TopEncode24top_encode_or_handle_errINtNtNtCslPMlHj3qn2H_13multiversx_sc2io6finish16ApiOutputAdapterINtNtNtNtCs1rODQd5oASQ_22multiversx_sc_scenario3api7impl_vh12vm_hooks_api10VMHooksApiNtNtB3y_9debug_api15DebugApiBackendEEINtNtNtNtB2y_13contract_base8wrappers10serializer21ExitCodecErrorHandlerB3t_EECs8iyf5MSkCde_5tests
FN:130,_RINvXs1m_Cs2eHPTk3TAlu_14common_structsNtB7_16EModeAssetConfigNtNtNtCs5SUGlJDgeoS_19multiversx_sc_codec6single6top_en9TopEncode24top_encode_or_handle_errINtNtNtCslPMlHj3qn2H_13multiversx_sc7storage11storage_set16StorageSetOutputINtNtNtNtCs1rODQd5oASQ_22multiversx_sc_scenario3api7impl_vh12vm_hooks_api10VMHooksApiNtNtB3J_9debug_api15DebugApiBackendEEINtNtNtNtB2y_13contract_base8wrappers10serializer21ExitCodecErrorHandlerB3E_EECs8iyf5MSkCde_5tests
FN:130,_RINvXs1m_Cs2eHPTk3TAlu_14common_structsNtB7_16EModeAssetConfigNtNtNtCs5SUGlJDgeoS_19multiversx_sc_codec6single6top_en9TopEncode24top_encode_or_handle_errQINtNtNtNtNtCslPMlHj3qn2H_13multiversx_sc5types7managed5basic14managed_buffer13ManagedBufferINtNtNtNtCs1rODQd5oASQ_22multiversx_sc_scenario3api7impl_vh12vm_hooks_api10VMHooksApiNtNtB40_9debug_api15DebugApiBackendEEINtNtNtNtB2D_13contract_base8wrappers10serializer21ExitCodecErrorHandlerB3V_EECs8iyf5MSkCde_5tests
FN:130,_RINvXs1n_Cs2eHPTk3TAlu_14common_structsNtB7_16EModeAssetConfigNtNtNtCs5SUGlJDgeoS_19multiversx_sc_codec6single6top_de9TopDecode24top_decode_or_handle_errINtNtNtCslPMlHj3qn2H_13multiversx_sc2io12arg_de_input14ArgDecodeInputINtNtNtNtCs1rODQd5oASQ_22multiversx_sc_scenario3api7impl_vh12vm_hooks_api10VMHooksApiNtNtB3D_9debug_api15DebugApiBackendEEINtNtB2w_17arg_error_handler15ArgErrorHandlerB3y_EECs8iyf5MSkCde_5tests
FN:130,_RINvXs1n_Cs2eHPTk3TAlu_14common_structsNtB7_16EModeAssetConfigNtNtNtCs5SUGlJDgeoS_19multiversx_sc_codec6single6top_de9TopDecode24top_decode_or_handle_errINtNtNtCslPMlHj3qn2H_13multiversx_sc7storage11storage_get15StorageGetInputINtNtNtNtCs1rODQd5oASQ_22multiversx_sc_scenario3api7impl_vh12vm_hooks_api10VMHooksApiNtNtB3I_9debug_api15DebugApiBackendEEINtB2u_22StorageGetErrorHandlerB3D_EECs8iyf5MSkCde_5tests
FN:120,_RINvXs1u_Cs2eHPTk3TAlu_14common_structsINtB7_13EModeCategoryINtNtNtNtCs1rODQd5oASQ_22multiversx_sc_scenario3api7impl_vh12vm_hooks_api10VMHooksApiNtNtB11_9debug_api15DebugApiBackendEENtNtNtCs5SUGlJDgeoS_19multiversx_sc_codec6single6top_en9TopEncode24top_encode_or_handle_errINtNtNtCslPMlHj3qn2H_13multiversx_sc2io6finish16ApiOutputAdapterBW_EINtNtNtNtB4u_13contract_base8wrappers10serializer21ExitCodecErrorHandlerBW_EECs8iyf5MSkCde_5tests
FN:120,_RINvXs1u_Cs2eHPTk3TAlu_14common_structsINtB7_13EModeCategoryINtNtNtNtCs1rODQd5oASQ_22multiversx_sc_scenario3api7impl_vh12vm_hooks_api10VMHooksApiNtNtB11_9debug_api15DebugApiBackendEENtNtNtCs5SUGlJDgeoS_19multiversx_sc_codec6single6top_en9TopEncode24top_encode_or_handle_errINtNtNtCslPMlHj3qn2H_13multiversx_sc7storage11storage_set16StorageSetOutputBW_EINtNtNtNtB4u_13contract_base8wrappers10serializer21ExitCodecErrorHandlerBW_EECs8iyf5MSkCde_5tests
FN:120,_RINvXs1u_Cs2eHPTk3TAlu_14common_structsINtB7_13EModeCategoryINtNtNtNtCs1rODQd5oASQ_22multiversx_sc_scenario3api7impl_vh12vm_hooks_api10VMHooksApiNtNtB11_9debug_api15DebugApiBackendEENtNtNtCs5SUGlJDgeoS_19multiversx_sc_codec6single6top_en9TopEncode24top_encode_or_handle_errQINtNtNtNtNtCslPMlHj3qn2H_13multiversx_sc5types7managed5basic14managed_buffer13ManagedBufferBW_EINtNtNtNtB4z_13contract_base8wrappers10serializer21ExitCodecErrorHandlerBW_EECs8iyf5MSkCde_5tests
FN:120,_RINvXs1v_Cs2eHPTk3TAlu_14common_structsINtB7_13EModeCategoryINtNtNtNtCs1rODQd5oASQ_22multiversx_sc_scenario3api7impl_vh12vm_hooks_api10VMHooksApiNtNtB11_9debug_api15DebugApiBackendEENtNtNtCs5SUGlJDgeoS_19multiversx_sc_codec6single6top_de9TopDecode24top_decode_or_handle_errINtNtNtCslPMlHj3qn2H_13multiversx_sc2io12arg_de_input14ArgDecodeInputBW_EINtNtB4s_17arg_error_handler15ArgErrorHandlerBW_EECs8iyf5MSkCde_5tests
FN:120,_RINvXs1v_Cs2eHPTk3TAlu_14common_structsINtB7_13EModeCategoryINtNtNtNtCs1rODQd5oASQ_22multiversx_sc_scenario3api7impl_vh12vm_hooks_api10VMHooksApiNtNtB11_9debug_api15DebugApiBackendEENtNtNtCs5SUGlJDgeoS_19multiversx_sc_codec6single6top_de9TopDecode24top_decode_or_handle_errINtNtNtCslPMlHj3qn2H_13multiversx_sc7storage11storage_get15StorageGetInputBW_EINtB4q_22StorageGetErrorHandlerBW_EECs8iyf5MSkCde_5tests
FN:120,_RINvXs1w_Cs2eHPTk3TAlu_14common_structsINtB7_13EModeCategoryINtNtNtNtCs1rODQd5oASQ_22multiversx_sc_scenario3api7impl_vh12vm_hooks_api10VMHooksApiNtNtB11_10static_api16StaticApiBackendEENtNtNtCs5SUGlJDgeoS_19multiversx_sc_codec6single9nested_en12NestedEncode24dep_encode_or_handle_errINtNtNtNtNtCslPMlHj3qn2H_13multiversx_sc5types7managed5basic14managed_buffer13ManagedBufferBW_EINtNtNtNtB4I_13contract_base8wrappers10serializer21ExitCodecErrorHandlerBW_EECs8iyf5MSkCde_5tests
FN:120,_RINvXs1x_Cs2eHPTk3TAlu_14common_structsINtB7_13EModeCategoryINtNtNtNtCs1rODQd5oASQ_22multiversx_sc_scenario3api7impl_vh12vm_hooks_api10VMHooksApiNtNtB11_9debug_api15DebugApiBackendEENtNtNtCs5SUGlJDgeoS_19multiversx_sc_codec6single9nested_de12NestedDecode24dep_decode_or_handle_errINtNtNtNtNtCslPMlHj3qn2H_13multiversx_sc5types7managed10codec_util30managed_buffer_nested_de_input30ManagedBufferNestedDecodeInputBW_EINtNtNtB4F_2io17arg_error_handler15ArgErrorHandlerBW_EECs8iyf5MSkCde_5tests
FN:20,_RINvXs21_Cs2eHPTk3TAlu_14common_structsNtB7_19AccountPositionTypeNtNtNtNtNtCslPMlHj3qn2H_13multiversx_sc5types7managed7wrapped16managed_vec_item14ManagedVecItem16from_byte_readerNCINvXs1S_B7_INtB7_15AccountPositionINtNtNtNtCs1rODQd5oASQ_22multiversx_sc_scenario3api7impl_vh12vm_hooks_api10VMHooksApiNtNtB3v_9debug_api15DebugApiBackendEEB11_16from_byte_readerNCNvMs2_NtB15_11managed_vecINtB5S_10ManagedVecB3q_B33_E7try_get0E0ECs8iyf5MSkCde_5tests
FN:20,_RINvXs21_Cs2eHPTk3TAlu_14common_structsNtB7_19AccountPositionTypeNtNtNtNtNtCslPMlHj3qn2H_13multiversx_sc5types7managed7wrapped16managed_vec_item14ManagedVecItem16from_byte_readerNCINvXs1S_B7_INtB7_15AccountPositionINtNtNtNtCs1rODQd5oASQ_22multiversx_sc_scenario3api7impl_vh12vm_hooks_api10VMHooksApiNtNtB3v_9debug_api15DebugApiBackendEEB11_16from_byte_readerNCNvXs0_NtB15_22managed_vec_owned_iterINtB5S_23ManagedVecOwnedIteratorB3q_B33_ENtNtNtNtCslGS7pEIChKc_4core4iter6traits8iterator8Iterator4next0E0ECs8iyf5MSkCde_5tests
FN:20,_RINvXs21_Cs2eHPTk3TAlu_14common_structsNtB7_19AccountPositionTypeNtNtNtNtNtCslPMlHj3qn2H_13multiversx_sc5types7managed7wrapped16managed_vec_item14ManagedVecItem16into_byte_writeruNCINvXs1S_B7_INtB7_15AccountPositionINtNtNtNtCs1rODQd5oASQ_22multiversx_sc_scenario3api7impl_vh12vm_hooks_api10VMHooksApiNtNtB3w_9debug_api15DebugApiBackendEEB11_16into_byte_writerINtNtCslGS7pEIChKc_4core6result6ResultuNtNtNtNtB1b_3api13managed_types18managed_buffer_api17InvalidSliceErrorENCNvMs2_NtB15_11managed_vecINtB7F_10ManagedVecB3r_B34_E3set0E0ECs8iyf5MSkCde_5tests
FN:20,_RINvXs21_Cs2eHPTk3TAlu_14common_structsNtB7_19AccountPositionTypeNtNtNtNtNtCslPMlHj3qn2H_13multiversx_sc5types7managed7wrapped16managed_vec_item14ManagedVecItem16into_byte_writeruNCINvXs1S_B7_INtB7_15AccountPositionINtNtNtNtCs1rODQd5oASQ_22multiversx_sc_scenario3api7impl_vh12vm_hooks_api10VMHooksApiNtNtB3w_9debug_api15DebugApiBackendEEB11_16into_byte_writeruNCNvMs2_NtB15_11managed_vecINtB5U_10ManagedVecB3r_B34_E4push0E0ECs8iyf5MSkCde_5tests
FN:20,_RINvXs22_Cs2eHPTk3TAlu_14common_structsNtB7_19AccountPositionTypeNtNtNtCs5SUGlJDgeoS_19multiversx_sc_codec6single9nested_en12NestedEncode24dep_encode_or_handle_errINtNtNtNtNtCslPMlHj3qn2H_13multiversx_sc5types7managed5basic14managed_buffer13ManagedBufferINtNtNtNtCs1rODQd5oASQ_22multiversx_sc_scenario3api7impl_vh12vm_hooks_api10VMHooksApiNtNtB49_9debug_api15DebugApiBackendEEINtNtNtNtB2M_13contract_base8wrappers10serializer21ExitCodecErrorHandlerB44_EECs8iyf5MSkCde_5tests
FN:20,_RINvXs22_Cs2eHPTk3TAlu_14common_structsNtB7_19AccountPositionTypeNtNtNtCs5SUGlJDgeoS_19multiversx_sc_codec6single9nested_en12NestedEncode24dep_encode_or_handle_errINtNtNtNtNtNtCslPMlHj3qn2H_13multiversx_sc5types7managed7wrapped7builder22managed_buffer_builder20ManagedBufferBuilderINtNtNtNtCs1rODQd5oASQ_22multiversx_sc_scenario3api7impl_vh12vm_hooks_api10VMHooksApiNtNtB4A_9debug_api15DebugApiBackendEEINtNtNtNtB2O_13contract_base8wrappers10serializer21ExitCodecErrorHandlerB4v_EECs8iyf5MSkCde_5tests
FN:20,_RINvXs23_Cs2eHPTk3TAlu_14common_structsNtB7_19AccountPositionTypeNtNtNtCs5SUGlJDgeoS_19multiversx_sc_codec6single9nested_de12NestedDecode24dep_decode_or_handle_errINtNtNtNtNtCslPMlHj3qn2H_13multiversx_sc5types7managed10codec_util30managed_buffer_nested_de_input30ManagedBufferNestedDecodeInputINtNtNtNtCs1rODQd5oASQ_22multiversx_sc_scenario3api7impl_vh12vm_hooks_api10VMHooksApiNtNtB4M_9debug_api15DebugApiBackendEEINtNtNtB2M_2io17arg_error_handler15ArgErrorHandlerB4H_EECs8iyf5MSkCde_5tests
FN:20,_RINvXs23_Cs2eHPTk3TAlu_14common_structsNtB7_19AccountPositionTypeNtNtNtCs5SUGlJDgeoS_19multiversx_sc_codec6single9nested_de12NestedDecode24dep_decode_or_handle_errINtNtNtNtNtCslPMlHj3qn2H_13multiversx_sc5types7managed10codec_util30managed_buffer_nested_de_input30ManagedBufferNestedDecodeInputINtNtNtNtCs1rODQd5oASQ_22multiversx_sc_scenario3api7impl_vh12vm_hooks_api10VMHooksApiNtNtB4M_9debug_api15DebugApiBackendEEINtNtNtB2M_7storage11storage_get22StorageGetErrorHandlerB4H_EECs8iyf5MSkCde_5tests
FN:7,_RINvXs2d_Cs2eHPTk3TAlu_14common_structsINtB7_10PoolParamsINtNtNtNtCs1rODQd5oASQ_22multiversx_sc_scenario3api7impl_vh12vm_hooks_api10VMHooksApiNtNtBY_9debug_api15DebugApiBackendEENtNtNtCs5SUGlJDgeoS_19multiversx_sc_codec6single6top_en9TopEncode24top_encode_or_handle_errINtNtNtCslPMlHj3qn2H_13multiversx_sc2io6finish16ApiOutputAdapterBT_EINtNtNtNtB4q_13contract_base8wrappers10serializer21ExitCodecErrorHandlerBT_EECs8iyf5MSkCde_5tests
FN:7,_RINvXs2d_Cs2eHPTk3TAlu_14common_structsINtB7_10PoolParamsINtNtNtNtCs1rODQd5oASQ_22multiversx_sc_scenario3api7impl_vh12vm_hooks_api10VMHooksApiNtNtBY_9debug_api15DebugApiBackendEENtNtNtCs5SUGlJDgeoS_19multiversx_sc_codec6single6top_en9TopEncode24top_encode_or_handle_errINtNtNtCslPMlHj3qn2H_13multiversx_sc7storage11storage_set16StorageSetOutputBT_EINtNtNtNtB4q_13contract_base8wrappers10serializer21ExitCodecErrorHandlerBT_EECs8iyf5MSkCde_5tests
FN:7,_RINvXs2e_Cs2eHPTk3TAlu_14common_structsINtB7_10PoolParamsINtNtNtNtCs1rODQd5oASQ_22multiversx_sc_scenario3api7impl_vh12vm_hooks_api10VMHooksApiNtNtBY_9debug_api15DebugApiBackendEENtNtNtCs5SUGlJDgeoS_19multiversx_sc_codec6single6top_de9TopDecode24top_decode_or_handle_errINtNtNtCslPMlHj3qn2H_13multiversx_sc7storage11storage_get15StorageGetInputBT_EINtB4m_22StorageGetErrorHandlerBT_EECs8iyf5MSkCde_5tests
FN:213,_RINvXs5_Cs2eHPTk3TAlu_14common_structsINtB6_22OraclePriceFluctuationINtNtNtNtCs1rODQd5oASQ_22multiversx_sc_scenario3api7impl_vh12vm_hooks_api10VMHooksApiNtNtB19_9debug_api15DebugApiBackendEENtNtNtCs5SUGlJDgeoS_19multiversx_sc_codec6single9nested_en12NestedEncode24dep_encode_or_handle_errINtNtNtNtNtNtCslPMlHj3qn2H_13multiversx_sc5types7managed7wrapped7builder22managed_buffer_builder20ManagedBufferBuilderB14_EINtNtNtNtB4P_13contract_base8wrappers10serializer21ExitCodecErrorHandlerB14_EECs8iyf5MSkCde_5tests
FN:213,_RINvXs6_Cs2eHPTk3TAlu_14common_structsINtB6_22OraclePriceFluctuationINtNtNtNtCs1rODQd5oASQ_22multiversx_sc_scenario3api7impl_vh12vm_hooks_api10VMHooksApiNtNtB19_9debug_api15DebugApiBackendEENtNtNtCs5SUGlJDgeoS_19multiversx_sc_codec6single9nested_de12NestedDecode24dep_decode_or_handle_errINtNtNtNtNtCslPMlHj3qn2H_13multiversx_sc5types7managed10codec_util30managed_buffer_nested_de_input30ManagedBufferNestedDecodeInputB14_EINtNtNtB4N_7storage11storage_get22StorageGetErrorHandlerB14_EECs8iyf5MSkCde_5tests
FN:168,_RINvXsD_Cs2eHPTk3TAlu_14common_structsNtB6_10OracleTypeNtNtNtCs5SUGlJDgeoS_19multiversx_sc_codec6single9nested_en12NestedEncode24dep_encode_or_handle_errINtNtNtNtNtNtCslPMlHj3qn2H_13multiversx_sc5types7managed7wrapped7builder22managed_buffer_builder20ManagedBufferBuilderINtNtNtNtCs1rODQd5oASQ_22multiversx_sc_scenario3api7impl_vh12vm_hooks_api10VMHooksApiNtNtB4q_9debug_api15DebugApiBackendEEINtNtNtNtB2E_13contract_base8wrappers10serializer21ExitCodecErrorHandlerB4l_EECs8iyf5MSkCde_5tests
FN:168,_RINvXsE_Cs2eHPTk3TAlu_14common_structsNtB6_10OracleTypeNtNtNtCs5SUGlJDgeoS_19multiversx_sc_codec6single9nested_de12NestedDecode24dep_decode_or_handle_errINtNtNtNtNtCslPMlHj3qn2H_13multiversx_sc5types7managed10codec_util30managed_buffer_nested_de_input30ManagedBufferNestedDecodeInputINtNtNtNtCs1rODQd5oASQ_22multiversx_sc_scenario3api7impl_vh12vm_hooks_api10VMHooksApiNtNtB4C_9debug_api15DebugApiBackendEEINtNtNtB2C_7storage11storage_get22StorageGetErrorHandlerB4x_EECs8iyf5MSkCde_5tests
FN:168,_RINvXsF_Cs2eHPTk3TAlu_14common_structsNtB6_10OracleTypeNtNtNtCs5SUGlJDgeoS_19multiversx_sc_codec6single6top_en9TopEncode24top_encode_or_handle_errQINtNtNtNtNtCslPMlHj3qn2H_13multiversx_sc5types7managed5basic14managed_buffer13ManagedBufferINtNtNtNtCs1rODQd5oASQ_22multiversx_sc_scenario3api7impl_vh12vm_hooks_api10VMHooksApiNtNtB3T_10static_api16StaticApiBackendEEINtNtNtNtB2w_13contract_base8wrappers10serializer21ExitCodecErrorHandlerB3O_EECs8iyf5MSkCde_5tests
FN:168,_RINvXsG_Cs2eHPTk3TAlu_14common_structsNtB6_10OracleTypeNtNtNtCs5SUGlJDgeoS_19multiversx_sc_codec6single6top_de9TopDecode24top_decode_or_handle_errINtNtNtCslPMlHj3qn2H_13multiversx_sc2io12arg_de_input14ArgDecodeInputINtNtNtNtCs1rODQd5oASQ_22multiversx_sc_scenario3api7impl_vh12vm_hooks_api10VMHooksApiNtNtB3w_9debug_api15DebugApiBackendEEINtNtB2p_17arg_error_handler15ArgErrorHandlerB3r_EECs8iyf5MSkCde_5tests
FN:156,_RINvXsP_Cs2eHPTk3TAlu_14common_structsNtB6_13PricingMethodNtNtNtCs5SUGlJDgeoS_19multiversx_sc_codec6single9nested_en12NestedEncode24dep_encode_or_handle_errINtNtNtNtNtNtCslPMlHj3qn2H_13multiversx_sc5types7managed7wrapped7builder22managed_buffer_builder20ManagedBufferBuilderINtNtNtNtCs1rODQd5oASQ_22multiversx_sc_scenario3api7impl_vh12vm_hooks_api10VMHooksApiNtNtB4t_9debug_api15DebugApiBackendEEINtNtNtNtB2H_13contract_base8wrappers10serializer21ExitCodecErrorHandlerB4o_EECs8iyf5MSkCde_5tests
FN:156,_RINvXsQ_Cs2eHPTk3TAlu_14common_structsNtB6_13PricingMethodNtNtNtCs5SUGlJDgeoS_19multiversx_sc_codec6single9nested_de12NestedDecode24dep_decode_or_handle_errINtNtNtNtNtCslPMlHj3qn2H_13multiversx_sc5types7managed10codec_util30managed_buffer_nested_de_input30ManagedBufferNestedDecodeInputINtNtNtNtCs1rODQd5oASQ_22multiversx_sc_scenario3api7impl_vh12vm_hooks_api10VMHooksApiNtNtB4F_9debug_api15DebugApiBackendEEINtNtNtB2F_7storage11storage_get22StorageGetErrorHandlerB4A_EECs8iyf5MSkCde_5tests
FN:156,_RINvXsR_Cs2eHPTk3TAlu_14common_structsNtB6_13PricingMethodNtNtNtCs5SUGlJDgeoS_19multiversx_sc_codec6single6top_en9TopEncode24top_encode_or_handle_errQINtNtNtNtNtCslPMlHj3qn2H_13multiversx_sc5types7managed5basic14managed_buffer13ManagedBufferINtNtNtNtCs1rODQd5oASQ_22multiversx_sc_scenario3api7impl_vh12vm_hooks_api10VMHooksApiNtNtB3W_10static_api16StaticApiBackendEEINtNtNtNtB2z_13contract_base8wrappers10serializer21ExitCodecErrorHandlerB3R_EECs8iyf5MSkCde_5tests
FN:156,_RINvXsS_Cs2eHPTk3TAlu_14common_structsNtB6_13PricingMethodNtNtNtCs5SUGlJDgeoS_19multiversx_sc_codec6single6top_de9TopDecode24top_decode_or_handle_errINtNtNtCslPMlHj3qn2H_13multiversx_sc2io12arg_de_input14ArgDecodeInputINtNtNtNtCs1rODQd5oASQ_22multiversx_sc_scenario3api7impl_vh12vm_hooks_api10VMHooksApiNtNtB3z_9debug_api15DebugApiBackendEEINtNtB2s_17arg_error_handler15ArgErrorHandlerB3u_EECs8iyf5MSkCde_5tests
FN:203,_RINvXsc_Cs2eHPTk3TAlu_14common_structsINtB6_14PriceFeedShortINtNtNtNtCs1rODQd5oASQ_22multiversx_sc_scenario3api7impl_vh12vm_hooks_api10VMHooksApiNtNtB11_9debug_api15DebugApiBackendEENtNtNtCs5SUGlJDgeoS_19multiversx_sc_codec6single6top_en9TopEncode24top_encode_or_handle_errINtNtNtCslPMlHj3qn2H_13multiversx_sc2io6finish16ApiOutputAdapterBW_EINtNtNtNtB4u_13contract_base8wrappers10serializer21ExitCodecErrorHandlerBW_EECs8iyf5MSkCde_5tests
FN:190,_RINvXsj_Cs2eHPTk3TAlu_14common_structsINtB6_14OracleProviderINtNtNtNtCs1rODQd5oASQ_22multiversx_sc_scenario3api7impl_vh12vm_hooks_api10VMHooksApiNtNtB11_9debug_api15DebugApiBackendEENtNtNtCs5SUGlJDgeoS_19multiversx_sc_codec6single6top_en9TopEncode24top_encode_or_handle_errINtNtNtCslPMlHj3qn2H_13multiversx_sc2io6finish16ApiOutputAdapterBW_EINtNtNtNtB4u_13contract_base8wrappers10serializer21ExitCodecErrorHandlerBW_EECs8iyf5MSkCde_5tests
FN:190,_RINvXsj_Cs2eHPTk3TAlu_14common_structsINtB6_14OracleProviderINtNtNtNtCs1rODQd5oASQ_22multiversx_sc_scenario3api7impl_vh12vm_hooks_api10VMHooksApiNtNtB11_9debug_api15DebugApiBackendEENtNtNtCs5SUGlJDgeoS_19multiversx_sc_codec6single6top_en9TopEncode24top_encode_or_handle_errINtNtNtCslPMlHj3qn2H_13multiversx_sc7storage11storage_set16StorageSetOutputBW_EINtNtNtNtB4u_13contract_base8wrappers10serializer21ExitCodecErrorHandlerBW_EECs8iyf5MSkCde_5tests
FN:190,_RINvXsk_Cs2eHPTk3TAlu_14common_structsINtB6_14OracleProviderINtNtNtNtCs1rODQd5oASQ_22multiversx_sc_scenario3api7impl_vh12vm_hooks_api10VMHooksApiNtNtB11_9debug_api15DebugApiBackendEENtNtNtCs5SUGlJDgeoS_19multiversx_sc_codec6single6top_de9TopDecode24top_decode_or_handle_errINtNtNtCslPMlHj3qn2H_13multiversx_sc7storage11storage_get15StorageGetInputBW_EINtB4q_22StorageGetErrorHandlerBW_EECs8iyf5MSkCde_5tests
FN:179,_RINvXsr_Cs2eHPTk3TAlu_14common_structsNtB6_14ExchangeSourceNtNtNtCs5SUGlJDgeoS_19multiversx_sc_codec6single9nested_en12NestedEncode24dep_encode_or_handle_errINtNtNtNtNtNtCslPMlHj3qn2H_13multiversx_sc5types7managed7wrapped7builder22managed_buffer_builder20ManagedBufferBuilderINtNtNtNtCs1rODQd5oASQ_22multiversx_sc_scenario3api7impl_vh12vm_hooks_api10VMHooksApiNtNtB4u_9debug_api15DebugApiBackendEEINtNtNtNtB2I_13contract_base8wrappers10serializer21ExitCodecErrorHandlerB4p_EECs8iyf5MSkCde_5tests
FN:179,_RINvXss_Cs2eHPTk3TAlu_14common_structsNtB6_14ExchangeSourceNtNtNtCs5SUGlJDgeoS_19multiversx_sc_codec6single9nested_de12NestedDecode24dep_decode_or_handle_errINtNtNtNtNtCslPMlHj3qn2H_13multiversx_sc5types7managed10codec_util30managed_buffer_nested_de_input30ManagedBufferNestedDecodeInputINtNtNtNtCs1rODQd5oASQ_22multiversx_sc_scenario3api7impl_vh12vm_hooks_api10VMHooksApiNtNtB4G_9debug_api15DebugApiBackendEEINtNtNtB2G_7storage11storage_get22StorageGetErrorHandlerB4B_EECs8iyf5MSkCde_5tests
FN:179,_RINvXst_Cs2eHPTk3TAlu_14common_structsNtB6_14ExchangeSourceNtNtNtCs5SUGlJDgeoS_19multiversx_sc_codec6single6top_en9TopEncode24top_encode_or_handle_errQINtNtNtNtNtCslPMlHj3qn2H_13multiversx_sc5types7managed5basic14managed_buffer13ManagedBufferINtNtNtNtCs1rODQd5oASQ_22multiversx_sc_scenario3api7impl_vh12vm_hooks_api10VMHooksApiNtNtB3X_10static_api16StaticApiBackendEEINtNtNtNtB2A_13contract_base8wrappers10serializer21ExitCodecErrorHandlerB3S_EECs8iyf5MSkCde_5tests
FN:179,_RINvXsu_Cs2eHPTk3TAlu_14common_structsNtB6_14ExchangeSourceNtNtNtCs5SUGlJDgeoS_19multiversx_sc_codec6single6top_de9TopDecode24top_decode_or_handle_errINtNtNtCslPMlHj3qn2H_13multiversx_sc2io12arg_de_input14ArgDecodeInputINtNtNtNtCs1rODQd5oASQ_22multiversx_sc_scenario3api7impl_vh12vm_hooks_api10VMHooksApiNtNtB3A_9debug_api15DebugApiBackendEEINtNtB2t_17arg_error_handler15ArgErrorHandlerB3v_EECs8iyf5MSkCde_5tests
FN:146,_RNCINvXs10_Cs2eHPTk3TAlu_14common_structsINtB9_25EgldOrEsdtTokenPaymentNewINtNtNtNtCs1rODQd5oASQ_22multiversx_sc_scenario3api7impl_vh12vm_hooks_api10VMHooksApiNtNtB1f_9debug_api15DebugApiBackendEENtNtNtNtNtCslPMlHj3qn2H_13multiversx_sc5types7managed7wrapped16managed_vec_item14ManagedVecItem16from_byte_readerNCNvMs2_NtB3c_11managed_vecINtB55_10ManagedVecB1a_BD_E7try_get0E0Cs8iyf5MSkCde_5tests
FN:146,_RNCINvXs10_Cs2eHPTk3TAlu_14common_structsINtB9_25EgldOrEsdtTokenPaymentNewINtNtNtNtCs1rODQd5oASQ_22multiversx_sc_scenario3api7impl_vh12vm_hooks_api10VMHooksApiNtNtB1f_9debug_api15DebugApiBackendEENtNtNtNtNtCslPMlHj3qn2H_13multiversx_sc5types7managed7wrapped16managed_vec_item14ManagedVecItem16from_byte_readerNCNvMs2_NtB3c_11managed_vecINtB55_10ManagedVecB1a_BD_E7try_get0Es0_0Cs8iyf5MSkCde_5tests
FN:146,_RNCINvXs10_Cs2eHPTk3TAlu_14common_structsINtB9_25EgldOrEsdtTokenPaymentNewINtNtNtNtCs1rODQd5oASQ_22multiversx_sc_scenario3api7impl_vh12vm_hooks_api10VMHooksApiNtNtB1f_9debug_api15DebugApiBackendEENtNtNtNtNtCslPMlHj3qn2H_13multiversx_sc5types7managed7wrapped16managed_vec_item14ManagedVecItem16from_byte_readerNCNvMs2_NtB3c_11managed_vecINtB55_10ManagedVecB1a_BD_E7try_get0Es_0Cs8iyf5MSkCde_5tests
FN:146,_RNCINvXs10_Cs2eHPTk3TAlu_14common_structsINtB9_25EgldOrEsdtTokenPaymentNewINtNtNtNtCs1rODQd5oASQ_22multiversx_sc_scenario3api7impl_vh12vm_hooks_api10VMHooksApiNtNtB1f_9debug_api15DebugApiBackendEENtNtNtNtNtCslPMlHj3qn2H_13multiversx_sc5types7managed7wrapped16managed_vec_item14ManagedVecItem16from_byte_readerNCNvXs0_NtB3c_22managed_vec_owned_iterINtB55_23ManagedVecOwnedIteratorB1a_BD_ENtNtNtNtCslGS7pEIChKc_4core4iter6traits8iterator8Iterator4next0E0Cs8iyf5MSkCde_5tests
FN:146,_RNCINvXs10_Cs2eHPTk3TAlu_14common_structsINtB9_25EgldOrEsdtTokenPaymentNewINtNtNtNtCs1rODQd5oASQ_22multiversx_sc_scenario3api7impl_vh12vm_hooks_api10VMHooksApiNtNtB1f_9debug_api15DebugApiBackendEENtNtNtNtNtCslPMlHj3qn2H_13multiversx_sc5types7managed7wrapped16managed_vec_item14ManagedVecItem16from_byte_readerNCNvXs0_NtB3c_22managed_vec_owned_iterINtB55_23ManagedVecOwnedIteratorB1a_BD_ENtNtNtNtCslGS7pEIChKc_4core4iter6traits8iterator8Iterator4next0Es0_0Cs8iyf5MSkCde_5tests
FN:146,_RNCINvXs10_Cs2eHPTk3TAlu_14common_structsINtB9_25EgldOrEsdtTokenPaymentNewINtNtNtNtCs1rODQd5oASQ_22multiversx_sc_scenario3api7impl_vh12vm_hooks_api10VMHooksApiNtNtB1f_9debug_api15DebugApiBackendEENtNtNtNtNtCslPMlHj3qn2H_13multiversx_sc5types7managed7wrapped16managed_vec_item14ManagedVecItem16from_byte_readerNCNvXs0_NtB3c_22managed_vec_owned_iterINtB55_23ManagedVecOwnedIteratorB1a_BD_ENtNtNtNtCslGS7pEIChKc_4core4iter6traits8iterator8Iterator4next0Es_0Cs8iyf5MSkCde_5tests
FN:146,_RNCINvXs10_Cs2eHPTk3TAlu_14common_structsINtB9_25EgldOrEsdtTokenPaymentNewINtNtNtNtCs1rODQd5oASQ_22multiversx_sc_scenario3api7impl_vh12vm_hooks_api10VMHooksApiNtNtB1f_9debug_api15DebugApiBackendEENtNtNtNtNtCslPMlHj3qn2H_13multiversx_sc5types7managed7wrapped16managed_vec_item14ManagedVecItem16into_byte_writeruNCNvMs2_NtB3c_11managed_vecINtB56_10ManagedVecB1a_BD_E4push0E0Cs8iyf5MSkCde_5tests
FN:146,_RNCINvXs10_Cs2eHPTk3TAlu_14common_structsINtB9_25EgldOrEsdtTokenPaymentNewINtNtNtNtCs1rODQd5oASQ_22multiversx_sc_scenario3api7impl_vh12vm_hooks_api10VMHooksApiNtNtB1f_9debug_api15DebugApiBackendEENtNtNtNtNtCslPMlHj3qn2H_13multiversx_sc5types7managed7wrapped16managed_vec_item14ManagedVecItem16into_byte_writeruNCNvMs2_NtB3c_11managed_vecINtB56_10ManagedVecB1a_BD_E4push0Es0_0Cs8iyf5MSkCde_5tests
FN:146,_RNCINvXs10_Cs2eHPTk3TAlu_14common_structsINtB9_25EgldOrEsdtTokenPaymentNewINtNtNtNtCs1rODQd5oASQ_22multiversx_sc_scenario3api7impl_vh12vm_hooks_api10VMHooksApiNtNtB1f_9debug_api15DebugApiBackendEENtNtNtNtNtCslPMlHj3qn2H_13multiversx_sc5types7managed7wrapped16managed_vec_item14ManagedVecItem16into_byte_writeruNCNvMs2_NtB3c_11managed_vecINtB56_10ManagedVecB1a_BD_E4push0Es_0Cs8iyf5MSkCde_5tests
FN:111,_RNCINvXs1B_Cs2eHPTk3TAlu_14common_structsINtB9_23AssetExtendedConfigViewINtNtNtNtCs1rODQd5oASQ_22multiversx_sc_scenario3api7impl_vh12vm_hooks_api10VMHooksApiNtNtB1d_9debug_api15DebugApiBackendEENtNtNtNtNtCslPMlHj3qn2H_13multiversx_sc5types7managed7wrapped16managed_vec_item14ManagedVecItem16from_byte_readerNCNvXs0_NtB3a_22managed_vec_owned_iterINtB53_23ManagedVecOwnedIteratorB18_BD_ENtNtNtNtCslGS7pEIChKc_4core4iter6traits8iterator8Iterator4next0E0Cs8iyf5MSkCde_5tests
FN:111,_RNCINvXs1B_Cs2eHPTk3TAlu_14common_structsINtB9_23AssetExtendedConfigViewINtNtNtNtCs1rODQd5oASQ_22multiversx_sc_scenario3api7impl_vh12vm_hooks_api10VMHooksApiNtNtB1d_9debug_api15DebugApiBackendEENtNtNtNtNtCslPMlHj3qn2H_13multiversx_sc5types7managed7wrapped16managed_vec_item14ManagedVecItem16from_byte_readerNCNvXs0_NtB3a_22managed_vec_owned_iterINtB53_23ManagedVecOwnedIteratorB18_BD_ENtNtNtNtCslGS7pEIChKc_4core4iter6traits8iterator8Iterator4next0Es0_0Cs8iyf5MSkCde_5tests
FN:111,_RNCINvXs1B_Cs2eHPTk3TAlu_14common_structsINtB9_23AssetExtendedConfigViewINtNtNtNtCs1rODQd5oASQ_22multiversx_sc_scenario3api7impl_vh12vm_hooks_api10VMHooksApiNtNtB1d_9debug_api15DebugApiBackendEENtNtNtNtNtCslPMlHj3qn2H_13multiversx_sc5types7managed7wrapped16managed_vec_item14ManagedVecItem16from_byte_readerNCNvXs0_NtB3a_22managed_vec_owned_iterINtB53_23ManagedVecOwnedIteratorB18_BD_ENtNtNtNtCslGS7pEIChKc_4core4iter6traits8iterator8Iterator4next0Es1_0Cs8iyf5MSkCde_5tests
FN:111,_RNCINvXs1B_Cs2eHPTk3TAlu_14common_structsINtB9_23AssetExtendedConfigViewINtNtNtNtCs1rODQd5oASQ_22multiversx_sc_scenario3api7impl_vh12vm_hooks_api10VMHooksApiNtNtB1d_9debug_api15DebugApiBackendEENtNtNtNtNtCslPMlHj3qn2H_13multiversx_sc5types7managed7wrapped16managed_vec_item14ManagedVecItem16from_byte_readerNCNvXs0_NtB3a_22managed_vec_owned_iterINtB53_23ManagedVecOwnedIteratorB18_BD_ENtNtNtNtCslGS7pEIChKc_4core4iter6traits8iterator8Iterator4next0Es_0Cs8iyf5MSkCde_5tests
FN:111,_RNCINvXs1B_Cs2eHPTk3TAlu_14common_structsINtB9_23AssetExtendedConfigViewINtNtNtNtCs1rODQd5oASQ_22multiversx_sc_scenario3api7impl_vh12vm_hooks_api10VMHooksApiNtNtB1d_9debug_api15DebugApiBackendEENtNtNtNtNtCslPMlHj3qn2H_13multiversx_sc5types7managed7wrapped16managed_vec_item14ManagedVecItem16into_byte_writeruNCNvMs2_NtB3a_11managed_vecINtB54_10ManagedVecB18_BD_E4push0E0Cs8iyf5MSkCde_5tests
FN:111,_RNCINvXs1B_Cs2eHPTk3TAlu_14common_structsINtB9_23AssetExtendedConfigViewINtNtNtNtCs1rODQd5oASQ_22multiversx_sc_scenario3api7impl_vh12vm_hooks_api10VMHooksApiNtNtB1d_9debug_api15DebugApiBackendEENtNtNtNtNtCslPMlHj3qn2H_13multiversx_sc5types7managed7wrapped16managed_vec_item14ManagedVecItem16into_byte_writeruNCNvMs2_NtB3a_11managed_vecINtB54_10ManagedVecB18_BD_E4push0Es0_0Cs8iyf5MSkCde_5tests
FN:111,_RNCINvXs1B_Cs2eHPTk3TAlu_14common_structsINtB9_23AssetExtendedConfigViewINtNtNtNtCs1rODQd5oASQ_22multiversx_sc_scenario3api7impl_vh12vm_hooks_api10VMHooksApiNtNtB1d_9debug_api15DebugApiBackendEENtNtNtNtNtCslPMlHj3qn2H_13multiversx_sc5types7managed7wrapped16managed_vec_item14ManagedVecItem16into_byte_writeruNCNvMs2_NtB3a_11managed_vecINtB54_10ManagedVecB18_BD_E4push0Es1_0Cs8iyf5MSkCde_5tests
FN:111,_RNCINvXs1B_Cs2eHPTk3TAlu_14common_structsINtB9_23AssetExtendedConfigViewINtNtNtNtCs1rODQd5oASQ_22multiversx_sc_scenario3api7impl_vh12vm_hooks_api10VMHooksApiNtNtB1d_9debug_api15DebugApiBackendEENtNtNtNtNtCslPMlHj3qn2H_13multiversx_sc5types7managed7wrapped16managed_vec_item14ManagedVecItem16into_byte_writeruNCNvMs2_NtB3a_11managed_vecINtB54_10ManagedVecB18_BD_E4push0Es_0Cs8iyf5MSkCde_5tests
FN:76,_RNCINvXs1J_Cs2eHPTk3TAlu_14common_structsINtB9_11AssetConfigINtNtNtNtCs1rODQd5oASQ_22multiversx_sc_scenario3api7impl_vh12vm_hooks_api10VMHooksApiNtNtB11_9debug_api15DebugApiBackendEENtNtNtNtNtCslPMlHj3qn2H_13multiversx_sc5types7managed7wrapped16managed_vec_item14ManagedVecItem16from_byte_readerNCINvXs1B_B9_INtB9_23AssetExtendedConfigViewBW_EB2U_16from_byte_readerNCNvXs0_NtB2Y_22managed_vec_owned_iterINtB5Z_23ManagedVecOwnedIteratorBW_B4W_ENtNtNtNtCslGS7pEIChKc_4core4iter6traits8iterator8Iterator4next0E0E0Cs8iyf5MSkCde_5tests
FN:76,_RNCINvXs1J_Cs2eHPTk3TAlu_14common_structsINtB9_11AssetConfigINtNtNtNtCs1rODQd5oASQ_22multiversx_sc_scenario3api7impl_vh12vm_hooks_api10VMHooksApiNtNtB11_9debug_api15DebugApiBackendEENtNtNtNtNtCslPMlHj3qn2H_13multiversx_sc5types7managed7wrapped16managed_vec_item14ManagedVecItem16from_byte_readerNCINvXs1B_B9_INtB9_23AssetExtendedConfigViewBW_EB2U_16from_byte_readerNCNvXs0_NtB2Y_22managed_vec_owned_iterINtB5Z_23ManagedVecOwnedIteratorBW_B4W_ENtNtNtNtCslGS7pEIChKc_4core4iter6traits8iterator8Iterator4next0E0Es0_0Cs8iyf5MSkCde_5tests
FN:76,_RNCINvXs1J_Cs2eHPTk3TAlu_14common_structsINtB9_11AssetConfigINtNtNtNtCs1rODQd5oASQ_22multiversx_sc_scenario3api7impl_vh12vm_hooks_api10VMHooksApiNtNtB11_9debug_api15DebugApiBackendEENtNtNtNtNtCslPMlHj3qn2H_13multiversx_sc5types7managed7wrapped16managed_vec_item14ManagedVecItem16from_byte_readerNCINvXs1B_B9_INtB9_23AssetExtendedConfigViewBW_EB2U_16from_byte_readerNCNvXs0_NtB2Y_22managed_vec_owned_iterINtB5Z_23ManagedVecOwnedIteratorBW_B4W_ENtNtNtNtCslGS7pEIChKc_4core4iter6traits8iterator8Iterator4next0E0Es1_0Cs8iyf5MSkCde_5tests
FN:76,_RNCINvXs1J_Cs2eHPTk3TAlu_14common_structsINtB9_11AssetConfigINtNtNtNtCs1rODQd5oASQ_22multiversx_sc_scenario3api7impl_vh12vm_hooks_api10VMHooksApiNtNtB11_9debug_api15DebugApiBackendEENtNtNtNtNtCslPMlHj3qn2H_13multiversx_sc5types7managed7wrapped16managed_vec_item14ManagedVecItem16from_byte_readerNCINvXs1B_B9_INtB9_23AssetExtendedConfigViewBW_EB2U_16from_byte_readerNCNvXs0_NtB2Y_22managed_vec_owned_iterINtB5Z_23ManagedVecOwnedIteratorBW_B4W_ENtNtNtNtCslGS7pEIChKc_4core4iter6traits8iterator8Iterator4next0E0Es2_0Cs8iyf5MSkCde_5tests
FN:76,_RNCINvXs1J_Cs2eHPTk3TAlu_14common_structsINtB9_11AssetConfigINtNtNtNtCs1rODQd5oASQ_22multiversx_sc_scenario3api7impl_vh12vm_hooks_api10VMHooksApiNtNtB11_9debug_api15DebugApiBackendEENtNtNtNtNtCslPMlHj3qn2H_13multiversx_sc5types7managed7wrapped16managed_vec_item14ManagedVecItem16from_byte_readerNCINvXs1B_B9_INtB9_23AssetExtendedConfigViewBW_EB2U_16from_byte_readerNCNvXs0_NtB2Y_22managed_vec_owned_iterINtB5Z_23ManagedVecOwnedIteratorBW_B4W_ENtNtNtNtCslGS7pEIChKc_4core4iter6traits8iterator8Iterator4next0E0Es3_0Cs8iyf5MSkCde_5tests
FN:76,_RNCINvXs1J_Cs2eHPTk3TAlu_14common_structsINtB9_11AssetConfigINtNtNtNtCs1rODQd5oASQ_22multiversx_sc_scenario3api7impl_vh12vm_hooks_api10VMHooksApiNtNtB11_9debug_api15DebugApiBackendEENtNtNtNtNtCslPMlHj3qn2H_13multiversx_sc5types7managed7wrapped16managed_vec_item14ManagedVecItem16from_byte_readerNCINvXs1B_B9_INtB9_23AssetExtendedConfigViewBW_EB2U_16from_byte_readerNCNvXs0_NtB2Y_22managed_vec_owned_iterINtB5Z_23ManagedVecOwnedIteratorBW_B4W_ENtNtNtNtCslGS7pEIChKc_4core4iter6traits8iterator8Iterator4next0E0Es4_0Cs8iyf5MSkCde_5tests
FN:76,_RNCINvXs1J_Cs2eHPTk3TAlu_14common_structsINtB9_11AssetConfigINtNtNtNtCs1rODQd5oASQ_22multiversx_sc_scenario3api7impl_vh12vm_hooks_api10VMHooksApiNtNtB11_9debug_api15DebugApiBackendEENtNtNtNtNtCslPMlHj3qn2H_13multiversx_sc5types7managed7wrapped16managed_vec_item14ManagedVecItem16from_byte_readerNCINvXs1B_B9_INtB9_23AssetExtendedConfigViewBW_EB2U_16from_byte_readerNCNvXs0_NtB2Y_22managed_vec_owned_iterINtB5Z_23ManagedVecOwnedIteratorBW_B4W_ENtNtNtNtCslGS7pEIChKc_4core4iter6traits8iterator8Iterator4next0E0Es5_0Cs8iyf5MSkCde_5tests
FN:76,_RNCINvXs1J_Cs2eHPTk3TAlu_14common_structsINtB9_11AssetConfigINtNtNtNtCs1rODQd5oASQ_22multiversx_sc_scenario3api7impl_vh12vm_hooks_api10VMHooksApiNtNtB11_9debug_api15DebugApiBackendEENtNtNtNtNtCslPMlHj3qn2H_13multiversx_sc5types7managed7wrapped16managed_vec_item14ManagedVecItem16from_byte_readerNCINvXs1B_B9_INtB9_23AssetExtendedConfigViewBW_EB2U_16from_byte_readerNCNvXs0_NtB2Y_22managed_vec_owned_iterINtB5Z_23ManagedVecOwnedIteratorBW_B4W_ENtNtNtNtCslGS7pEIChKc_4core4iter6traits8iterator8Iterator4next0E0Es6_0Cs8iyf5MSkCde_5tests
FN:76,_RNCINvXs1J_Cs2eHPTk3TAlu_14common_structsINtB9_11AssetConfigINtNtNtNtCs1rODQd5oASQ_22multiversx_sc_scenario3api7impl_vh12vm_hooks_api10VMHooksApiNtNtB11_9debug_api15DebugApiBackendEENtNtNtNtNtCslPMlHj3qn2H_13multiversx_sc5types7managed7wrapped16managed_vec_item14ManagedVecItem16from_byte_readerNCINvXs1B_B9_INtB9_23AssetExtendedConfigViewBW_EB2U_16from_byte_readerNCNvXs0_NtB2Y_22managed_vec_owned_iterINtB5Z_23ManagedVecOwnedIteratorBW_B4W_ENtNtNtNtCslGS7pEIChKc_4core4iter6traits8iterator8Iterator4next0E0Es7_0Cs8iyf5MSkCde_5tests
FN:76,_RNCINvXs1J_Cs2eHPTk3TAlu_14common_structsINtB9_11AssetConfigINtNtNtNtCs1rODQd5oASQ_22multiversx_sc_scenario3api7impl_vh12vm_hooks_api10VMHooksApiNtNtB11_9debug_api15DebugApiBackendEENtNtNtNtNtCslPMlHj3qn2H_13multiversx_sc5types7managed7wrapped16managed_vec_item14ManagedVecItem16from_byte_readerNCINvXs1B_B9_INtB9_23AssetExtendedConfigViewBW_EB2U_16from_byte_readerNCNvXs0_NtB2Y_22managed_vec_owned_iterINtB5Z_23ManagedVecOwnedIteratorBW_B4W_ENtNtNtNtCslGS7pEIChKc_4core4iter6traits8iterator8Iterator4next0E0Es8_0Cs8iyf5MSkCde_5tests
FN:76,_RNCINvXs1J_Cs2eHPTk3TAlu_14common_structsINtB9_11AssetConfigINtNtNtNtCs1rODQd5oASQ_22multiversx_sc_scenario3api7impl_vh12vm_hooks_api10VMHooksApiNtNtB11_9debug_api15DebugApiBackendEENtNtNtNtNtCslPMlHj3qn2H_13multiversx_sc5types7managed7wrapped16managed_vec_item14ManagedVecItem16from_byte_readerNCINvXs1B_B9_INtB9_23AssetExtendedConfigViewBW_EB2U_16from_byte_readerNCNvXs0_NtB2Y_22managed_vec_owned_iterINtB5Z_23ManagedVecOwnedIteratorBW_B4W_ENtNtNtNtCslGS7pEIChKc_4core4iter6traits8iterator8Iterator4next0E0Es9_0Cs8iyf5MSkCde_5tests
FN:76,_RNCINvXs1J_Cs2eHPTk3TAlu_14common_structsINtB9_11AssetConfigINtNtNtNtCs1rODQd5oASQ_22multiversx_sc_scenario3api7impl_vh12vm_hooks_api10VMHooksApiNtNtB11_9debug_api15DebugApiBackendEENtNtNtNtNtCslPMlHj3qn2H_13multiversx_sc5types7managed7wrapped16managed_vec_item14ManagedVecItem16from_byte_readerNCINvXs1B_B9_INtB9_23AssetExtendedConfigViewBW_EB2U_16from_byte_readerNCNvXs0_NtB2Y_22managed_vec_owned_iterINtB5Z_23ManagedVecOwnedIteratorBW_B4W_ENtNtNtNtCslGS7pEIChKc_4core4iter6traits8iterator8Iterator4next0E0Es_0Cs8iyf5MSkCde_5tests
FN:76,_RNCINvXs1J_Cs2eHPTk3TAlu_14common_structsINtB9_11AssetConfigINtNtNtNtCs1rODQd5oASQ_22multiversx_sc_scenario3api7impl_vh12vm_hooks_api10VMHooksApiNtNtB11_9debug_api15DebugApiBackendEENtNtNtNtNtCslPMlHj3qn2H_13multiversx_sc5types7managed7wrapped16managed_vec_item14ManagedVecItem16from_byte_readerNCINvXs1B_B9_INtB9_23AssetExtendedConfigViewBW_EB2U_16from_byte_readerNCNvXs0_NtB2Y_22managed_vec_owned_iterINtB5Z_23ManagedVecOwnedIteratorBW_B4W_ENtNtNtNtCslGS7pEIChKc_4core4iter6traits8iterator8Iterator4next0E0Esa_0Cs8iyf5MSkCde_5tests
FN:76,_RNCINvXs1J_Cs2eHPTk3TAlu_14common_structsINtB9_11AssetConfigINtNtNtNtCs1rODQd5oASQ_22multiversx_sc_scenario3api7impl_vh12vm_hooks_api10VMHooksApiNtNtB11_9debug_api15DebugApiBackendEENtNtNtNtNtCslPMlHj3qn2H_13multiversx_sc5types7managed7wrapped16managed_vec_item14ManagedVecItem16from_byte_readerNCINvXs1B_B9_INtB9_23AssetExtendedConfigViewBW_EB2U_16from_byte_readerNCNvXs0_NtB2Y_22managed_vec_owned_iterINtB5Z_23ManagedVecOwnedIteratorBW_B4W_ENtNtNtNtCslGS7pEIChKc_4core4iter6traits8iterator8Iterator4next0E0Esb_0Cs8iyf5MSkCde_5tests
FN:76,_RNCINvXs1J_Cs2eHPTk3TAlu_14common_structsINtB9_11AssetConfigINtNtNtNtCs1rODQd5oASQ_22multiversx_sc_scenario3api7impl_vh12vm_hooks_api10VMHooksApiNtNtB11_9debug_api15DebugApiBackendEENtNtNtNtNtCslPMlHj3qn2H_13multiversx_sc5types7managed7wrapped16managed_vec_item14ManagedVecItem16from_byte_readerNCINvXs1B_B9_INtB9_23AssetExtendedConfigViewBW_EB2U_16from_byte_readerNCNvXs0_NtB2Y_22managed_vec_owned_iterINtB5Z_23ManagedVecOwnedIteratorBW_B4W_ENtNtNtNtCslGS7pEIChKc_4core4iter6traits8iterator8Iterator4next0E0Esc_0Cs8iyf5MSkCde_5tests
FN:76,_RNCINvXs1J_Cs2eHPTk3TAlu_14common_structsINtB9_11AssetConfigINtNtNtNtCs1rODQd5oASQ_22multiversx_sc_scenario3api7impl_vh12vm_hooks_api10VMHooksApiNtNtB11_9debug_api15DebugApiBackendEENtNtNtNtNtCslPMlHj3qn2H_13multiversx_sc5types7managed7wrapped16managed_vec_item14ManagedVecItem16into_byte_writeruNCINvXs1B_B9_INtB9_23AssetExtendedConfigViewBW_EB2U_16into_byte_writeruNCNvMs2_NtB2Y_11managed_vecINtB61_10ManagedVecBW_B4X_E4push0E0E0Cs8iyf5MSkCde_5tests
FN:76,_RNCINvXs1J_Cs2eHPTk3TAlu_14common_structsINtB9_11AssetConfigINtNtNtNtCs1rODQd5oASQ_22multiversx_sc_scenario3api7impl_vh12vm_hooks_api10VMHooksApiNtNtB11_9debug_api15DebugApiBackendEENtNtNtNtNtCslPMlHj3qn2H_13multiversx_sc5types7managed7wrapped16managed_vec_item14ManagedVecItem16into_byte_writeruNCINvXs1B_B9_INtB9_23AssetExtendedConfigViewBW_EB2U_16into_byte_writeruNCNvMs2_NtB2Y_11managed_vecINtB61_10ManagedVecBW_B4X_E4push0E0Es0_0Cs8iyf5MSkCde_5tests
FN:76,_RNCINvXs1J_Cs2eHPTk3TAlu_14common_structsINtB9_11AssetConfigINtNtNtNtCs1rODQd5oASQ_22multiversx_sc_scenario3api7impl_vh12vm_hooks_api10VMHooksApiNtNtB11_9debug_api15DebugApiBackendEENtNtNtNtNtCslPMlHj3qn2H_13multiversx_sc5types7managed7wrapped16managed_vec_item14ManagedVecItem16into_byte_writeruNCINvXs1B_B9_INtB9_23AssetExtendedConfigViewBW_EB2U_16into_byte_writeruNCNvMs2_NtB2Y_11managed_vecINtB61_10ManagedVecBW_B4X_E4push0E0Es1_0Cs8iyf5MSkCde_5tests
FN:76,_RNCINvXs1J_Cs2eHPTk3TAlu_14common_structsINtB9_11AssetConfigINtNtNtNtCs1rODQd5oASQ_22multiversx_sc_scenario3api7impl_vh12vm_hooks_api10VMHooksApiNtNtB11_9debug_api15DebugApiBackendEENtNtNtNtNtCslPMlHj3qn2H_13multiversx_sc5types7managed7wrapped16managed_vec_item14ManagedVecItem16into_byte_writeruNCINvXs1B_B9_INtB9_23AssetExtendedConfigViewBW_EB2U_16into_byte_writeruNCNvMs2_NtB2Y_11managed_vecINtB61_10ManagedVecBW_B4X_E4push0E0Es2_0Cs8iyf5MSkCde_5tests
FN:76,_RNCINvXs1J_Cs2eHPTk3TAlu_14common_structsINtB9_11AssetConfigINtNtNtNtCs1rODQd5oASQ_22multiversx_sc_scenario3api7impl_vh12vm_hooks_api10VMHooksApiNtNtB11_9debug_api15DebugApiBackendEENtNtNtNtNtCslPMlHj3qn2H_13multiversx_sc5types7managed7wrapped16managed_vec_item14ManagedVecItem16into_byte_writeruNCINvXs1B_B9_INtB9_23AssetExtendedConfigViewBW_EB2U_16into_byte_writeruNCNvMs2_NtB2Y_11managed_vecINtB61_10ManagedVecBW_B4X_E4push0E0Es3_0Cs8iyf5MSkCde_5tests
FN:76,_RNCINvXs1J_Cs2eHPTk3TAlu_14common_structsINtB9_11AssetConfigINtNtNtNtCs1rODQd5oASQ_22multiversx_sc_scenario3api7impl_vh12vm_hooks_api10VMHooksApiNtNtB11_9debug_api15DebugApiBackendEENtNtNtNtNtCslPMlHj3qn2H_13multiversx_sc5types7managed7wrapped16managed_vec_item14ManagedVecItem16into_byte_writeruNCINvXs1B_B9_INtB9_23AssetExtendedConfigViewBW_EB2U_16into_byte_writeruNCNvMs2_NtB2Y_11managed_vecINtB61_10ManagedVecBW_B4X_E4push0E0Es4_0Cs8iyf5MSkCde_5tests
FN:76,_RNCINvXs1J_Cs2eHPTk3TAlu_14common_structsINtB9_11AssetConfigINtNtNtNtCs1rODQd5oASQ_22multiversx_sc_scenario3api7impl_vh12vm_hooks_api10VMHooksApiNtNtB11_9debug_api15DebugApiBackendEENtNtNtNtNtCslPMlHj3qn2H_13multiversx_sc5types7managed7wrapped16managed_vec_item14ManagedVecItem16into_byte_writeruNCINvXs1B_B9_INtB9_23AssetExtendedConfigViewBW_EB2U_16into_byte_writeruNCNvMs2_NtB2Y_11managed_vecINtB61_10ManagedVecBW_B4X_E4push0E0Es5_0Cs8iyf5MSkCde_5tests
FN:76,_RNCINvXs1J_Cs2eHPTk3TAlu_14common_structsINtB9_11AssetConfigINtNtNtNtCs1rODQd5oASQ_22multiversx_sc_scenario3api7impl_vh12vm_hooks_api10VMHooksApiNtNtB11_9debug_api15DebugApiBackendEENtNtNtNtNtCslPMlHj3qn2H_13multiversx_sc5types7managed7wrapped16managed_vec_item14ManagedVecItem16into_byte_writeruNCINvXs1B_B9_INtB9_23AssetExtendedConfigViewBW_EB2U_16into_byte_writeruNCNvMs2_NtB2Y_11managed_vecINtB61_10ManagedVecBW_B4X_E4push0E0Es6_0Cs8iyf5MSkCde_5tests
FN:76,_RNCINvXs1J_Cs2eHPTk3TAlu_14common_structsINtB9_11AssetConfigINtNtNtNtCs1rODQd5oASQ_22multiversx_sc_scenario3api7impl_vh12vm_hooks_api10VMHooksApiNtNtB11_9debug_api15DebugApiBackendEENtNtNtNtNtCslPMlHj3qn2H_13multiversx_sc5types7managed7wrapped16managed_vec_item14ManagedVecItem16into_byte_writeruNCINvXs1B_B9_INtB9_23AssetExtendedConfigViewBW_EB2U_16into_byte_writeruNCNvMs2_NtB2Y_11managed_vecINtB61_10ManagedVecBW_B4X_E4push0E0Es7_0Cs8iyf5MSkCde_5tests
FN:76,_RNCINvXs1J_Cs2eHPTk3TAlu_14common_structsINtB9_11AssetConfigINtNtNtNtCs1rODQd5oASQ_22multiversx_sc_scenario3api7impl_vh12vm_hooks_api10VMHooksApiNtNtB11_9debug_api15DebugApiBackendEENtNtNtNtNtCslPMlHj3qn2H_13multiversx_sc5types7managed7wrapped16managed_vec_item14ManagedVecItem16into_byte_writeruNCINvXs1B_B9_INtB9_23AssetExtendedConfigViewBW_EB2U_16into_byte_writeruNCNvMs2_NtB2Y_11managed_vecINtB61_10ManagedVecBW_B4X_E4push0E0Es8_0Cs8iyf5MSkCde_5tests
FN:76,_RNCINvXs1J_Cs2eHPTk3TAlu_14common_structsINtB9_11AssetConfigINtNtNtNtCs1rODQd5oASQ_22multiversx_sc_scenario3api7impl_vh12vm_hooks_api10VMHooksApiNtNtB11_9debug_api15DebugApiBackendEENtNtNtNtNtCslPMlHj3qn2H_13multiversx_sc5types7managed7wrapped16managed_vec_item14ManagedVecItem16into_byte_writeruNCINvXs1B_B9_INtB9_23AssetExtendedConfigViewBW_EB2U_16into_byte_writeruNCNvMs2_NtB2Y_11managed_vecINtB61_10ManagedVecBW_B4X_E4push0E0Es9_0Cs8iyf5MSkCde_5tests
FN:76,_RNCINvXs1J_Cs2eHPTk3TAlu_14common_structsINtB9_11AssetConfigINtNtNtNtCs1rODQd5oASQ_22multiversx_sc_scenario3api7impl_vh12vm_hooks_api10VMHooksApiNtNtB11_9debug_api15DebugApiBackendEENtNtNtNtNtCslPMlHj3qn2H_13multiversx_sc5types7managed7wrapped16managed_vec_item14ManagedVecItem16into_byte_writeruNCINvXs1B_B9_INtB9_23AssetExtendedConfigViewBW_EB2U_16into_byte_writeruNCNvMs2_NtB2Y_11managed_vecINtB61_10ManagedVecBW_B4X_E4push0E0Es_0Cs8iyf5MSkCde_5tests
FN:76,_RNCINvXs1J_Cs2eHPTk3TAlu_14common_structsINtB9_11AssetConfigINtNtNtNtCs1rODQd5oASQ_22multiversx_sc_scenario3api7impl_vh12vm_hooks_api10VMHooksApiNtNtB11_9debug_api15DebugApiBackendEENtNtNtNtNtCslPMlHj3qn2H_13multiversx_sc5types7managed7wrapped16managed_vec_item14ManagedVecItem16into_byte_writeruNCINvXs1B_B9_INtB9_23AssetExtendedConfigViewBW_EB2U_16into_byte_writeruNCNvMs2_NtB2Y_11managed_vecINtB61_10ManagedVecBW_B4X_E4push0E0Esa_0Cs8iyf5MSkCde_5tests
FN:76,_RNCINvXs1J_Cs2eHPTk3TAlu_14common_structsINtB9_11AssetConfigINtNtNtNtCs1rODQd5oASQ_22multiversx_sc_scenario3api7impl_vh12vm_hooks_api10VMHooksApiNtNtB11_9debug_api15DebugApiBackendEENtNtNtNtNtCslPMlHj3qn2H_13multiversx_sc5types7managed7wrapped16managed_vec_item14ManagedVecItem16into_byte_writeruNCINvXs1B_B9_INtB9_23AssetExtendedConfigViewBW_EB2U_16into_byte_writeruNCNvMs2_NtB2Y_11managed_vecINtB61_10ManagedVecBW_B4X_E4push0E0Esb_0Cs8iyf5MSkCde_5tests
FN:76,_RNCINvXs1J_Cs2eHPTk3TAlu_14common_structsINtB9_11AssetConfigINtNtNtNtCs1rODQd5oASQ_22multiversx_sc_scenario3api7impl_vh12vm_hooks_api10VMHooksApiNtNtB11_9debug_api15DebugApiBackendEENtNtNtNtNtCslPMlHj3qn2H_13multiversx_sc5types7managed7wrapped16managed_vec_item14ManagedVecItem16into_byte_writeruNCINvXs1B_B9_INtB9_23AssetExtendedConfigViewBW_EB2U_16into_byte_writeruNCNvMs2_NtB2Y_11managed_vecINtB61_10ManagedVecBW_B4X_E4push0E0Esc_0Cs8iyf5MSkCde_5tests
FN:29,_RNCINvXs1S_Cs2eHPTk3TAlu_14common_structsINtB9_15AccountPositionINtNtNtNtCs1rODQd5oASQ_22multiversx_sc_scenario3api7impl_vh12vm_hooks_api10VMHooksApiNtNtB15_9debug_api15DebugApiBackendEENtNtNtNtNtCslPMlHj3qn2H_13multiversx_sc5types7managed7wrapped16managed_vec_item14ManagedVecItem16from_byte_readerNCNvMs2_NtB32_11managed_vecINtB4V_10ManagedVecB10_BD_E7try_get0E0Cs8iyf5MSkCde_5tests
FN:29,_RNCINvXs1S_Cs2eHPTk3TAlu_14common_structsINtB9_15AccountPositionINtNtNtNtCs1rODQd5oASQ_22multiversx_sc_scenario3api7impl_vh12vm_hooks_api10VMHooksApiNtNtB15_9debug_api15DebugApiBackendEENtNtNtNtNtCslPMlHj3qn2H_13multiversx_sc5types7managed7wrapped16managed_vec_item14ManagedVecItem16from_byte_readerNCNvMs2_NtB32_11managed_vecINtB4V_10ManagedVecB10_BD_E7try_get0Es0_0Cs8iyf5MSkCde_5tests
FN:29,_RNCINvXs1S_Cs2eHPTk3TAlu_14common_structsINtB9_15AccountPositionINtNtNtNtCs1rODQd5oASQ_22multiversx_sc_scenario3api7impl_vh12vm_hooks_api10VMHooksApiNtNtB15_9debug_api15DebugApiBackendEENtNtNtNtNtCslPMlHj3qn2H_13multiversx_sc5types7managed7wrapped16managed_vec_item14ManagedVecItem16from_byte_readerNCNvMs2_NtB32_11managed_vecINtB4V_10ManagedVecB10_BD_E7try_get0Es1_0Cs8iyf5MSkCde_5tests
FN:29,_RNCINvXs1S_Cs2eHPTk3TAlu_14common_structsINtB9_15AccountPositionINtNtNtNtCs1rODQd5oASQ_22multiversx_sc_scenario3api7impl_vh12vm_hooks_api10VMHooksApiNtNtB15_9debug_api15DebugApiBackendEENtNtNtNtNtCslPMlHj3qn2H_13multiversx_sc5types7managed7wrapped16managed_vec_item14ManagedVecItem16from_byte_readerNCNvMs2_NtB32_11managed_vecINtB4V_10ManagedVecB10_BD_E7try_get0Es2_0Cs8iyf5MSkCde_5tests
FN:29,_RNCINvXs1S_Cs2eHPTk3TAlu_14common_structsINtB9_15AccountPositionINtNtNtNtCs1rODQd5oASQ_22multiversx_sc_scenario3api7impl_vh12vm_hooks_api10VMHooksApiNtNtB15_9debug_api15DebugApiBackendEENtNtNtNtNtCslPMlHj3qn2H_13multiversx_sc5types7managed7wrapped16managed_vec_item14ManagedVecItem16from_byte_readerNCNvMs2_NtB32_11managed_vecINtB4V_10ManagedVecB10_BD_E7try_get0Es3_0Cs8iyf5MSkCde_5tests
FN:29,_RNCINvXs1S_Cs2eHPTk3TAlu_14common_structsINtB9_15AccountPositionINtNtNtNtCs1rODQd5oASQ_22multiversx_sc_scenario3api7impl_vh12vm_hooks_api10VMHooksApiNtNtB15_9debug_api15DebugApiBackendEENtNtNtNtNtCslPMlHj3qn2H_13multiversx_sc5types7managed7wrapped16managed_vec_item14ManagedVecItem16from_byte_readerNCNvMs2_NtB32_11managed_vecINtB4V_10ManagedVecB10_BD_E7try_get0Es4_0Cs8iyf5MSkCde_5tests
FN:29,_RNCINvXs1S_Cs2eHPTk3TAlu_14common_structsINtB9_15AccountPositionINtNtNtNtCs1rODQd5oASQ_22multiversx_sc_scenario3api7impl_vh12vm_hooks_api10VMHooksApiNtNtB15_9debug_api15DebugApiBackendEENtNtNtNtNtCslPMlHj3qn2H_13multiversx_sc5types7managed7wrapped16managed_vec_item14ManagedVecItem16from_byte_readerNCNvMs2_NtB32_11managed_vecINtB4V_10ManagedVecB10_BD_E7try_get0Es5_0Cs8iyf5MSkCde_5tests
FN:29,_RNCINvXs1S_Cs2eHPTk3TAlu_14common_structsINtB9_15AccountPositionINtNtNtNtCs1rODQd5oASQ_22multiversx_sc_scenario3api7impl_vh12vm_hooks_api10VMHooksApiNtNtB15_9debug_api15DebugApiBackendEENtNtNtNtNtCslPMlHj3qn2H_13multiversx_sc5types7managed7wrapped16managed_vec_item14ManagedVecItem16from_byte_readerNCNvMs2_NtB32_11managed_vecINtB4V_10ManagedVecB10_BD_E7try_get0Es6_0Cs8iyf5MSkCde_5tests
FN:29,_RNCINvXs1S_Cs2eHPTk3TAlu_14common_structsINtB9_15AccountPositionINtNtNtNtCs1rODQd5oASQ_22multiversx_sc_scenario3api7impl_vh12vm_hooks_api10VMHooksApiNtNtB15_9debug_api15DebugApiBackendEENtNtNtNtNtCslPMlHj3qn2H_13multiversx_sc5types7managed7wrapped16managed_vec_item14ManagedVecItem16from_byte_readerNCNvMs2_NtB32_11managed_vecINtB4V_10ManagedVecB10_BD_E7try_get0Es7_0Cs8iyf5MSkCde_5tests
FN:29,_RNCINvXs1S_Cs2eHPTk3TAlu_14common_structsINtB9_15AccountPositionINtNtNtNtCs1rODQd5oASQ_22multiversx_sc_scenario3api7impl_vh12vm_hooks_api10VMHooksApiNtNtB15_9debug_api15DebugApiBackendEENtNtNtNtNtCslPMlHj3qn2H_13multiversx_sc5types7managed7wrapped16managed_vec_item14ManagedVecItem16from_byte_readerNCNvMs2_NtB32_11managed_vecINtB4V_10ManagedVecB10_BD_E7try_get0Es_0Cs8iyf5MSkCde_5tests
FN:29,_RNCINvXs1S_Cs2eHPTk3TAlu_14common_structsINtB9_15AccountPositionINtNtNtNtCs1rODQd5oASQ_22multiversx_sc_scenario3api7impl_vh12vm_hooks_api10VMHooksApiNtNtB15_9debug_api15DebugApiBackendEENtNtNtNtNtCslPMlHj3qn2H_13multiversx_sc5types7managed7wrapped16managed_vec_item14ManagedVecItem16from_byte_readerNCNvXs0_NtB32_22managed_vec_owned_iterINtB4V_23ManagedVecOwnedIteratorB10_BD_ENtNtNtNtCslGS7pEIChKc_4core4iter6traits8iterator8Iterator4next0E0Cs8iyf5MSkCde_5tests
FN:29,_RNCINvXs1S_Cs2eHPTk3TAlu_14common_structsINtB9_15AccountPositionINtNtNtNtCs1rODQd5oASQ_22multiversx_sc_scenario3api7impl_vh12vm_hooks_api10VMHooksApiNtNtB15_9debug_api15DebugApiBackendEENtNtNtNtNtCslPMlHj3qn2H_13multiversx_sc5types7managed7wrapped16managed_vec_item14ManagedVecItem16from_byte_readerNCNvXs0_NtB32_22managed_vec_owned_iterINtB4V_23ManagedVecOwnedIteratorB10_BD_ENtNtNtNtCslGS7pEIChKc_4core4iter6traits8iterator8Iterator4next0Es0_0Cs8iyf5MSkCde_5tests
FN:29,_RNCINvXs1S_Cs2eHPTk3TAlu_14common_structsINtB9_15AccountPositionINtNtNtNtCs1rODQd5oASQ_22multiversx_sc_scenario3api7impl_vh12vm_hooks_api10VMHooksApiNtNtB15_9debug_api15DebugApiBackendEENtNtNtNtNtCslPMlHj3qn2H_13multiversx_sc5types7managed7wrapped16managed_vec_item14ManagedVecItem16from_byte_readerNCNvXs0_NtB32_22managed_vec_owned_iterINtB4V_23ManagedVecOwnedIteratorB10_BD_ENtNtNtNtCslGS7pEIChKc_4core4iter6traits8iterator8Iterator4next0Es1_0Cs8iyf5MSkCde_5tests
FN:29,_RNCINvXs1S_Cs2eHPTk3TAlu_14common_structsINtB9_15AccountPositionINtNtNtNtCs1rODQd5oASQ_22multiversx_sc_scenario3api7impl_vh12vm_hooks_api10VMHooksApiNtNtB15_9debug_api15DebugApiBackendEENtNtNtNtNtCslPMlHj3qn2H_13multiversx_sc5types7managed7wrapped16managed_vec_item14ManagedVecItem16from_byte_readerNCNvXs0_NtB32_22managed_vec_owned_iterINtB4V_23ManagedVecOwnedIteratorB10_BD_ENtNtNtNtCslGS7pEIChKc_4core4iter6traits8iterator8Iterator4next0Es2_0Cs8iyf5MSkCde_5tests
FN:29,_RNCINvXs1S_Cs2eHPTk3TAlu_14common_structsINtB9_15AccountPositionINtNtNtNtCs1rODQd5oASQ_22multiversx_sc_scenario3api7impl_vh12vm_hooks_api10VMHooksApiNtNtB15_9debug_api15DebugApiBackendEENtNtNtNtNtCslPMlHj3qn2H_13multiversx_sc5types7managed7wrapped16managed_vec_item14ManagedVecItem16from_byte_readerNCNvXs0_NtB32_22managed_vec_owned_iterINtB4V_23ManagedVecOwnedIteratorB10_BD_ENtNtNtNtCslGS7pEIChKc_4core4iter6traits8iterator8Iterator4next0Es3_0Cs8iyf5MSkCde_5tests
FN:29,_RNCINvXs1S_Cs2eHPTk3TAlu_14common_structsINtB9_15AccountPositionINtNtNtNtCs1rODQd5oASQ_22multiversx_sc_scenario3api7impl_vh12vm_hooks_api10VMHooksApiNtNtB15_9debug_api15DebugApiBackendEENtNtNtNtNtCslPMlHj3qn2H_13multiversx_sc5types7managed7wrapped16managed_vec_item14ManagedVecItem16from_byte_readerNCNvXs0_NtB32_22managed_vec_owned_iterINtB4V_23ManagedVecOwnedIteratorB10_BD_ENtNtNtNtCslGS7pEIChKc_4core4iter6traits8iterator8Iterator4next0Es4_0Cs8iyf5MSkCde_5tests
FN:29,_RNCINvXs1S_Cs2eHPTk3TAlu_14common_structsINtB9_15AccountPositionINtNtNtNtCs1rODQd5oASQ_22multiversx_sc_scenario3api7impl_vh12vm_hooks_api10VMHooksApiNtNtB15_9debug_api15DebugApiBackendEENtNtNtNtNtCslPMlHj3qn2H_13multiversx_sc5types7managed7wrapped16managed_vec_item14ManagedVecItem16from_byte_readerNCNvXs0_NtB32_22managed_vec_owned_iterINtB4V_23ManagedVecOwnedIteratorB10_BD_ENtNtNtNtCslGS7pEIChKc_4core4iter6traits8iterator8Iterator4next0Es5_0Cs8iyf5MSkCde_5tests
FN:29,_RNCINvXs1S_Cs2eHPTk3TAlu_14common_structsINtB9_15AccountPositionINtNtNtNtCs1rODQd5oASQ_22multiversx_sc_scenario3api7impl_vh12vm_hooks_api10VMHooksApiNtNtB15_9debug_api15DebugApiBackendEENtNtNtNtNtCslPMlHj3qn2H_13multiversx_sc5types7managed7wrapped16managed_vec_item14ManagedVecItem16from_byte_readerNCNvXs0_NtB32_22managed_vec_owned_iterINtB4V_23ManagedVecOwnedIteratorB10_BD_ENtNtNtNtCslGS7pEIChKc_4core4iter6traits8iterator8Iterator4next0Es6_0Cs8iyf5MSkCde_5tests
FN:29,_RNCINvXs1S_Cs2eHPTk3TAlu_14common_structsINtB9_15AccountPositionINtNtNtNtCs1rODQd5oASQ_22multiversx_sc_scenario3api7impl_vh12vm_hooks_api10VMHooksApiNtNtB15_9debug_api15DebugApiBackendEENtNtNtNtNtCslPMlHj3qn2H_13multiversx_sc5types7managed7wrapped16managed_vec_item14ManagedVecItem16from_byte_readerNCNvXs0_NtB32_22managed_vec_owned_iterINtB4V_23ManagedVecOwnedIteratorB10_BD_ENtNtNtNtCslGS7pEIChKc_4core4iter6traits8iterator8Iterator4next0Es7_0Cs8iyf5MSkCde_5tests
FN:29,_RNCINvXs1S_Cs2eHPTk3TAlu_14common_structsINtB9_15AccountPositionINtNtNtNtCs1rODQd5oASQ_22multiversx_sc_scenario3api7impl_vh12vm_hooks_api10VMHooksApiNtNtB15_9debug_api15DebugApiBackendEENtNtNtNtNtCslPMlHj3qn2H_13multiversx_sc5types7managed7wrapped16managed_vec_item14ManagedVecItem16from_byte_readerNCNvXs0_NtB32_22managed_vec_owned_iterINtB4V_23ManagedVecOwnedIteratorB10_BD_ENtNtNtNtCslGS7pEIChKc_4core4iter6traits8iterator8Iterator4next0Es_0Cs8iyf5MSkCde_5tests
FN:29,_RNCINvXs1S_Cs2eHPTk3TAlu_14common_structsINtB9_15AccountPositionINtNtNtNtCs1rODQd5oASQ_22multiversx_sc_scenario3api7impl_vh12vm_hooks_api10VMHooksApiNtNtB15_9debug_api15DebugApiBackendEENtNtNtNtNtCslPMlHj3qn2H_13multiversx_sc5types7managed7wrapped16managed_vec_item14ManagedVecItem16into_byte_writerINtNtCslGS7pEIChKc_4core6result6ResultuNtNtNtNtB38_3api13managed_types18managed_buffer_api17InvalidSliceErrorENCNvMs2_NtB32_11managed_vecINtB6H_10ManagedVecB10_BD_E3set0E0Cs8iyf5MSkCde_5tests
FN:29,_RNCINvXs1S_Cs2eHPTk3TAlu_14common_structsINtB9_15AccountPositionINtNtNtNtCs1rODQd5oASQ_22multiversx_sc_scenario3api7impl_vh12vm_hooks_api10VMHooksApiNtNtB15_9debug_api15DebugApiBackendEENtNtNtNtNtCslPMlHj3qn2H_13multiversx_sc5types7managed7wrapped16managed_vec_item14ManagedVecItem16into_byte_writerINtNtCslGS7pEIChKc_4core6result6ResultuNtNtNtNtB38_3api13managed_types18managed_buffer_api17InvalidSliceErrorENCNvMs2_NtB32_11managed_vecINtB6H_10ManagedVecB10_BD_E3set0Es0_0Cs8iyf5MSkCde_5tests
FN:29,_RNCINvXs1S_Cs2eHPTk3TAlu_14common_structsINtB9_15AccountPositionINtNtNtNtCs1rODQd5oASQ_22multiversx_sc_scenario3api7impl_vh12vm_hooks_api10VMHooksApiNtNtB15_9debug_api15DebugApiBackendEENtNtNtNtNtCslPMlHj3qn2H_13multiversx_sc5types7managed7wrapped16managed_vec_item14ManagedVecItem16into_byte_writerINtNtCslGS7pEIChKc_4core6result6ResultuNtNtNtNtB38_3api13managed_types18managed_buffer_api17InvalidSliceErrorENCNvMs2_NtB32_11managed_vecINtB6H_10ManagedVecB10_BD_E3set0Es1_0Cs8iyf5MSkCde_5tests
FN:29,_RNCINvXs1S_Cs2eHPTk3TAlu_14common_structsINtB9_15AccountPositionINtNtNtNtCs1rODQd5oASQ_22multiversx_sc_scenario3api7impl_vh12vm_hooks_api10VMHooksApiNtNtB15_9debug_api15DebugApiBackendEENtNtNtNtNtCslPMlHj3qn2H_13multiversx_sc5types7managed7wrapped16managed_vec_item14ManagedVecItem16into_byte_writerINtNtCslGS7pEIChKc_4core6result6ResultuNtNtNtNtB38_3api13managed_types18managed_buffer_api17InvalidSliceErrorENCNvMs2_NtB32_11managed_vecINtB6H_10ManagedVecB10_BD_E3set0Es2_0Cs8iyf5MSkCde_5tests
FN:29,_RNCINvXs1S_Cs2eHPTk3TAlu_14common_structsINtB9_15AccountPositionINtNtNtNtCs1rODQd5oASQ_22multiversx_sc_scenario3api7impl_vh12vm_hooks_api10VMHooksApiNtNtB15_9debug_api15DebugApiBackendEENtNtNtNtNtCslPMlHj3qn2H_13multiversx_sc5types7managed7wrapped16managed_vec_item14ManagedVecItem16into_byte_writerINtNtCslGS7pEIChKc_4core6result6ResultuNtNtNtNtB38_3api13managed_types18managed_buffer_api17InvalidSliceErrorENCNvMs2_NtB32_11managed_vecINtB6H_10ManagedVecB10_BD_E3set0Es3_0Cs8iyf5MSkCde_5tests
FN:29,_RNCINvXs1S_Cs2eHPTk3TAlu_14common_structsINtB9_15AccountPositionINtNtNtNtCs1rODQd5oASQ_22multiversx_sc_scenario3api7impl_vh12vm_hooks_api10VMHooksApiNtNtB15_9debug_api15DebugApiBackendEENtNtNtNtNtCslPMlHj3qn2H_13multiversx_sc5types7managed7wrapped16managed_vec_item14ManagedVecItem16into_byte_writerINtNtCslGS7pEIChKc_4core6result6ResultuNtNtNtNtB38_3api13managed_types18managed_buffer_api17InvalidSliceErrorENCNvMs2_NtB32_11managed_vecINtB6H_10ManagedVecB10_BD_E3set0Es4_0Cs8iyf5MSkCde_5tests
FN:29,_RNCINvXs1S_Cs2eHPTk3TAlu_14common_structsINtB9_15AccountPositionINtNtNtNtCs1rODQd5oASQ_22multiversx_sc_scenario3api7impl_vh12vm_hooks_api10VMHooksApiNtNtB15_9debug_api15DebugApiBackendEENtNtNtNtNtCslPMlHj3qn2H_13multiversx_sc5types7managed7wrapped16managed_vec_item14ManagedVecItem16into_byte_writerINtNtCslGS7pEIChKc_4core6result6ResultuNtNtNtNtB38_3api13managed_types18managed_buffer_api17InvalidSliceErrorENCNvMs2_NtB32_11managed_vecINtB6H_10ManagedVecB10_BD_E3set0Es5_0Cs8iyf5MSkCde_5tests
FN:29,_RNCINvXs1S_Cs2eHPTk3TAlu_14common_structsINtB9_15AccountPositionINtNtNtNtCs1rODQd5oASQ_22multiversx_sc_scenario3api7impl_vh12vm_hooks_api10VMHooksApiNtNtB15_9debug_api15DebugApiBackendEENtNtNtNtNtCslPMlHj3qn2H_13multiversx_sc5types7managed7wrapped16managed_vec_item14ManagedVecItem16into_byte_writerINtNtCslGS7pEIChKc_4core6result6ResultuNtNtNtNtB38_3api13managed_types18managed_buffer_api17InvalidSliceErrorENCNvMs2_NtB32_11managed_vecINtB6H_10ManagedVecB10_BD_E3set0Es6_0Cs8iyf5MSkCde_5tests
FN:29,_RNCINvXs1S_Cs2eHPTk3TAlu_14common_structsINtB9_15AccountPositionINtNtNtNtCs1rODQd5oASQ_22multiversx_sc_scenario3api7impl_vh12vm_hooks_api10VMHooksApiNtNtB15_9debug_api15DebugApiBackendEENtNtNtNtNtCslPMlHj3qn2H_13multiversx_sc5types7managed7wrapped16managed_vec_item14ManagedVecItem16into_byte_writerINtNtCslGS7pEIChKc_4core6result6ResultuNtNtNtNtB38_3api13managed_types18managed_buffer_api17InvalidSliceErrorENCNvMs2_NtB32_11managed_vecINtB6H_10ManagedVecB10_BD_E3set0Es7_0Cs8iyf5MSkCde_5tests
FN:29,_RNCINvXs1S_Cs2eHPTk3TAlu_14common_structsINtB9_15AccountPositionINtNtNtNtCs1rODQd5oASQ_22multiversx_sc_scenario3api7impl_vh12vm_hooks_api10VMHooksApiNtNtB15_9debug_api15DebugApiBackendEENtNtNtNtNtCslPMlHj3qn2H_13multiversx_sc5types7managed7wrapped16managed_vec_item14ManagedVecItem16into_byte_writerINtNtCslGS7pEIChKc_4core6result6ResultuNtNtNtNtB38_3api13managed_types18managed_buffer_api17InvalidSliceErrorENCNvMs2_NtB32_11managed_vecINtB6H_10ManagedVecB10_BD_E3set0Es_0Cs8iyf5MSkCde_5tests
FN:29,_RNCINvXs1S_Cs2eHPTk3TAlu_14common_structsINtB9_15AccountPositionINtNtNtNtCs1rODQd5oASQ_22multiversx_sc_scenario3api7impl_vh12vm_hooks_api10VMHooksApiNtNtB15_9debug_api15DebugApiBackendEENtNtNtNtNtCslPMlHj3qn2H_13multiversx_sc5types7managed7wrapped16managed_vec_item14ManagedVecItem16into_byte_writeruNCNvMs2_NtB32_11managed_vecINtB4W_10ManagedVecB10_BD_E4push0E0Cs8iyf5MSkCde_5tests
FN:29,_RNCINvXs1S_Cs2eHPTk3TAlu_14common_structsINtB9_15AccountPositionINtNtNtNtCs1rODQd5oASQ_22multiversx_sc_scenario3api7impl_vh12vm_hooks_api10VMHooksApiNtNtB15_9debug_api15DebugApiBackendEENtNtNtNtNtCslPMlHj3qn2H_13multiversx_sc5types7managed7wrapped16managed_vec_item14ManagedVecItem16into_byte_writeruNCNvMs2_NtB32_11managed_vecINtB4W_10ManagedVecB10_BD_E4push0Es0_0Cs8iyf5MSkCde_5tests
FN:29,_RNCINvXs1S_Cs2eHPTk3TAlu_14common_structsINtB9_15AccountPositionINtNtNtNtCs1rODQd5oASQ_22multiversx_sc_scenario3api7impl_vh12vm_hooks_api10VMHooksApiNtNtB15_9debug_api15DebugApiBackendEENtNtNtNtNtCslPMlHj3qn2H_13multiversx_sc5types7managed7wrapped16managed_vec_item14ManagedVecItem16into_byte_writeruNCNvMs2_NtB32_11managed_vecINtB4W_10ManagedVecB10_BD_E4push0Es1_0Cs8iyf5MSkCde_5tests
FN:29,_RNCINvXs1S_Cs2eHPTk3TAlu_14common_structsINtB9_15AccountPositionINtNtNtNtCs1rODQd5oASQ_22multiversx_sc_scenario3api7impl_vh12vm_hooks_api10VMHooksApiNtNtB15_9debug_api15DebugApiBackendEENtNtNtNtNtCslPMlHj3qn2H_13multiversx_sc5types7managed7wrapped16managed_vec_item14ManagedVecItem16into_byte_writeruNCNvMs2_NtB32_11managed_vecINtB4W_10ManagedVecB10_BD_E4push0Es2_0Cs8iyf5MSkCde_5tests
FN:29,_RNCINvXs1S_Cs2eHPTk3TAlu_14common_structsINtB9_15AccountPositionINtNtNtNtCs1rODQd5oASQ_22multiversx_sc_scenario3api7impl_vh12vm_hooks_api10VMHooksApiNtNtB15_9debug_api15DebugApiBackendEENtNtNtNtNtCslPMlHj3qn2H_13multiversx_sc5types7managed7wrapped16managed_vec_item14ManagedVecItem16into_byte_writeruNCNvMs2_NtB32_11managed_vecINtB4W_10ManagedVecB10_BD_E4push0Es3_0Cs8iyf5MSkCde_5tests
FN:29,_RNCINvXs1S_Cs2eHPTk3TAlu_14common_structsINtB9_15AccountPositionINtNtNtNtCs1rODQd5oASQ_22multiversx_sc_scenario3api7impl_vh12vm_hooks_api10VMHooksApiNtNtB15_9debug_api15DebugApiBackendEENtNtNtNtNtCslPMlHj3qn2H_13multiversx_sc5types7managed7wrapped16managed_vec_item14ManagedVecItem16into_byte_writeruNCNvMs2_NtB32_11managed_vecINtB4W_10ManagedVecB10_BD_E4push0Es4_0Cs8iyf5MSkCde_5tests
FN:29,_RNCINvXs1S_Cs2eHPTk3TAlu_14common_structsINtB9_15AccountPositionINtNtNtNtCs1rODQd5oASQ_22multiversx_sc_scenario3api7impl_vh12vm_hooks_api10VMHooksApiNtNtB15_9debug_api15DebugApiBackendEENtNtNtNtNtCslPMlHj3qn2H_13multiversx_sc5types7managed7wrapped16managed_vec_item14ManagedVecItem16into_byte_writeruNCNvMs2_NtB32_11managed_vecINtB4W_10ManagedVecB10_BD_E4push0Es5_0Cs8iyf5MSkCde_5tests
FN:29,_RNCINvXs1S_Cs2eHPTk3TAlu_14common_structsINtB9_15AccountPositionINtNtNtNtCs1rODQd5oASQ_22multiversx_sc_scenario3api7impl_vh12vm_hooks_api10VMHooksApiNtNtB15_9debug_api15DebugApiBackendEENtNtNtNtNtCslPMlHj3qn2H_13multiversx_sc5types7managed7wrapped16managed_vec_item14ManagedVecItem16into_byte_writeruNCNvMs2_NtB32_11managed_vecINtB4W_10ManagedVecB10_BD_E4push0Es6_0Cs8iyf5MSkCde_5tests
FN:29,_RNCINvXs1S_Cs2eHPTk3TAlu_14common_structsINtB9_15AccountPositionINtNtNtNtCs1rODQd5oASQ_22multiversx_sc_scenario3api7impl_vh12vm_hooks_api10VMHooksApiNtNtB15_9debug_api15DebugApiBackendEENtNtNtNtNtCslPMlHj3qn2H_13multiversx_sc5types7managed7wrapped16managed_vec_item14ManagedVecItem16into_byte_writeruNCNvMs2_NtB32_11managed_vecINtB4W_10ManagedVecB10_BD_E4push0Es7_0Cs8iyf5MSkCde_5tests
FN:29,_RNCINvXs1S_Cs2eHPTk3TAlu_14common_structsINtB9_15AccountPositionINtNtNtNtCs1rODQd5oASQ_22multiversx_sc_scenario3api7impl_vh12vm_hooks_api10VMHooksApiNtNtB15_9debug_api15DebugApiBackendEENtNtNtNtNtCslPMlHj3qn2H_13multiversx_sc5types7managed7wrapped16managed_vec_item14ManagedVecItem16into_byte_writeruNCNvMs2_NtB32_11managed_vecINtB4W_10ManagedVecB10_BD_E4push0Es_0Cs8iyf5MSkCde_5tests
FN:70,_RNvMCs2eHPTk3TAlu_14common_structsINtB2_15AccountPositionINtNtNtNtCs1rODQd5oASQ_22multiversx_sc_scenario3api7impl_vh12vm_hooks_api10VMHooksApiNtNtBY_9debug_api15DebugApiBackendEE16get_total_amountCs8iyf5MSkCde_5tests
FN:44,_RNvMCs2eHPTk3TAlu_14common_structsINtB2_15AccountPositionINtNtNtNtCs1rODQd5oASQ_22multiversx_sc_scenario3api7impl_vh12vm_hooks_api10VMHooksApiNtNtBY_9debug_api15DebugApiBackendEE3newCs8iyf5MSkCde_5tests
FNDA:174,_RINvXs10_Cs2eHPTk3TAlu_14common_structsINtB7_25EgldOrEsdtTokenPaymentNewINtNtNtNtCs1rODQd5oASQ_22multiversx_sc_scenario3api7impl_vh12vm_hooks_api10VMHooksApiNtNtB1d_9debug_api15DebugApiBackendEENtNtNtNtNtCslPMlHj3qn2H_13multiversx_sc5types7managed7wrapped16managed_vec_item14ManagedVecItem16from_byte_readerNCNvMs2_NtB3a_11managed_vecINtB53_10ManagedVecB18_BB_E7try_get0ECs8iyf5MSkCde_5tests
FNDA:167,_RINvXs10_Cs2eHPTk3TAlu_14common_structsINtB7_25EgldOrEsdtTokenPaymentNewINtNtNtNtCs1rODQd5oASQ_22multiversx_sc_scenario3api7impl_vh12vm_hooks_api10VMHooksApiNtNtB1d_9debug_api15DebugApiBackendEENtNtNtNtNtCslPMlHj3qn2H_13multiversx_sc5types7managed7wrapped16managed_vec_item14ManagedVecItem16from_byte_readerNCNvXs0_NtB3a_22managed_vec_owned_iterINtB53_23ManagedVecOwnedIteratorB18_BB_ENtNtNtNtCslGS7pEIChKc_4core4iter6traits8iterator8Iterator4next0ECs8iyf5MSkCde_5tests
FNDA:180,_RINvXs10_Cs2eHPTk3TAlu_14common_structsINtB7_25EgldOrEsdtTokenPaymentNewINtNtNtNtCs1rODQd5oASQ_22multiversx_sc_scenario3api7impl_vh12vm_hooks_api10VMHooksApiNtNtB1d_9debug_api15DebugApiBackendEENtNtNtNtNtCslPMlHj3qn2H_13multiversx_sc5types7managed7wrapped16managed_vec_item14ManagedVecItem16into_byte_writeruNCNvMs2_NtB3a_11managed_vecINtB54_10ManagedVecB18_BB_E4push0ECs8iyf5MSkCde_5tests
FNDA:174,_RINvXs10_Cs2eHPTk3TAlu_14common_structsINtB7_25EgldOrEsdtTokenPaymentNewINtNtNtNtCs1rODQd5oASQ_22multiversx_sc_scenario3api7impl_vh12vm_hooks_api10VMHooksApiNtNtB1d_9debug_api15DebugApiBackendEENtNtNtNtNtCslPMlHj3qn2H_13multiversx_sc5types7managed7wrapped16managed_vec_item14ManagedVecItem26from_byte_reader_as_borrowNCNvMs2_NtB3a_11managed_vecINtB5d_10ManagedVecB18_BB_E7try_get0ECs8iyf5MSkCde_5tests
FNDA:0,_RINvXs1B_Cs2eHPTk3TAlu_14common_structsINtB7_23AssetExtendedConfigViewINtNtNtNtCs1rODQd5oASQ_22multiversx_sc_scenario3api7impl_vh12vm_hooks_api10VMHooksApiNtNtB1b_9debug_api15DebugApiBackendEENtNtNtNtNtCslPMlHj3qn2H_13multiversx_sc5types7managed7wrapped16managed_vec_item14ManagedVecItem16from_byte_readerNCNvXs0_NtB38_22managed_vec_owned_iterINtB51_23ManagedVecOwnedIteratorB16_BB_ENtNtNtNtCslGS7pEIChKc_4core4iter6traits8iterator8Iterator4next0ECs8iyf5MSkCde_5tests
FNDA:0,_RINvXs1B_Cs2eHPTk3TAlu_14common_structsINtB7_23AssetExtendedConfigViewINtNtNtNtCs1rODQd5oASQ_22multiversx_sc_scenario3api7impl_vh12vm_hooks_api10VMHooksApiNtNtB1b_9debug_api15DebugApiBackendEENtNtNtNtNtCslPMlHj3qn2H_13multiversx_sc5types7managed7wrapped16managed_vec_item14ManagedVecItem16into_byte_writeruNCNvMs2_NtB38_11managed_vecINtB52_10ManagedVecB16_BB_E4push0ECs8iyf5MSkCde_5tests
FNDA:0,_RINvXs1E_Cs2eHPTk3TAlu_14common_structsINtB7_23AssetExtendedConfigViewINtNtNtNtCs1rODQd5oASQ_22multiversx_sc_scenario3api7impl_vh12vm_hooks_api10VMHooksApiNtNtB1b_9debug_api15DebugApiBackendEENtNtNtCs5SUGlJDgeoS_19multiversx_sc_codec6single9nested_en12NestedEncode24dep_encode_or_handle_errINtNtNtNtNtNtCslPMlHj3qn2H_13multiversx_sc5types7managed7wrapped7builder22managed_buffer_builder20ManagedBufferBuilderB16_EINtNtNtNtB4R_13contract_base8wrappers10serializer21ExitCodecErrorHandlerB16_EECs8iyf5MSkCde_5tests
FNDA:0,_RINvXs1J_Cs2eHPTk3TAlu_14common_structsINtB7_11AssetConfigINtNtNtNtCs1rODQd5oASQ_22multiversx_sc_scenario3api7impl_vh12vm_hooks_api10VMHooksApiNtNtBZ_9debug_api15DebugApiBackendEENtNtNtNtNtCslPMlHj3qn2H_13multiversx_sc5types7managed7wrapped16managed_vec_item14ManagedVecItem16from_byte_readerNCINvXs1B_B7_INtB7_23AssetExtendedConfigViewBU_EB2R_16from_byte_readerNCNvXs0_NtB2V_22managed_vec_owned_iterINtB5W_23ManagedVecOwnedIteratorBU_B4T_ENtNtNtNtCslGS7pEIChKc_4core4iter6traits8iterator8Iterator4next0E0ECs8iyf5MSkCde_5tests
FNDA:0,_RINvXs1J_Cs2eHPTk3TAlu_14common_structsINtB7_11AssetConfigINtNtNtNtCs1rODQd5oASQ_22multiversx_sc_scenario3api7impl_vh12vm_hooks_api10VMHooksApiNtNtBZ_9debug_api15DebugApiBackendEENtNtNtNtNtCslPMlHj3qn2H_13multiversx_sc5types7managed7wrapped16managed_vec_item14ManagedVecItem16into_byte_writeruNCINvXs1B_B7_INtB7_23AssetExtendedConfigViewBU_EB2R_16into_byte_writeruNCNvMs2_NtB2V_11managed_vecINtB5Y_10ManagedVecBU_B4U_E4push0E0ECs8iyf5MSkCde_5tests
FNDA:1,_RINvXs1K_Cs2eHPTk3TAlu_14common_structsINtB7_11AssetConfigINtNtNtNtCs1rODQd5oASQ_22multiversx_sc_scenario3api7impl_vh12vm_hooks_api10VMHooksApiNtNtBZ_10static_api16StaticApiBackendEENtNtNtCs5SUGlJDgeoS_19multiversx_sc_codec6single6top_en9TopEncode24top_encode_or_handle_errQINtNtNtNtNtCslPMlHj3qn2H_13multiversx_sc5types7managed5basic14managed_buffer13ManagedBufferBU_EINtNtNtNtB4z_13contract_base8wrappers10serializer21ExitCodecErrorHandlerBU_EECs8iyf5MSkCde_5tests
FNDA:0,_RINvXs1K_Cs2eHPTk3TAlu_14common_structsINtB7_11AssetConfigINtNtNtNtCs1rODQd5oASQ_22multiversx_sc_scenario3api7impl_vh12vm_hooks_api10VMHooksApiNtNtBZ_9debug_api15DebugApiBackendEENtNtNtCs5SUGlJDgeoS_19multiversx_sc_codec6single6top_en9TopEncode24top_encode_or_handle_errINtNtNtCslPMlHj3qn2H_13multiversx_sc2io6finish16ApiOutputAdapterBU_EINtNtNtNtB4r_13contract_base8wrappers10serializer21ExitCodecErrorHandlerBU_EECs8iyf5MSkCde_5tests
FNDA:672,_RINvXs1K_Cs2eHPTk3TAlu_14common_structsINtB7_11AssetConfigINtNtNtNtCs1rODQd5oASQ_22multiversx_sc_scenario3api7impl_vh12vm_hooks_api10VMHooksApiNtNtBZ_9debug_api15DebugApiBackendEENtNtNtCs5SUGlJDgeoS_19multiversx_sc_codec6single6top_en9TopEncode24top_encode_or_handle_errINtNtNtCslPMlHj3qn2H_13multiversx_sc7storage11storage_set16StorageSetOutputBU_EINtNtNtNtB4r_13contract_base8wrappers10serializer21ExitCodecErrorHandlerBU_EECs8iyf5MSkCde_5tests
FNDA:672,_RINvXs1K_Cs2eHPTk3TAlu_14common_structsINtB7_11AssetConfigINtNtNtNtCs1rODQd5oASQ_22multiversx_sc_scenario3api7impl_vh12vm_hooks_api10VMHooksApiNtNtBZ_9debug_api15DebugApiBackendEENtNtNtCs5SUGlJDgeoS_19multiversx_sc_codec6single6top_en9TopEncode24top_encode_or_handle_errQINtNtNtNtNtCslPMlHj3qn2H_13multiversx_sc5types7managed5basic14managed_buffer13ManagedBufferBU_EINtNtNtNtB4w_13contract_base8wrappers10serializer21ExitCodecErrorHandlerBU_EECs8iyf5MSkCde_5tests
FNDA:1,_RINvXs1L_Cs2eHPTk3TAlu_14common_structsINtB7_11AssetConfigINtNtNtNtCs1rODQd5oASQ_22multiversx_sc_scenario3api7impl_vh12vm_hooks_api10VMHooksApiNtNtBZ_9debug_api15DebugApiBackendEENtNtNtCs5SUGlJDgeoS_19multiversx_sc_codec6single6top_de9TopDecode24top_decode_or_handle_errINtNtNtCslPMlHj3qn2H_13multiversx_sc2io12arg_de_input14ArgDecodeInputBU_EINtNtB4p_17arg_error_handler15ArgErrorHandlerBU_EECs8iyf5MSkCde_5tests
FNDA:351,_RINvXs1L_Cs2eHPTk3TAlu_14common_structsINtB7_11AssetConfigINtNtNtNtCs1rODQd5oASQ_22multiversx_sc_scenario3api7impl_vh12vm_hooks_api10VMHooksApiNtNtBZ_9debug_api15DebugApiBackendEENtNtNtCs5SUGlJDgeoS_19multiversx_sc_codec6single6top_de9TopDecode24top_decode_or_handle_errINtNtNtCslPMlHj3qn2H_13multiversx_sc7storage11storage_get15StorageGetInputBU_EINtB4n_22StorageGetErrorHandlerBU_EECs8iyf5MSkCde_5tests
FNDA:0,_RINvXs1M_Cs2eHPTk3TAlu_14common_structsINtB7_11AssetConfigINtNtNtNtCs1rODQd5oASQ_22multiversx_sc_scenario3api7impl_vh12vm_hooks_api10VMHooksApiNtNtBZ_9debug_api15DebugApiBackendEENtNtNtCs5SUGlJDgeoS_19multiversx_sc_codec6single9nested_en12NestedEncode24dep_encode_or_handle_errINtNtNtNtNtNtCslPMlHj3qn2H_13multiversx_sc5types7managed7wrapped7builder22managed_buffer_builder20ManagedBufferBuilderBU_EINtNtNtNtB4E_13contract_base8wrappers10serializer21ExitCodecErrorHandlerBU_EECs8iyf5MSkCde_5tests
FNDA:10,_RINvXs1S_Cs2eHPTk3TAlu_14common_structsINtB7_15AccountPositionINtNtNtNtCs1rODQd5oASQ_22multiversx_sc_scenario3api7impl_vh12vm_hooks_api10VMHooksApiNtNtB13_9debug_api15DebugApiBackendEENtNtNtNtNtCslPMlHj3qn2H_13multiversx_sc5types7managed7wrapped16managed_vec_item14ManagedVecItem16from_byte_readerNCNvMs2_NtB30_11managed_vecINtB4T_10ManagedVecBY_BB_E7try_get0ECs8iyf5MSkCde_5tests
FNDA:80,_RINvXs1S_Cs2eHPTk3TAlu_14common_structsINtB7_15AccountPositionINtNtNtNtCs1rODQd5oASQ_22multiversx_sc_scenario3api7impl_vh12vm_hooks_api10VMHooksApiNtNtB13_9debug_api15DebugApiBackendEENtNtNtNtNtCslPMlHj3qn2H_13multiversx_sc5types7managed7wrapped16managed_vec_item14ManagedVecItem16from_byte_readerNCNvXs0_NtB30_22managed_vec_owned_iterINtB4T_23ManagedVecOwnedIteratorBY_BB_ENtNtNtNtCslGS7pEIChKc_4core4iter6traits8iterator8Iterator4next0ECs8iyf5MSkCde_5tests
FNDA:0,_RINvXs1S_Cs2eHPTk3TAlu_14common_structsINtB7_15AccountPositionINtNtNtNtCs1rODQd5oASQ_22multiversx_sc_scenario3api7impl_vh12vm_hooks_api10VMHooksApiNtNtB13_9debug_api15DebugApiBackendEENtNtNtNtNtCslPMlHj3qn2H_13multiversx_sc5types7managed7wrapped16managed_vec_item14ManagedVecItem16into_byte_writerINtNtCslGS7pEIChKc_4core6result6ResultuNtNtNtNtB36_3api13managed_types18managed_buffer_api17InvalidSliceErrorENCNvMs2_NtB30_11managed_vecINtB6F_10ManagedVecBY_BB_E3set0ECs8iyf5MSkCde_5tests
FNDA:840,_RINvXs1S_Cs2eHPTk3TAlu_14common_structsINtB7_15AccountPositionINtNtNtNtCs1rODQd5oASQ_22multiversx_sc_scenario3api7impl_vh12vm_hooks_api10VMHooksApiNtNtB13_9debug_api15DebugApiBackendEENtNtNtNtNtCslPMlHj3qn2H_13multiversx_sc5types7managed7wrapped16managed_vec_item14ManagedVecItem16into_byte_writeruNCNvMs2_NtB30_11managed_vecINtB4U_10ManagedVecBY_BB_E4push0ECs8iyf5MSkCde_5tests
FNDA:10,_RINvXs1S_Cs2eHPTk3TAlu_14common_structsINtB7_15AccountPositionINtNtNtNtCs1rODQd5oASQ_22multiversx_sc_scenario3api7impl_vh12vm_hooks_api10VMHooksApiNtNtB13_9debug_api15DebugApiBackendEENtNtNtNtNtCslPMlHj3qn2H_13multiversx_sc5types7managed7wrapped16managed_vec_item14ManagedVecItem26from_byte_reader_as_borrowNCNvMs2_NtB30_11managed_vecINtB53_10ManagedVecBY_BB_E7try_get0ECs8iyf5MSkCde_5tests
FNDA:4,_RINvXs1T_Cs2eHPTk3TAlu_14common_structsINtB7_15AccountPositionINtNtNtNtCs1rODQd5oASQ_22multiversx_sc_scenario3api7impl_vh12vm_hooks_api10VMHooksApiNtNtB13_9debug_api15DebugApiBackendEENtNtNtCs5SUGlJDgeoS_19multiversx_sc_codec6single9nested_en12NestedEncode24dep_encode_or_handle_errINtNtNtNtNtNtCslPMlHj3qn2H_13multiversx_sc5types7managed7wrapped7builder22managed_buffer_builder20ManagedBufferBuilderBY_EINtNtNtNtB4J_13contract_base8wrappers10serializer21ExitCodecErrorHandlerBY_EECs8iyf5MSkCde_5tests
FNDA:941,_RINvXs1V_Cs2eHPTk3TAlu_14common_structsINtB7_15AccountPositionINtNtNtNtCs1rODQd5oASQ_22multiversx_sc_scenario3api7impl_vh12vm_hooks_api10VMHooksApiNtNtB13_9debug_api15DebugApiBackendEENtNtNtCs5SUGlJDgeoS_19multiversx_sc_codec6single6top_en9TopEncode24top_encode_or_handle_errINtNtNtCslPMlHj3qn2H_13multiversx_sc2io6finish16ApiOutputAdapterBY_EINtNtNtNtB4w_13contract_base8wrappers10serializer21ExitCodecErrorHandlerBY_EECs8iyf5MSkCde_5tests
FNDA:941,_RINvXs1V_Cs2eHPTk3TAlu_14common_structsINtB7_15AccountPositionINtNtNtNtCs1rODQd5oASQ_22multiversx_sc_scenario3api7impl_vh12vm_hooks_api10VMHooksApiNtNtB13_9debug_api15DebugApiBackendEENtNtNtCs5SUGlJDgeoS_19multiversx_sc_codec6single6top_en9TopEncode24top_encode_or_handle_errINtNtNtCslPMlHj3qn2H_13multiversx_sc7storage11storage_set16StorageSetOutputBY_EINtNtNtNtB4w_13contract_base8wrappers10serializer21ExitCodecErrorHandlerBY_EECs8iyf5MSkCde_5tests
FNDA:1834,_RINvXs1V_Cs2eHPTk3TAlu_14common_structsINtB7_15AccountPositionINtNtNtNtCs1rODQd5oASQ_22multiversx_sc_scenario3api7impl_vh12vm_hooks_api10VMHooksApiNtNtB13_9debug_api15DebugApiBackendEENtNtNtCs5SUGlJDgeoS_19multiversx_sc_codec6single6top_en9TopEncode24top_encode_or_handle_errQINtNtNtNtNtCslPMlHj3qn2H_13multiversx_sc5types7managed5basic14managed_buffer13ManagedBufferBY_EINtNtNtNtB4B_13contract_base8wrappers10serializer21ExitCodecErrorHandlerBY_EECs8iyf5MSkCde_5tests
FNDA:941,_RINvXs1W_Cs2eHPTk3TAlu_14common_structsINtB7_15AccountPositionINtNtNtNtCs1rODQd5oASQ_22multiversx_sc_scenario3api7impl_vh12vm_hooks_api10VMHooksApiNtNtB13_9debug_api15DebugApiBackendEENtNtNtCs5SUGlJDgeoS_19multiversx_sc_codec6single6top_de9TopDecode24top_decode_or_handle_errINtNtNtCslPMlHj3qn2H_13multiversx_sc2io12arg_de_input14ArgDecodeInputBY_EINtNtB4u_17arg_error_handler15ArgErrorHandlerBY_EECs8iyf5MSkCde_5tests
FNDA:1759,_RINvXs1W_Cs2eHPTk3TAlu_14common_structsINtB7_15AccountPositionINtNtNtNtCs1rODQd5oASQ_22multiversx_sc_scenario3api7impl_vh12vm_hooks_api10VMHooksApiNtNtB13_9debug_api15DebugApiBackendEENtNtNtCs5SUGlJDgeoS_19multiversx_sc_codec6single6top_de9TopDecode24top_decode_or_handle_errINtNtNtCslPMlHj3qn2H_13multiversx_sc7storage11storage_get15StorageGetInputBY_EINtB4s_22StorageGetErrorHandlerBY_EECs8iyf5MSkCde_5tests
FNDA:941,_RINvXs1W_Cs2eHPTk3TAlu_14common_structsINtB7_15AccountPositionINtNtNtNtCs1rODQd5oASQ_22multiversx_sc_scenario3api7impl_vh12vm_hooks_api10VMHooksApiNtNtB13_9debug_api15DebugApiBackendEENtNtNtCs5SUGlJDgeoS_19multiversx_sc_codec6single6top_de9TopDecode24top_decode_or_handle_errINtNtNtNtNtCslPMlHj3qn2H_13multiversx_sc5types7managed5basic14managed_buffer13ManagedBufferBY_EINtNtNtB4A_2io17arg_error_handler15ArgErrorHandlerBY_EECs8iyf5MSkCde_5tests
FNDA:0,_RINvXs1f_Cs2eHPTk3TAlu_14common_structsNtB7_20NftAccountAttributesNtNtNtCs5SUGlJDgeoS_19multiversx_sc_codec6single6top_en9TopEncode24top_encode_or_handle_errINtNtNtCslPMlHj3qn2H_13multiversx_sc2io6finish16ApiOutputAdapterINtNtNtNtCs1rODQd5oASQ_22multiversx_sc_scenario3api7impl_vh12vm_hooks_api10VMHooksApiNtNtB3C_9debug_api15DebugApiBackendEEINtNtNtNtB2C_13contract_base8wrappers10serializer21ExitCodecErrorHandlerB3x_EECs8iyf5MSkCde_5tests
FNDA:80,_RINvXs1f_Cs2eHPTk3TAlu_14common_structsNtB7_20NftAccountAttributesNtNtNtCs5SUGlJDgeoS_19multiversx_sc_codec6single6top_en9TopEncode24top_encode_or_handle_errINtNtNtCslPMlHj3qn2H_13multiversx_sc7storage11storage_set16StorageSetOutputINtNtNtNtCs1rODQd5oASQ_22multiversx_sc_scenario3api7impl_vh12vm_hooks_api10VMHooksApiNtNtB3N_9debug_api15DebugApiBackendEEINtNtNtNtB2C_13contract_base8wrappers10serializer21ExitCodecErrorHandlerB3I_EECs8iyf5MSkCde_5tests
FNDA:2,_RINvXs1f_Cs2eHPTk3TAlu_14common_structsNtB7_20NftAccountAttributesNtNtNtCs5SUGlJDgeoS_19multiversx_sc_codec6single6top_en9TopEncode24top_encode_or_handle_errQINtNtCshTKFwE22Rw2_5alloc3vec3VechENtNtB18_17codec_err_handler19DefaultErrorHandlerECs8iyf5MSkCde_5tests
FNDA:213,_RINvXs1f_Cs2eHPTk3TAlu_14common_structsNtB7_20NftAccountAttributesNtNtNtCs5SUGlJDgeoS_19multiversx_sc_codec6single6top_en9TopEncode24top_encode_or_handle_errQINtNtNtNtNtCslPMlHj3qn2H_13multiversx_sc5types7managed5basic14managed_buffer13ManagedBufferINtNtNtNtCs1rODQd5oASQ_22multiversx_sc_scenario3api7impl_vh12vm_hooks_api10VMHooksApiNtNtB44_9debug_api15DebugApiBackendEEINtNtNtNtB2H_13contract_base8wrappers10serializer21ExitCodecErrorHandlerB3Z_EECs8iyf5MSkCde_5tests
FNDA:11,_RINvXs1g_Cs2eHPTk3TAlu_14common_structsNtB7_20NftAccountAttributesNtNtNtCs5SUGlJDgeoS_19multiversx_sc_codec6single6top_de9TopDecode24top_decode_or_handle_errINtNtNtCslPMlHj3qn2H_13multiversx_sc7storage11storage_get15StorageGetInputINtNtNtNtCs1rODQd5oASQ_22multiversx_sc_scenario3api7impl_vh12vm_hooks_api10VMHooksApiNtNtB3M_9debug_api15DebugApiBackendEEINtB2y_22StorageGetErrorHandlerB3H_EECs8iyf5MSkCde_5tests
FNDA:64,_RINvXs1g_Cs2eHPTk3TAlu_14common_structsNtB7_20NftAccountAttributesNtNtNtCs5SUGlJDgeoS_19multiversx_sc_codec6single6top_de9TopDecode24top_decode_or_handle_errINtNtNtNtNtCslPMlHj3qn2H_13multiversx_sc5types7managed5basic14managed_buffer13ManagedBufferINtNtNtNtCs1rODQd5oASQ_22multiversx_sc_scenario3api7impl_vh12vm_hooks_api10VMHooksApiNtNtB43_9debug_api15DebugApiBackendEEINtNtNtNtB2G_13contract_base8wrappers10serializer21ExitCodecErrorHandlerB3Y_EECs8iyf5MSkCde_5tests
FNDA:0,_RINvXs1m_Cs2eHPTk3TAlu_14common_structsNtB7_16EModeAssetConfigNtNtNtCs5SUGlJDgeoS_19multiversx_sc_codec6single6top_en9TopEncode24top_encode_or_handle_errINtNtNtCslPMlHj3qn2H_13multiversx_sc2io6finish16ApiOutputAdapterINtNtNtNtCs1rODQd5oASQ_22multiversx_sc_scenario3api7impl_vh12vm_hooks_api10VMHooksApiNtNtB3y_9debug_api15DebugApiBackendEEINtNtNtNtB2y_13contract_base8wrappers10serializer21ExitCodecErrorHandlerB3t_EECs8iyf5MSkCde_5tests
FNDA:192,_RINvXs1m_Cs2eHPTk3TAlu_14common_structsNtB7_16EModeAssetConfigNtNtNtCs5SUGlJDgeoS_19multiversx_sc_codec6single6top_en9TopEncode24top_encode_or_handle_errINtNtNtCslPMlHj3qn2H_13multiversx_sc7storage11storage_set16StorageSetOutputINtNtNtNtCs1rODQd5oASQ_22multiversx_sc_scenario3api7impl_vh12vm_hooks_api10VMHooksApiNtNtB3J_9debug_api15DebugApiBackendEEINtNtNtNtB2y_13contract_base8wrappers10serializer21ExitCodecErrorHandlerB3E_EECs8iyf5MSkCde_5tests
FNDA:192,_RINvXs1m_Cs2eHPTk3TAlu_14common_structsNtB7_16EModeAssetConfigNtNtNtCs5SUGlJDgeoS_19multiversx_sc_codec6single6top_en9TopEncode24top_encode_or_handle_errQINtNtNtNtNtCslPMlHj3qn2H_13multiversx_sc5types7managed5basic14managed_buffer13ManagedBufferINtNtNtNtCs1rODQd5oASQ_22multiversx_sc_scenario3api7impl_vh12vm_hooks_api10VMHooksApiNtNtB40_9debug_api15DebugApiBackendEEINtNtNtNtB2D_13contract_base8wrappers10serializer21ExitCodecErrorHandlerB3V_EECs8iyf5MSkCde_5tests
FNDA:0,_RINvXs1n_Cs2eHPTk3TAlu_14common_structsNtB7_16EModeAssetConfigNtNtNtCs5SUGlJDgeoS_19multiversx_sc_codec6single6top_de9TopDecode24top_decode_or_handle_errINtNtNtCslPMlHj3qn2H_13multiversx_sc2io12arg_de_input14ArgDecodeInputINtNtNtNtCs1rODQd5oASQ_22multiversx_sc_scenario3api7impl_vh12vm_hooks_api10VMHooksApiNtNtB3D_9debug_api15DebugApiBackendEEINtNtB2w_17arg_error_handler15ArgErrorHandlerB3y_EECs8iyf5MSkCde_5tests
FNDA:8,_RINvXs1n_Cs2eHPTk3TAlu_14common_structsNtB7_16EModeAssetConfigNtNtNtCs5SUGlJDgeoS_19multiversx_sc_codec6single6top_de9TopDecode24top_decode_or_handle_errINtNtNtCslPMlHj3qn2H_13multiversx_sc7storage11storage_get15StorageGetInputINtNtNtNtCs1rODQd5oASQ_22multiversx_sc_scenario3api7impl_vh12vm_hooks_api10VMHooksApiNtNtB3I_9debug_api15DebugApiBackendEEINtB2u_22StorageGetErrorHandlerB3D_EECs8iyf5MSkCde_5tests
FNDA:0,_RINvXs1u_Cs2eHPTk3TAlu_14common_structsINtB7_13EModeCategoryINtNtNtNtCs1rODQd5oASQ_22multiversx_sc_scenario3api7impl_vh12vm_hooks_api10VMHooksApiNtNtB11_9debug_api15DebugApiBackendEENtNtNtCs5SUGlJDgeoS_19multiversx_sc_codec6single6top_en9TopEncode24top_encode_or_handle_errINtNtNtCslPMlHj3qn2H_13multiversx_sc2io6finish16ApiOutputAdapterBW_EINtNtNtNtB4u_13contract_base8wrappers10serializer21ExitCodecErrorHandlerBW_EECs8iyf5MSkCde_5tests
FNDA:48,_RINvXs1u_Cs2eHPTk3TAlu_14common_structsINtB7_13EModeCategoryINtNtNtNtCs1rODQd5oASQ_22multiversx_sc_scenario3api7impl_vh12vm_hooks_api10VMHooksApiNtNtB11_9debug_api15DebugApiBackendEENtNtNtCs5SUGlJDgeoS_19multiversx_sc_codec6single6top_en9TopEncode24top_encode_or_handle_errINtNtNtCslPMlHj3qn2H_13multiversx_sc7storage11storage_set16StorageSetOutputBW_EINtNtNtNtB4u_13contract_base8wrappers10serializer21ExitCodecErrorHandlerBW_EECs8iyf5MSkCde_5tests
FNDA:48,_RINvXs1u_Cs2eHPTk3TAlu_14common_structsINtB7_13EModeCategoryINtNtNtNtCs1rODQd5oASQ_22multiversx_sc_scenario3api7impl_vh12vm_hooks_api10VMHooksApiNtNtB11_9debug_api15DebugApiBackendEENtNtNtCs5SUGlJDgeoS_19multiversx_sc_codec6single6top_en9TopEncode24top_encode_or_handle_errQINtNtNtNtNtCslPMlHj3qn2H_13multiversx_sc5types7managed5basic14managed_buffer13ManagedBufferBW_EINtNtNtNtB4z_13contract_base8wrappers10serializer21ExitCodecErrorHandlerBW_EECs8iyf5MSkCde_5tests
FNDA:0,_RINvXs1v_Cs2eHPTk3TAlu_14common_structsINtB7_13EModeCategoryINtNtNtNtCs1rODQd5oASQ_22multiversx_sc_scenario3api7impl_vh12vm_hooks_api10VMHooksApiNtNtB11_9debug_api15DebugApiBackendEENtNtNtCs5SUGlJDgeoS_19multiversx_sc_codec6single6top_de9TopDecode24top_decode_or_handle_errINtNtNtCslPMlHj3qn2H_13multiversx_sc2io12arg_de_input14ArgDecodeInputBW_EINtNtB4s_17arg_error_handler15ArgErrorHandlerBW_EECs8iyf5MSkCde_5tests
FNDA:11,_RINvXs1v_Cs2eHPTk3TAlu_14common_structsINtB7_13EModeCategoryINtNtNtNtCs1rODQd5oASQ_22multiversx_sc_scenario3api7impl_vh12vm_hooks_api10VMHooksApiNtNtB11_9debug_api15DebugApiBackendEENtNtNtCs5SUGlJDgeoS_19multiversx_sc_codec6single6top_de9TopDecode24top_decode_or_handle_errINtNtNtCslPMlHj3qn2H_13multiversx_sc7storage11storage_get15StorageGetInputBW_EINtB4q_22StorageGetErrorHandlerBW_EECs8iyf5MSkCde_5tests
FNDA:0,_RINvXs1w_Cs2eHPTk3TAlu_14common_structsINtB7_13EModeCategoryINtNtNtNtCs1rODQd5oASQ_22multiversx_sc_scenario3api7impl_vh12vm_hooks_api10VMHooksApiNtNtB11_10static_api16StaticApiBackendEENtNtNtCs5SUGlJDgeoS_19multiversx_sc_codec6single9nested_en12NestedEncode24dep_encode_or_handle_errINtNtNtNtNtCslPMlHj3qn2H_13multiversx_sc5types7managed5basic14managed_buffer13ManagedBufferBW_EINtNtNtNtB4I_13contract_base8wrappers10serializer21ExitCodecErrorHandlerBW_EECs8iyf5MSkCde_5tests
FNDA:0,_RINvXs1x_Cs2eHPTk3TAlu_14common_structsINtB7_13EModeCategoryINtNtNtNtCs1rODQd5oASQ_22multiversx_sc_scenario3api7impl_vh12vm_hooks_api10VMHooksApiNtNtB11_9debug_api15DebugApiBackendEENtNtNtCs5SUGlJDgeoS_19multiversx_sc_codec6single9nested_de12NestedDecode24dep_decode_or_handle_errINtNtNtNtNtCslPMlHj3qn2H_13multiversx_sc5types7managed10codec_util30managed_buffer_nested_de_input30ManagedBufferNestedDecodeInputBW_EINtNtNtB4F_2io17arg_error_handler15ArgErrorHandlerBW_EECs8iyf5MSkCde_5tests
FNDA:10,_RINvXs21_Cs2eHPTk3TAlu_14common_structsNtB7_19AccountPositionTypeNtNtNtNtNtCslPMlHj3qn2H_13multiversx_sc5types7managed7wrapped16managed_vec_item14ManagedVecItem16from_byte_readerNCINvXs1S_B7_INtB7_15AccountPositionINtNtNtNtCs1rODQd5oASQ_22multiversx_sc_scenario3api7impl_vh12vm_hooks_api10VMHooksApiNtNtB3v_9debug_api15DebugApiBackendEEB11_16from_byte_readerNCNvMs2_NtB15_11managed_vecINtB5S_10ManagedVecB3q_B33_E7try_get0E0ECs8iyf5MSkCde_5tests
FNDA:80,_RINvXs21_Cs2eHPTk3TAlu_14common_structsNtB7_19AccountPositionTypeNtNtNtNtNtCslPMlHj3qn2H_13multiversx_sc5types7managed7wrapped16managed_vec_item14ManagedVecItem16from_byte_readerNCINvXs1S_B7_INtB7_15AccountPositionINtNtNtNtCs1rODQd5oASQ_22multiversx_sc_scenario3api7impl_vh12vm_hooks_api10VMHooksApiNtNtB3v_9debug_api15DebugApiBackendEEB11_16from_byte_readerNCNvXs0_NtB15_22managed_vec_owned_iterINtB5S_23ManagedVecOwnedIteratorB3q_B33_ENtNtNtNtCslGS7pEIChKc_4core4iter6traits8iterator8Iterator4next0E0ECs8iyf5MSkCde_5tests
FNDA:0,_RINvXs21_Cs2eHPTk3TAlu_14common_structsNtB7_19AccountPositionTypeNtNtNtNtNtCslPMlHj3qn2H_13multiversx_sc5types7managed7wrapped16managed_vec_item14ManagedVecItem16into_byte_writeruNCINvXs1S_B7_INtB7_15AccountPositionINtNtNtNtCs1rODQd5oASQ_22multiversx_sc_scenario3api7impl_vh12vm_hooks_api10VMHooksApiNtNtB3w_9debug_api15DebugApiBackendEEB11_16into_byte_writerINtNtCslGS7pEIChKc_4core6result6ResultuNtNtNtNtB1b_3api13managed_types18managed_buffer_api17InvalidSliceErrorENCNvMs2_NtB15_11managed_vecINtB7F_10ManagedVecB3r_B34_E3set0E0ECs8iyf5MSkCde_5tests
FNDA:840,_RINvXs21_Cs2eHPTk3TAlu_14common_structsNtB7_19AccountPositionTypeNtNtNtNtNtCslPMlHj3qn2H_13multiversx_sc5types7managed7wrapped16managed_vec_item14ManagedVecItem16into_byte_writeruNCINvXs1S_B7_INtB7_15AccountPositionINtNtNtNtCs1rODQd5oASQ_22multiversx_sc_scenario3api7impl_vh12vm_hooks_api10VMHooksApiNtNtB3w_9debug_api15DebugApiBackendEEB11_16into_byte_writeruNCNvMs2_NtB15_11managed_vecINtB5U_10ManagedVecB3r_B34_E4push0E0ECs8iyf5MSkCde_5tests
FNDA:1834,_RINvXs22_Cs2eHPTk3TAlu_14common_structsNtB7_19AccountPositionTypeNtNtNtCs5SUGlJDgeoS_19multiversx_sc_codec6single9nested_en12NestedEncode24dep_encode_or_handle_errINtNtNtNtNtCslPMlHj3qn2H_13multiversx_sc5types7managed5basic14managed_buffer13ManagedBufferINtNtNtNtCs1rODQd5oASQ_22multiversx_sc_scenario3api7impl_vh12vm_hooks_api10VMHooksApiNtNtB49_9debug_api15DebugApiBackendEEINtNtNtNtB2M_13contract_base8wrappers10serializer21ExitCodecErrorHandlerB44_EECs8iyf5MSkCde_5tests
FNDA:1886,_RINvXs22_Cs2eHPTk3TAlu_14common_structsNtB7_19AccountPositionTypeNtNtNtCs5SUGlJDgeoS_19multiversx_sc_codec6single9nested_en12NestedEncode24dep_encode_or_handle_errINtNtNtNtNtNtCslPMlHj3qn2H_13multiversx_sc5types7managed7wrapped7builder22managed_buffer_builder20ManagedBufferBuilderINtNtNtNtCs1rODQd5oASQ_22multiversx_sc_scenario3api7impl_vh12vm_hooks_api10VMHooksApiNtNtB4A_9debug_api15DebugApiBackendEEINtNtNtNtB2O_13contract_base8wrappers10serializer21ExitCodecErrorHandlerB4v_EECs8iyf5MSkCde_5tests
FNDA:1882,_RINvXs23_Cs2eHPTk3TAlu_14common_structsNtB7_19AccountPositionTypeNtNtNtCs5SUGlJDgeoS_19multiversx_sc_codec6single9nested_de12NestedDecode24dep_decode_or_handle_errINtNtNtNtNtCslPMlHj3qn2H_13multiversx_sc5types7managed10codec_util30managed_buffer_nested_de_input30ManagedBufferNestedDecodeInputINtNtNtNtCs1rODQd5oASQ_22multiversx_sc_scenario3api7impl_vh12vm_hooks_api10VMHooksApiNtNtB4M_9debug_api15DebugApiBackendEEINtNtNtB2M_2io17arg_error_handler15ArgErrorHandlerB4H_EECs8iyf5MSkCde_5tests
FNDA:1759,_RINvXs23_Cs2eHPTk3TAlu_14common_structsNtB7_19AccountPositionTypeNtNtNtCs5SUGlJDgeoS_19multiversx_sc_codec6single9nested_de12NestedDecode24dep_decode_or_handle_errINtNtNtNtNtCslPMlHj3qn2H_13multiversx_sc5types7managed10codec_util30managed_buffer_nested_de_input30ManagedBufferNestedDecodeInputINtNtNtNtCs1rODQd5oASQ_22multiversx_sc_scenario3api7impl_vh12vm_hooks_api10VMHooksApiNtNtB4M_9debug_api15DebugApiBackendEEINtNtNtB2M_7storage11storage_get22StorageGetErrorHandlerB4H_EECs8iyf5MSkCde_5tests
FNDA:0,_RINvXs2d_Cs2eHPTk3TAlu_14common_structsINtB7_10PoolParamsINtNtNtNtCs1rODQd5oASQ_22multiversx_sc_scenario3api7impl_vh12vm_hooks_api10VMHooksApiNtNtBY_9debug_api15DebugApiBackendEENtNtNtCs5SUGlJDgeoS_19multiversx_sc_codec6single6top_en9TopEncode24top_encode_or_handle_errINtNtNtCslPMlHj3qn2H_13multiversx_sc2io6finish16ApiOutputAdapterBT_EINtNtNtNtB4q_13contract_base8wrappers10serializer21ExitCodecErrorHandlerBT_EECs8iyf5MSkCde_5tests
FNDA:528,_RINvXs2d_Cs2eHPTk3TAlu_14common_structsINtB7_10PoolParamsINtNtNtNtCs1rODQd5oASQ_22multiversx_sc_scenario3api7impl_vh12vm_hooks_api10VMHooksApiNtNtBY_9debug_api15DebugApiBackendEENtNtNtCs5SUGlJDgeoS_19multiversx_sc_codec6single6top_en9TopEncode24top_encode_or_handle_errINtNtNtCslPMlHj3qn2H_13multiversx_sc7storage11storage_set16StorageSetOutputBT_EINtNtNtNtB4q_13contract_base8wrappers10serializer21ExitCodecErrorHandlerBT_EECs8iyf5MSkCde_5tests
FNDA:961,_RINvXs2e_Cs2eHPTk3TAlu_14common_structsINtB7_10PoolParamsINtNtNtNtCs1rODQd5oASQ_22multiversx_sc_scenario3api7impl_vh12vm_hooks_api10VMHooksApiNtNtBY_9debug_api15DebugApiBackendEENtNtNtCs5SUGlJDgeoS_19multiversx_sc_codec6single6top_de9TopDecode24top_decode_or_handle_errINtNtNtCslPMlHj3qn2H_13multiversx_sc7storage11storage_get15StorageGetInputBT_EINtB4m_22StorageGetErrorHandlerBT_EECs8iyf5MSkCde_5tests
FNDA:576,_RINvXs5_Cs2eHPTk3TAlu_14common_structsINtB6_22OraclePriceFluctuationINtNtNtNtCs1rODQd5oASQ_22multiversx_sc_scenario3api7impl_vh12vm_hooks_api10VMHooksApiNtNtB19_9debug_api15DebugApiBackendEENtNtNtCs5SUGlJDgeoS_19multiversx_sc_codec6single9nested_en12NestedEncode24dep_encode_or_handle_errINtNtNtNtNtNtCslPMlHj3qn2H_13multiversx_sc5types7managed7wrapped7builder22managed_buffer_builder20ManagedBufferBuilderB14_EINtNtNtNtB4P_13contract_base8wrappers10serializer21ExitCodecErrorHandlerB14_EECs8iyf5MSkCde_5tests
FNDA:614,_RINvXs6_Cs2eHPTk3TAlu_14common_structsINtB6_22OraclePriceFluctuationINtNtNtNtCs1rODQd5oASQ_22multiversx_sc_scenario3api7impl_vh12vm_hooks_api10VMHooksApiNtNtB19_9debug_api15DebugApiBackendEENtNtNtCs5SUGlJDgeoS_19multiversx_sc_codec6single9nested_de12NestedDecode24dep_decode_or_handle_errINtNtNtNtNtCslPMlHj3qn2H_13multiversx_sc5types7managed10codec_util30managed_buffer_nested_de_input30ManagedBufferNestedDecodeInputB14_EINtNtNtB4N_7storage11storage_get22StorageGetErrorHandlerB14_EECs8iyf5MSkCde_5tests
FNDA:576,_RINvXsD_Cs2eHPTk3TAlu_14common_structsNtB6_10OracleTypeNtNtNtCs5SUGlJDgeoS_19multiversx_sc_codec6single9nested_en12NestedEncode24dep_encode_or_handle_errINtNtNtNtNtNtCslPMlHj3qn2H_13multiversx_sc5types7managed7wrapped7builder22managed_buffer_builder20ManagedBufferBuilderINtNtNtNtCs1rODQd5oASQ_22multiversx_sc_scenario3api7impl_vh12vm_hooks_api10VMHooksApiNtNtB4q_9debug_api15DebugApiBackendEEINtNtNtNtB2E_13contract_base8wrappers10serializer21ExitCodecErrorHandlerB4l_EECs8iyf5MSkCde_5tests
FNDA:614,_RINvXsE_Cs2eHPTk3TAlu_14common_structsNtB6_10OracleTypeNtNtNtCs5SUGlJDgeoS_19multiversx_sc_codec6single9nested_de12NestedDecode24dep_decode_or_handle_errINtNtNtNtNtCslPMlHj3qn2H_13multiversx_sc5types7managed10codec_util30managed_buffer_nested_de_input30ManagedBufferNestedDecodeInputINtNtNtNtCs1rODQd5oASQ_22multiversx_sc_scenario3api7impl_vh12vm_hooks_api10VMHooksApiNtNtB4C_9debug_api15DebugApiBackendEEINtNtNtB2C_7storage11storage_get22StorageGetErrorHandlerB4x_EECs8iyf5MSkCde_5tests
FNDA:576,_RINvXsF_Cs2eHPTk3TAlu_14common_structsNtB6_10OracleTypeNtNtNtCs5SUGlJDgeoS_19multiversx_sc_codec6single6top_en9TopEncode24top_encode_or_handle_errQINtNtNtNtNtCslPMlHj3qn2H_13multiversx_sc5types7managed5basic14managed_buffer13ManagedBufferINtNtNtNtCs1rODQd5oASQ_22multiversx_sc_scenario3api7impl_vh12vm_hooks_api10VMHooksApiNtNtB3T_10static_api16StaticApiBackendEEINtNtNtNtB2w_13contract_base8wrappers10serializer21ExitCodecErrorHandlerB3O_EECs8iyf5MSkCde_5tests
FNDA:576,_RINvXsG_Cs2eHPTk3TAlu_14common_structsNtB6_10OracleTypeNtNtNtCs5SUGlJDgeoS_19multiversx_sc_codec6single6top_de9TopDecode24top_decode_or_handle_errINtNtNtCslPMlHj3qn2H_13multiversx_sc2io12arg_de_input14ArgDecodeInputINtNtNtNtCs1rODQd5oASQ_22multiversx_sc_scenario3api7impl_vh12vm_hooks_api10VMHooksApiNtNtB3w_9debug_api15DebugApiBackendEEINtNtB2p_17arg_error_handler15ArgErrorHandlerB3r_EECs8iyf5MSkCde_5tests
FNDA:576,_RINvXsP_Cs2eHPTk3TAlu_14common_structsNtB6_13PricingMethodNtNtNtCs5SUGlJDgeoS_19multiversx_sc_codec6single9nested_en12NestedEncode24dep_encode_or_handle_errINtNtNtNtNtNtCslPMlHj3qn2H_13multiversx_sc5types7managed7wrapped7builder22managed_buffer_builder20ManagedBufferBuilderINtNtNtNtCs1rODQd5oASQ_22multiversx_sc_scenario3api7impl_vh12vm_hooks_api10VMHooksApiNtNtB4t_9debug_api15DebugApiBackendEEINtNtNtNtB2H_13contract_base8wrappers10serializer21ExitCodecErrorHandlerB4o_EECs8iyf5MSkCde_5tests
FNDA:614,_RINvXsQ_Cs2eHPTk3TAlu_14common_structsNtB6_13PricingMethodNtNtNtCs5SUGlJDgeoS_19multiversx_sc_codec6single9nested_de12NestedDecode24dep_decode_or_handle_errINtNtNtNtNtCslPMlHj3qn2H_13multiversx_sc5types7managed10codec_util30managed_buffer_nested_de_input30ManagedBufferNestedDecodeInputINtNtNtNtCs1rODQd5oASQ_22multiversx_sc_scenario3api7impl_vh12vm_hooks_api10VMHooksApiNtNtB4F_9debug_api15DebugApiBackendEEINtNtNtB2F_7storage11storage_get22StorageGetErrorHandlerB4A_EECs8iyf5MSkCde_5tests
FNDA:576,_RINvXsR_Cs2eHPTk3TAlu_14common_structsNtB6_13PricingMethodNtNtNtCs5SUGlJDgeoS_19multiversx_sc_codec6single6top_en9TopEncode24top_encode_or_handle_errQINtNtNtNtNtCslPMlHj3qn2H_13multiversx_sc5types7managed5basic14managed_buffer13ManagedBufferINtNtNtNtCs1rODQd5oASQ_22multiversx_sc_scenario3api7impl_vh12vm_hooks_api10VMHooksApiNtNtB3W_10static_api16StaticApiBackendEEINtNtNtNtB2z_13contract_base8wrappers10serializer21ExitCodecErrorHandlerB3R_EECs8iyf5MSkCde_5tests
FNDA:576,_RINvXsS_Cs2eHPTk3TAlu_14common_structsNtB6_13PricingMethodNtNtNtCs5SUGlJDgeoS_19multiversx_sc_codec6single6top_de9TopDecode24top_decode_or_handle_errINtNtNtCslPMlHj3qn2H_13multiversx_sc2io12arg_de_input14ArgDecodeInputINtNtNtNtCs1rODQd5oASQ_22multiversx_sc_scenario3api7impl_vh12vm_hooks_api10VMHooksApiNtNtB3z_9debug_api15DebugApiBackendEEINtNtB2s_17arg_error_handler15ArgErrorHandlerB3u_EECs8iyf5MSkCde_5tests
FNDA:0,_RINvXsc_Cs2eHPTk3TAlu_14common_structsINtB6_14PriceFeedShortINtNtNtNtCs1rODQd5oASQ_22multiversx_sc_scenario3api7impl_vh12vm_hooks_api10VMHooksApiNtNtB11_9debug_api15DebugApiBackendEENtNtNtCs5SUGlJDgeoS_19multiversx_sc_codec6single6top_en9TopEncode24top_encode_or_handle_errINtNtNtCslPMlHj3qn2H_13multiversx_sc2io6finish16ApiOutputAdapterBW_EINtNtNtNtB4u_13contract_base8wrappers10serializer21ExitCodecErrorHandlerBW_EECs8iyf5MSkCde_5tests
FNDA:0,_RINvXsj_Cs2eHPTk3TAlu_14common_structsINtB6_14OracleProviderINtNtNtNtCs1rODQd5oASQ_22multiversx_sc_scenario3api7impl_vh12vm_hooks_api10VMHooksApiNtNtB11_9debug_api15DebugApiBackendEENtNtNtCs5SUGlJDgeoS_19multiversx_sc_codec6single6top_en9TopEncode24top_encode_or_handle_errINtNtNtCslPMlHj3qn2H_13multiversx_sc2io6finish16ApiOutputAdapterBW_EINtNtNtNtB4u_13contract_base8wrappers10serializer21ExitCodecErrorHandlerBW_EECs8iyf5MSkCde_5tests
FNDA:576,_RINvXsj_Cs2eHPTk3TAlu_14common_structsINtB6_14OracleProviderINtNtNtNtCs1rODQd5oASQ_22multiversx_sc_scenario3api7impl_vh12vm_hooks_api10VMHooksApiNtNtB11_9debug_api15DebugApiBackendEENtNtNtCs5SUGlJDgeoS_19multiversx_sc_codec6single6top_en9TopEncode24top_encode_or_handle_errINtNtNtCslPMlHj3qn2H_13multiversx_sc7storage11storage_set16StorageSetOutputBW_EINtNtNtNtB4u_13contract_base8wrappers10serializer21ExitCodecErrorHandlerBW_EECs8iyf5MSkCde_5tests
FNDA:614,_RINvXsk_Cs2eHPTk3TAlu_14common_structsINtB6_14OracleProviderINtNtNtNtCs1rODQd5oASQ_22multiversx_sc_scenario3api7impl_vh12vm_hooks_api10VMHooksApiNtNtB11_9debug_api15DebugApiBackendEENtNtNtCs5SUGlJDgeoS_19multiversx_sc_codec6single6top_de9TopDecode24top_decode_or_handle_errINtNtNtCslPMlHj3qn2H_13multiversx_sc7storage11storage_get15StorageGetInputBW_EINtB4q_22StorageGetErrorHandlerBW_EECs8iyf5MSkCde_5tests
FNDA:576,_RINvXsr_Cs2eHPTk3TAlu_14common_structsNtB6_14ExchangeSourceNtNtNtCs5SUGlJDgeoS_19multiversx_sc_codec6single9nested_en12NestedEncode24dep_encode_or_handle_errINtNtNtNtNtNtCslPMlHj3qn2H_13multiversx_sc5types7managed7wrapped7builder22managed_buffer_builder20ManagedBufferBuilderINtNtNtNtCs1rODQd5oASQ_22multiversx_sc_scenario3api7impl_vh12vm_hooks_api10VMHooksApiNtNtB4u_9debug_api15DebugApiBackendEEINtNtNtNtB2I_13contract_base8wrappers10serializer21ExitCodecErrorHandlerB4p_EECs8iyf5MSkCde_5tests
FNDA:614,_RINvXss_Cs2eHPTk3TAlu_14common_structsNtB6_14ExchangeSourceNtNtNtCs5SUGlJDgeoS_19multiversx_sc_codec6single9nested_de12NestedDecode24dep_decode_or_handle_errINtNtNtNtNtCslPMlHj3qn2H_13multiversx_sc5types7managed10codec_util30managed_buffer_nested_de_input30ManagedBufferNestedDecodeInputINtNtNtNtCs1rODQd5oASQ_22multiversx_sc_scenario3api7impl_vh12vm_hooks_api10VMHooksApiNtNtB4G_9debug_api15DebugApiBackendEEINtNtNtB2G_7storage11storage_get22StorageGetErrorHandlerB4B_EECs8iyf5MSkCde_5tests
FNDA:576,_RINvXst_Cs2eHPTk3TAlu_14common_structsNtB6_14ExchangeSourceNtNtNtCs5SUGlJDgeoS_19multiversx_sc_codec6single6top_en9TopEncode24top_encode_or_handle_errQINtNtNtNtNtCslPMlHj3qn2H_13multiversx_sc5types7managed5basic14managed_buffer13ManagedBufferINtNtNtNtCs1rODQd5oASQ_22multiversx_sc_scenario3api7impl_vh12vm_hooks_api10VMHooksApiNtNtB3X_10static_api16StaticApiBackendEEINtNtNtNtB2A_13contract_base8wrappers10serializer21ExitCodecErrorHandlerB3S_EECs8iyf5MSkCde_5tests
FNDA:576,_RINvXsu_Cs2eHPTk3TAlu_14common_structsNtB6_14ExchangeSourceNtNtNtCs5SUGlJDgeoS_19multiversx_sc_codec6single6top_de9TopDecode24top_decode_or_handle_errINtNtNtCslPMlHj3qn2H_13multiversx_sc2io12arg_de_input14ArgDecodeInputINtNtNtNtCs1rODQd5oASQ_22multiversx_sc_scenario3api7impl_vh12vm_hooks_api10VMHooksApiNtNtB3A_9debug_api15DebugApiBackendEEINtNtB2t_17arg_error_handler15ArgErrorHandlerB3v_EECs8iyf5MSkCde_5tests
FNDA:174,_RNCINvXs10_Cs2eHPTk3TAlu_14common_structsINtB9_25EgldOrEsdtTokenPaymentNewINtNtNtNtCs1rODQd5oASQ_22multiversx_sc_scenario3api7impl_vh12vm_hooks_api10VMHooksApiNtNtB1f_9debug_api15DebugApiBackendEENtNtNtNtNtCslPMlHj3qn2H_13multiversx_sc5types7managed7wrapped16managed_vec_item14ManagedVecItem16from_byte_readerNCNvMs2_NtB3c_11managed_vecINtB55_10ManagedVecB1a_BD_E7try_get0E0Cs8iyf5MSkCde_5tests
FNDA:174,_RNCINvXs10_Cs2eHPTk3TAlu_14common_structsINtB9_25EgldOrEsdtTokenPaymentNewINtNtNtNtCs1rODQd5oASQ_22multiversx_sc_scenario3api7impl_vh12vm_hooks_api10VMHooksApiNtNtB1f_9debug_api15DebugApiBackendEENtNtNtNtNtCslPMlHj3qn2H_13multiversx_sc5types7managed7wrapped16managed_vec_item14ManagedVecItem16from_byte_readerNCNvMs2_NtB3c_11managed_vecINtB55_10ManagedVecB1a_BD_E7try_get0Es0_0Cs8iyf5MSkCde_5tests
FNDA:174,_RNCINvXs10_Cs2eHPTk3TAlu_14common_structsINtB9_25EgldOrEsdtTokenPaymentNewINtNtNtNtCs1rODQd5oASQ_22multiversx_sc_scenario3api7impl_vh12vm_hooks_api10VMHooksApiNtNtB1f_9debug_api15DebugApiBackendEENtNtNtNtNtCslPMlHj3qn2H_13multiversx_sc5types7managed7wrapped16managed_vec_item14ManagedVecItem16from_byte_readerNCNvMs2_NtB3c_11managed_vecINtB55_10ManagedVecB1a_BD_E7try_get0Es_0Cs8iyf5MSkCde_5tests
FNDA:167,_RNCINvXs10_Cs2eHPTk3TAlu_14common_structsINtB9_25EgldOrEsdtTokenPaymentNewINtNtNtNtCs1rODQd5oASQ_22multiversx_sc_scenario3api7impl_vh12vm_hooks_api10VMHooksApiNtNtB1f_9debug_api15DebugApiBackendEENtNtNtNtNtCslPMlHj3qn2H_13multiversx_sc5types7managed7wrapped16managed_vec_item14ManagedVecItem16from_byte_readerNCNvXs0_NtB3c_22managed_vec_owned_iterINtB55_23ManagedVecOwnedIteratorB1a_BD_ENtNtNtNtCslGS7pEIChKc_4core4iter6traits8iterator8Iterator4next0E0Cs8iyf5MSkCde_5tests
FNDA:167,_RNCINvXs10_Cs2eHPTk3TAlu_14common_structsINtB9_25EgldOrEsdtTokenPaymentNewINtNtNtNtCs1rODQd5oASQ_22multiversx_sc_scenario3api7impl_vh12vm_hooks_api10VMHooksApiNtNtB1f_9debug_api15DebugApiBackendEENtNtNtNtNtCslPMlHj3qn2H_13multiversx_sc5types7managed7wrapped16managed_vec_item14ManagedVecItem16from_byte_readerNCNvXs0_NtB3c_22managed_vec_owned_iterINtB55_23ManagedVecOwnedIteratorB1a_BD_ENtNtNtNtCslGS7pEIChKc_4core4iter6traits8iterator8Iterator4next0Es0_0Cs8iyf5MSkCde_5tests
FNDA:167,_RNCINvXs10_Cs2eHPTk3TAlu_14common_structsINtB9_25EgldOrEsdtTokenPaymentNewINtNtNtNtCs1rODQd5oASQ_22multiversx_sc_scenario3api7impl_vh12vm_hooks_api10VMHooksApiNtNtB1f_9debug_api15DebugApiBackendEENtNtNtNtNtCslPMlHj3qn2H_13multiversx_sc5types7managed7wrapped16managed_vec_item14ManagedVecItem16from_byte_readerNCNvXs0_NtB3c_22managed_vec_owned_iterINtB55_23ManagedVecOwnedIteratorB1a_BD_ENtNtNtNtCslGS7pEIChKc_4core4iter6traits8iterator8Iterator4next0Es_0Cs8iyf5MSkCde_5tests
FNDA:180,_RNCINvXs10_Cs2eHPTk3TAlu_14common_structsINtB9_25EgldOrEsdtTokenPaymentNewINtNtNtNtCs1rODQd5oASQ_22multiversx_sc_scenario3api7impl_vh12vm_hooks_api10VMHooksApiNtNtB1f_9debug_api15DebugApiBackendEENtNtNtNtNtCslPMlHj3qn2H_13multiversx_sc5types7managed7wrapped16managed_vec_item14ManagedVecItem16into_byte_writeruNCNvMs2_NtB3c_11managed_vecINtB56_10ManagedVecB1a_BD_E4push0E0Cs8iyf5MSkCde_5tests
FNDA:180,_RNCINvXs10_Cs2eHPTk3TAlu_14common_structsINtB9_25EgldOrEsdtTokenPaymentNewINtNtNtNtCs1rODQd5oASQ_22multiversx_sc_scenario3api7impl_vh12vm_hooks_api10VMHooksApiNtNtB1f_9debug_api15DebugApiBackendEENtNtNtNtNtCslPMlHj3qn2H_13multiversx_sc5types7managed7wrapped16managed_vec_item14ManagedVecItem16into_byte_writeruNCNvMs2_NtB3c_11managed_vecINtB56_10ManagedVecB1a_BD_E4push0Es0_0Cs8iyf5MSkCde_5tests
FNDA:180,_RNCINvXs10_Cs2eHPTk3TAlu_14common_structsINtB9_25EgldOrEsdtTokenPaymentNewINtNtNtNtCs1rODQd5oASQ_22multiversx_sc_scenario3api7impl_vh12vm_hooks_api10VMHooksApiNtNtB1f_9debug_api15DebugApiBackendEENtNtNtNtNtCslPMlHj3qn2H_13multiversx_sc5types7managed7wrapped16managed_vec_item14ManagedVecItem16into_byte_writeruNCNvMs2_NtB3c_11managed_vecINtB56_10ManagedVecB1a_BD_E4push0Es_0Cs8iyf5MSkCde_5tests
FNDA:0,_RNCINvXs1B_Cs2eHPTk3TAlu_14common_structsINtB9_23AssetExtendedConfigViewINtNtNtNtCs1rODQd5oASQ_22multiversx_sc_scenario3api7impl_vh12vm_hooks_api10VMHooksApiNtNtB1d_9debug_api15DebugApiBackendEENtNtNtNtNtCslPMlHj3qn2H_13multiversx_sc5types7managed7wrapped16managed_vec_item14ManagedVecItem16from_byte_readerNCNvXs0_NtB3a_22managed_vec_owned_iterINtB53_23ManagedVecOwnedIteratorB18_BD_ENtNtNtNtCslGS7pEIChKc_4core4iter6traits8iterator8Iterator4next0E0Cs8iyf5MSkCde_5tests
FNDA:0,_RNCINvXs1B_Cs2eHPTk3TAlu_14common_structsINtB9_23AssetExtendedConfigViewINtNtNtNtCs1rODQd5oASQ_22multiversx_sc_scenario3api7impl_vh12vm_hooks_api10VMHooksApiNtNtB1d_9debug_api15DebugApiBackendEENtNtNtNtNtCslPMlHj3qn2H_13multiversx_sc5types7managed7wrapped16managed_vec_item14ManagedVecItem16from_byte_readerNCNvXs0_NtB3a_22managed_vec_owned_iterINtB53_23ManagedVecOwnedIteratorB18_BD_ENtNtNtNtCslGS7pEIChKc_4core4iter6traits8iterator8Iterator4next0Es0_0Cs8iyf5MSkCde_5tests
FNDA:0,_RNCINvXs1B_Cs2eHPTk3TAlu_14common_structsINtB9_23AssetExtendedConfigViewINtNtNtNtCs1rODQd5oASQ_22multiversx_sc_scenario3api7impl_vh12vm_hooks_api10VMHooksApiNtNtB1d_9debug_api15DebugApiBackendEENtNtNtNtNtCslPMlHj3qn2H_13multiversx_sc5types7managed7wrapped16managed_vec_item14ManagedVecItem16from_byte_readerNCNvXs0_NtB3a_22managed_vec_owned_iterINtB53_23ManagedVecOwnedIteratorB18_BD_ENtNtNtNtCslGS7pEIChKc_4core4iter6traits8iterator8Iterator4next0Es1_0Cs8iyf5MSkCde_5tests
FNDA:0,_RNCINvXs1B_Cs2eHPTk3TAlu_14common_structsINtB9_23AssetExtendedConfigViewINtNtNtNtCs1rODQd5oASQ_22multiversx_sc_scenario3api7impl_vh12vm_hooks_api10VMHooksApiNtNtB1d_9debug_api15DebugApiBackendEENtNtNtNtNtCslPMlHj3qn2H_13multiversx_sc5types7managed7wrapped16managed_vec_item14ManagedVecItem16from_byte_readerNCNvXs0_NtB3a_22managed_vec_owned_iterINtB53_23ManagedVecOwnedIteratorB18_BD_ENtNtNtNtCslGS7pEIChKc_4core4iter6traits8iterator8Iterator4next0Es_0Cs8iyf5MSkCde_5tests
FNDA:0,_RNCINvXs1B_Cs2eHPTk3TAlu_14common_structsINtB9_23AssetExtendedConfigViewINtNtNtNtCs1rODQd5oASQ_22multiversx_sc_scenario3api7impl_vh12vm_hooks_api10VMHooksApiNtNtB1d_9debug_api15DebugApiBackendEENtNtNtNtNtCslPMlHj3qn2H_13multiversx_sc5types7managed7wrapped16managed_vec_item14ManagedVecItem16into_byte_writeruNCNvMs2_NtB3a_11managed_vecINtB54_10ManagedVecB18_BD_E4push0E0Cs8iyf5MSkCde_5tests
FNDA:0,_RNCINvXs1B_Cs2eHPTk3TAlu_14common_structsINtB9_23AssetExtendedConfigViewINtNtNtNtCs1rODQd5oASQ_22multiversx_sc_scenario3api7impl_vh12vm_hooks_api10VMHooksApiNtNtB1d_9debug_api15DebugApiBackendEENtNtNtNtNtCslPMlHj3qn2H_13multiversx_sc5types7managed7wrapped16managed_vec_item14ManagedVecItem16into_byte_writeruNCNvMs2_NtB3a_11managed_vecINtB54_10ManagedVecB18_BD_E4push0Es0_0Cs8iyf5MSkCde_5tests
FNDA:0,_RNCINvXs1B_Cs2eHPTk3TAlu_14common_structsINtB9_23AssetExtendedConfigViewINtNtNtNtCs1rODQd5oASQ_22multiversx_sc_scenario3api7impl_vh12vm_hooks_api10VMHooksApiNtNtB1d_9debug_api15DebugApiBackendEENtNtNtNtNtCslPMlHj3qn2H_13multiversx_sc5types7managed7wrapped16managed_vec_item14ManagedVecItem16into_byte_writeruNCNvMs2_NtB3a_11managed_vecINtB54_10ManagedVecB18_BD_E4push0Es1_0Cs8iyf5MSkCde_5tests
FNDA:0,_RNCINvXs1B_Cs2eHPTk3TAlu_14common_structsINtB9_23AssetExtendedConfigViewINtNtNtNtCs1rODQd5oASQ_22multiversx_sc_scenario3api7impl_vh12vm_hooks_api10VMHooksApiNtNtB1d_9debug_api15DebugApiBackendEENtNtNtNtNtCslPMlHj3qn2H_13multiversx_sc5types7managed7wrapped16managed_vec_item14ManagedVecItem16into_byte_writeruNCNvMs2_NtB3a_11managed_vecINtB54_10ManagedVecB18_BD_E4push0Es_0Cs8iyf5MSkCde_5tests
FNDA:0,_RNCINvXs1J_Cs2eHPTk3TAlu_14common_structsINtB9_11AssetConfigINtNtNtNtCs1rODQd5oASQ_22multiversx_sc_scenario3api7impl_vh12vm_hooks_api10VMHooksApiNtNtB11_9debug_api15DebugApiBackendEENtNtNtNtNtCslPMlHj3qn2H_13multiversx_sc5types7managed7wrapped16managed_vec_item14ManagedVecItem16from_byte_readerNCINvXs1B_B9_INtB9_23AssetExtendedConfigViewBW_EB2U_16from_byte_readerNCNvXs0_NtB2Y_22managed_vec_owned_iterINtB5Z_23ManagedVecOwnedIteratorBW_B4W_ENtNtNtNtCslGS7pEIChKc_4core4iter6traits8iterator8Iterator4next0E0E0Cs8iyf5MSkCde_5tests
FNDA:0,_RNCINvXs1J_Cs2eHPTk3TAlu_14common_structsINtB9_11AssetConfigINtNtNtNtCs1rODQd5oASQ_22multiversx_sc_scenario3api7impl_vh12vm_hooks_api10VMHooksApiNtNtB11_9debug_api15DebugApiBackendEENtNtNtNtNtCslPMlHj3qn2H_13multiversx_sc5types7managed7wrapped16managed_vec_item14ManagedVecItem16from_byte_readerNCINvXs1B_B9_INtB9_23AssetExtendedConfigViewBW_EB2U_16from_byte_readerNCNvXs0_NtB2Y_22managed_vec_owned_iterINtB5Z_23ManagedVecOwnedIteratorBW_B4W_ENtNtNtNtCslGS7pEIChKc_4core4iter6traits8iterator8Iterator4next0E0Es0_0Cs8iyf5MSkCde_5tests
FNDA:0,_RNCINvXs1J_Cs2eHPTk3TAlu_14common_structsINtB9_11AssetConfigINtNtNtNtCs1rODQd5oASQ_22multiversx_sc_scenario3api7impl_vh12vm_hooks_api10VMHooksApiNtNtB11_9debug_api15DebugApiBackendEENtNtNtNtNtCslPMlHj3qn2H_13multiversx_sc5types7managed7wrapped16managed_vec_item14ManagedVecItem16from_byte_readerNCINvXs1B_B9_INtB9_23AssetExtendedConfigViewBW_EB2U_16from_byte_readerNCNvXs0_NtB2Y_22managed_vec_owned_iterINtB5Z_23ManagedVecOwnedIteratorBW_B4W_ENtNtNtNtCslGS7pEIChKc_4core4iter6traits8iterator8Iterator4next0E0Es1_0Cs8iyf5MSkCde_5tests
FNDA:0,_RNCINvXs1J_Cs2eHPTk3TAlu_14common_structsINtB9_11AssetConfigINtNtNtNtCs1rODQd5oASQ_22multiversx_sc_scenario3api7impl_vh12vm_hooks_api10VMHooksApiNtNtB11_9debug_api15DebugApiBackendEENtNtNtNtNtCslPMlHj3qn2H_13multiversx_sc5types7managed7wrapped16managed_vec_item14ManagedVecItem16from_byte_readerNCINvXs1B_B9_INtB9_23AssetExtendedConfigViewBW_EB2U_16from_byte_readerNCNvXs0_NtB2Y_22managed_vec_owned_iterINtB5Z_23ManagedVecOwnedIteratorBW_B4W_ENtNtNtNtCslGS7pEIChKc_4core4iter6traits8iterator8Iterator4next0E0Es2_0Cs8iyf5MSkCde_5tests
FNDA:0,_RNCINvXs1J_Cs2eHPTk3TAlu_14common_structsINtB9_11AssetConfigINtNtNtNtCs1rODQd5oASQ_22multiversx_sc_scenario3api7impl_vh12vm_hooks_api10VMHooksApiNtNtB11_9debug_api15DebugApiBackendEENtNtNtNtNtCslPMlHj3qn2H_13multiversx_sc5types7managed7wrapped16managed_vec_item14ManagedVecItem16from_byte_readerNCINvXs1B_B9_INtB9_23AssetExtendedConfigViewBW_EB2U_16from_byte_readerNCNvXs0_NtB2Y_22managed_vec_owned_iterINtB5Z_23ManagedVecOwnedIteratorBW_B4W_ENtNtNtNtCslGS7pEIChKc_4core4iter6traits8iterator8Iterator4next0E0Es3_0Cs8iyf5MSkCde_5tests
FNDA:0,_RNCINvXs1J_Cs2eHPTk3TAlu_14common_structsINtB9_11AssetConfigINtNtNtNtCs1rODQd5oASQ_22multiversx_sc_scenario3api7impl_vh12vm_hooks_api10VMHooksApiNtNtB11_9debug_api15DebugApiBackendEENtNtNtNtNtCslPMlHj3qn2H_13multiversx_sc5types7managed7wrapped16managed_vec_item14ManagedVecItem16from_byte_readerNCINvXs1B_B9_INtB9_23AssetExtendedConfigViewBW_EB2U_16from_byte_readerNCNvXs0_NtB2Y_22managed_vec_owned_iterINtB5Z_23ManagedVecOwnedIteratorBW_B4W_ENtNtNtNtCslGS7pEIChKc_4core4iter6traits8iterator8Iterator4next0E0Es4_0Cs8iyf5MSkCde_5tests
FNDA:0,_RNCINvXs1J_Cs2eHPTk3TAlu_14common_structsINtB9_11AssetConfigINtNtNtNtCs1rODQd5oASQ_22multiversx_sc_scenario3api7impl_vh12vm_hooks_api10VMHooksApiNtNtB11_9debug_api15DebugApiBackendEENtNtNtNtNtCslPMlHj3qn2H_13multiversx_sc5types7managed7wrapped16managed_vec_item14ManagedVecItem16from_byte_readerNCINvXs1B_B9_INtB9_23AssetExtendedConfigViewBW_EB2U_16from_byte_readerNCNvXs0_NtB2Y_22managed_vec_owned_iterINtB5Z_23ManagedVecOwnedIteratorBW_B4W_ENtNtNtNtCslGS7pEIChKc_4core4iter6traits8iterator8Iterator4next0E0Es5_0Cs8iyf5MSkCde_5tests
FNDA:0,_RNCINvXs1J_Cs2eHPTk3TAlu_14common_structsINtB9_11AssetConfigINtNtNtNtCs1rODQd5oASQ_22multiversx_sc_scenario3api7impl_vh12vm_hooks_api10VMHooksApiNtNtB11_9debug_api15DebugApiBackendEENtNtNtNtNtCslPMlHj3qn2H_13multiversx_sc5types7managed7wrapped16managed_vec_item14ManagedVecItem16from_byte_readerNCINvXs1B_B9_INtB9_23AssetExtendedConfigViewBW_EB2U_16from_byte_readerNCNvXs0_NtB2Y_22managed_vec_owned_iterINtB5Z_23ManagedVecOwnedIteratorBW_B4W_ENtNtNtNtCslGS7pEIChKc_4core4iter6traits8iterator8Iterator4next0E0Es6_0Cs8iyf5MSkCde_5tests
FNDA:0,_RNCINvXs1J_Cs2eHPTk3TAlu_14common_structsINtB9_11AssetConfigINtNtNtNtCs1rODQd5oASQ_22multiversx_sc_scenario3api7impl_vh12vm_hooks_api10VMHooksApiNtNtB11_9debug_api15DebugApiBackendEENtNtNtNtNtCslPMlHj3qn2H_13multiversx_sc5types7managed7wrapped16managed_vec_item14ManagedVecItem16from_byte_readerNCINvXs1B_B9_INtB9_23AssetExtendedConfigViewBW_EB2U_16from_byte_readerNCNvXs0_NtB2Y_22managed_vec_owned_iterINtB5Z_23ManagedVecOwnedIteratorBW_B4W_ENtNtNtNtCslGS7pEIChKc_4core4iter6traits8iterator8Iterator4next0E0Es7_0Cs8iyf5MSkCde_5tests
FNDA:0,_RNCINvXs1J_Cs2eHPTk3TAlu_14common_structsINtB9_11AssetConfigINtNtNtNtCs1rODQd5oASQ_22multiversx_sc_scenario3api7impl_vh12vm_hooks_api10VMHooksApiNtNtB11_9debug_api15DebugApiBackendEENtNtNtNtNtCslPMlHj3qn2H_13multiversx_sc5types7managed7wrapped16managed_vec_item14ManagedVecItem16from_byte_readerNCINvXs1B_B9_INtB9_23AssetExtendedConfigViewBW_EB2U_16from_byte_readerNCNvXs0_NtB2Y_22managed_vec_owned_iterINtB5Z_23ManagedVecOwnedIteratorBW_B4W_ENtNtNtNtCslGS7pEIChKc_4core4iter6traits8iterator8Iterator4next0E0Es8_0Cs8iyf5MSkCde_5tests
FNDA:0,_RNCINvXs1J_Cs2eHPTk3TAlu_14common_structsINtB9_11AssetConfigINtNtNtNtCs1rODQd5oASQ_22multiversx_sc_scenario3api7impl_vh12vm_hooks_api10VMHooksApiNtNtB11_9debug_api15DebugApiBackendEENtNtNtNtNtCslPMlHj3qn2H_13multiversx_sc5types7managed7wrapped16managed_vec_item14ManagedVecItem16from_byte_readerNCINvXs1B_B9_INtB9_23AssetExtendedConfigViewBW_EB2U_16from_byte_readerNCNvXs0_NtB2Y_22managed_vec_owned_iterINtB5Z_23ManagedVecOwnedIteratorBW_B4W_ENtNtNtNtCslGS7pEIChKc_4core4iter6traits8iterator8Iterator4next0E0Es9_0Cs8iyf5MSkCde_5tests
FNDA:0,_RNCINvXs1J_Cs2eHPTk3TAlu_14common_structsINtB9_11AssetConfigINtNtNtNtCs1rODQd5oASQ_22multiversx_sc_scenario3api7impl_vh12vm_hooks_api10VMHooksApiNtNtB11_9debug_api15DebugApiBackendEENtNtNtNtNtCslPMlHj3qn2H_13multiversx_sc5types7managed7wrapped16managed_vec_item14ManagedVecItem16from_byte_readerNCINvXs1B_B9_INtB9_23AssetExtendedConfigViewBW_EB2U_16from_byte_readerNCNvXs0_NtB2Y_22managed_vec_owned_iterINtB5Z_23ManagedVecOwnedIteratorBW_B4W_ENtNtNtNtCslGS7pEIChKc_4core4iter6traits8iterator8Iterator4next0E0Es_0Cs8iyf5MSkCde_5tests
FNDA:0,_RNCINvXs1J_Cs2eHPTk3TAlu_14common_structsINtB9_11AssetConfigINtNtNtNtCs1rODQd5oASQ_22multiversx_sc_scenario3api7impl_vh12vm_hooks_api10VMHooksApiNtNtB11_9debug_api15DebugApiBackendEENtNtNtNtNtCslPMlHj3qn2H_13multiversx_sc5types7managed7wrapped16managed_vec_item14ManagedVecItem16from_byte_readerNCINvXs1B_B9_INtB9_23AssetExtendedConfigViewBW_EB2U_16from_byte_readerNCNvXs0_NtB2Y_22managed_vec_owned_iterINtB5Z_23ManagedVecOwnedIteratorBW_B4W_ENtNtNtNtCslGS7pEIChKc_4core4iter6traits8iterator8Iterator4next0E0Esa_0Cs8iyf5MSkCde_5tests
FNDA:0,_RNCINvXs1J_Cs2eHPTk3TAlu_14common_structsINtB9_11AssetConfigINtNtNtNtCs1rODQd5oASQ_22multiversx_sc_scenario3api7impl_vh12vm_hooks_api10VMHooksApiNtNtB11_9debug_api15DebugApiBackendEENtNtNtNtNtCslPMlHj3qn2H_13multiversx_sc5types7managed7wrapped16managed_vec_item14ManagedVecItem16from_byte_readerNCINvXs1B_B9_INtB9_23AssetExtendedConfigViewBW_EB2U_16from_byte_readerNCNvXs0_NtB2Y_22managed_vec_owned_iterINtB5Z_23ManagedVecOwnedIteratorBW_B4W_ENtNtNtNtCslGS7pEIChKc_4core4iter6traits8iterator8Iterator4next0E0Esb_0Cs8iyf5MSkCde_5tests
FNDA:0,_RNCINvXs1J_Cs2eHPTk3TAlu_14common_structsINtB9_11AssetConfigINtNtNtNtCs1rODQd5oASQ_22multiversx_sc_scenario3api7impl_vh12vm_hooks_api10VMHooksApiNtNtB11_9debug_api15DebugApiBackendEENtNtNtNtNtCslPMlHj3qn2H_13multiversx_sc5types7managed7wrapped16managed_vec_item14ManagedVecItem16from_byte_readerNCINvXs1B_B9_INtB9_23AssetExtendedConfigViewBW_EB2U_16from_byte_readerNCNvXs0_NtB2Y_22managed_vec_owned_iterINtB5Z_23ManagedVecOwnedIteratorBW_B4W_ENtNtNtNtCslGS7pEIChKc_4core4iter6traits8iterator8Iterator4next0E0Esc_0Cs8iyf5MSkCde_5tests
FNDA:0,_RNCINvXs1J_Cs2eHPTk3TAlu_14common_structsINtB9_11AssetConfigINtNtNtNtCs1rODQd5oASQ_22multiversx_sc_scenario3api7impl_vh12vm_hooks_api10VMHooksApiNtNtB11_9debug_api15DebugApiBackendEENtNtNtNtNtCslPMlHj3qn2H_13multiversx_sc5types7managed7wrapped16managed_vec_item14ManagedVecItem16into_byte_writeruNCINvXs1B_B9_INtB9_23AssetExtendedConfigViewBW_EB2U_16into_byte_writeruNCNvMs2_NtB2Y_11managed_vecINtB61_10ManagedVecBW_B4X_E4push0E0E0Cs8iyf5MSkCde_5tests
FNDA:0,_RNCINvXs1J_Cs2eHPTk3TAlu_14common_structsINtB9_11AssetConfigINtNtNtNtCs1rODQd5oASQ_22multiversx_sc_scenario3api7impl_vh12vm_hooks_api10VMHooksApiNtNtB11_9debug_api15DebugApiBackendEENtNtNtNtNtCslPMlHj3qn2H_13multiversx_sc5types7managed7wrapped16managed_vec_item14ManagedVecItem16into_byte_writeruNCINvXs1B_B9_INtB9_23AssetExtendedConfigViewBW_EB2U_16into_byte_writeruNCNvMs2_NtB2Y_11managed_vecINtB61_10ManagedVecBW_B4X_E4push0E0Es0_0Cs8iyf5MSkCde_5tests
FNDA:0,_RNCINvXs1J_Cs2eHPTk3TAlu_14common_structsINtB9_11AssetConfigINtNtNtNtCs1rODQd5oASQ_22multiversx_sc_scenario3api7impl_vh12vm_hooks_api10VMHooksApiNtNtB11_9debug_api15DebugApiBackendEENtNtNtNtNtCslPMlHj3qn2H_13multiversx_sc5types7managed7wrapped16managed_vec_item14ManagedVecItem16into_byte_writeruNCINvXs1B_B9_INtB9_23AssetExtendedConfigViewBW_EB2U_16into_byte_writeruNCNvMs2_NtB2Y_11managed_vecINtB61_10ManagedVecBW_B4X_E4push0E0Es1_0Cs8iyf5MSkCde_5tests
FNDA:0,_RNCINvXs1J_Cs2eHPTk3TAlu_14common_structsINtB9_11AssetConfigINtNtNtNtCs1rODQd5oASQ_22multiversx_sc_scenario3api7impl_vh12vm_hooks_api10VMHooksApiNtNtB11_9debug_api15DebugApiBackendEENtNtNtNtNtCslPMlHj3qn2H_13multiversx_sc5types7managed7wrapped16managed_vec_item14ManagedVecItem16into_byte_writeruNCINvXs1B_B9_INtB9_23AssetExtendedConfigViewBW_EB2U_16into_byte_writeruNCNvMs2_NtB2Y_11managed_vecINtB61_10ManagedVecBW_B4X_E4push0E0Es2_0Cs8iyf5MSkCde_5tests
FNDA:0,_RNCINvXs1J_Cs2eHPTk3TAlu_14common_structsINtB9_11AssetConfigINtNtNtNtCs1rODQd5oASQ_22multiversx_sc_scenario3api7impl_vh12vm_hooks_api10VMHooksApiNtNtB11_9debug_api15DebugApiBackendEENtNtNtNtNtCslPMlHj3qn2H_13multiversx_sc5types7managed7wrapped16managed_vec_item14ManagedVecItem16into_byte_writeruNCINvXs1B_B9_INtB9_23AssetExtendedConfigViewBW_EB2U_16into_byte_writeruNCNvMs2_NtB2Y_11managed_vecINtB61_10ManagedVecBW_B4X_E4push0E0Es3_0Cs8iyf5MSkCde_5tests
FNDA:0,_RNCINvXs1J_Cs2eHPTk3TAlu_14common_structsINtB9_11AssetConfigINtNtNtNtCs1rODQd5oASQ_22multiversx_sc_scenario3api7impl_vh12vm_hooks_api10VMHooksApiNtNtB11_9debug_api15DebugApiBackendEENtNtNtNtNtCslPMlHj3qn2H_13multiversx_sc5types7managed7wrapped16managed_vec_item14ManagedVecItem16into_byte_writeruNCINvXs1B_B9_INtB9_23AssetExtendedConfigViewBW_EB2U_16into_byte_writeruNCNvMs2_NtB2Y_11managed_vecINtB61_10ManagedVecBW_B4X_E4push0E0Es4_0Cs8iyf5MSkCde_5tests
FNDA:0,_RNCINvXs1J_Cs2eHPTk3TAlu_14common_structsINtB9_11AssetConfigINtNtNtNtCs1rODQd5oASQ_22multiversx_sc_scenario3api7impl_vh12vm_hooks_api10VMHooksApiNtNtB11_9debug_api15DebugApiBackendEENtNtNtNtNtCslPMlHj3qn2H_13multiversx_sc5types7managed7wrapped16managed_vec_item14ManagedVecItem16into_byte_writeruNCINvXs1B_B9_INtB9_23AssetExtendedConfigViewBW_EB2U_16into_byte_writeruNCNvMs2_NtB2Y_11managed_vecINtB61_10ManagedVecBW_B4X_E4push0E0Es5_0Cs8iyf5MSkCde_5tests
FNDA:0,_RNCINvXs1J_Cs2eHPTk3TAlu_14common_structsINtB9_11AssetConfigINtNtNtNtCs1rODQd5oASQ_22multiversx_sc_scenario3api7impl_vh12vm_hooks_api10VMHooksApiNtNtB11_9debug_api15DebugApiBackendEENtNtNtNtNtCslPMlHj3qn2H_13multiversx_sc5types7managed7wrapped16managed_vec_item14ManagedVecItem16into_byte_writeruNCINvXs1B_B9_INtB9_23AssetExtendedConfigViewBW_EB2U_16into_byte_writeruNCNvMs2_NtB2Y_11managed_vecINtB61_10ManagedVecBW_B4X_E4push0E0Es6_0Cs8iyf5MSkCde_5tests
FNDA:0,_RNCINvXs1J_Cs2eHPTk3TAlu_14common_structsINtB9_11AssetConfigINtNtNtNtCs1rODQd5oASQ_22multiversx_sc_scenario3api7impl_vh12vm_hooks_api10VMHooksApiNtNtB11_9debug_api15DebugApiBackendEENtNtNtNtNtCslPMlHj3qn2H_13multiversx_sc5types7managed7wrapped16managed_vec_item14ManagedVecItem16into_byte_writeruNCINvXs1B_B9_INtB9_23AssetExtendedConfigViewBW_EB2U_16into_byte_writeruNCNvMs2_NtB2Y_11managed_vecINtB61_10ManagedVecBW_B4X_E4push0E0Es7_0Cs8iyf5MSkCde_5tests
FNDA:0,_RNCINvXs1J_Cs2eHPTk3TAlu_14common_structsINtB9_11AssetConfigINtNtNtNtCs1rODQd5oASQ_22multiversx_sc_scenario3api7impl_vh12vm_hooks_api10VMHooksApiNtNtB11_9debug_api15DebugApiBackendEENtNtNtNtNtCslPMlHj3qn2H_13multiversx_sc5types7managed7wrapped16managed_vec_item14ManagedVecItem16into_byte_writeruNCINvXs1B_B9_INtB9_23AssetExtendedConfigViewBW_EB2U_16into_byte_writeruNCNvMs2_NtB2Y_11managed_vecINtB61_10ManagedVecBW_B4X_E4push0E0Es8_0Cs8iyf5MSkCde_5tests
FNDA:0,_RNCINvXs1J_Cs2eHPTk3TAlu_14common_structsINtB9_11AssetConfigINtNtNtNtCs1rODQd5oASQ_22multiversx_sc_scenario3api7impl_vh12vm_hooks_api10VMHooksApiNtNtB11_9debug_api15DebugApiBackendEENtNtNtNtNtCslPMlHj3qn2H_13multiversx_sc5types7managed7wrapped16managed_vec_item14ManagedVecItem16into_byte_writeruNCINvXs1B_B9_INtB9_23AssetExtendedConfigViewBW_EB2U_16into_byte_writeruNCNvMs2_NtB2Y_11managed_vecINtB61_10ManagedVecBW_B4X_E4push0E0Es9_0Cs8iyf5MSkCde_5tests
FNDA:0,_RNCINvXs1J_Cs2eHPTk3TAlu_14common_structsINtB9_11AssetConfigINtNtNtNtCs1rODQd5oASQ_22multiversx_sc_scenario3api7impl_vh12vm_hooks_api10VMHooksApiNtNtB11_9debug_api15DebugApiBackendEENtNtNtNtNtCslPMlHj3qn2H_13multiversx_sc5types7managed7wrapped16managed_vec_item14ManagedVecItem16into_byte_writeruNCINvXs1B_B9_INtB9_23AssetExtendedConfigViewBW_EB2U_16into_byte_writeruNCNvMs2_NtB2Y_11managed_vecINtB61_10ManagedVecBW_B4X_E4push0E0Es_0Cs8iyf5MSkCde_5tests
FNDA:0,_RNCINvXs1J_Cs2eHPTk3TAlu_14common_structsINtB9_11AssetConfigINtNtNtNtCs1rODQd5oASQ_22multiversx_sc_scenario3api7impl_vh12vm_hooks_api10VMHooksApiNtNtB11_9debug_api15DebugApiBackendEENtNtNtNtNtCslPMlHj3qn2H_13multiversx_sc5types7managed7wrapped16managed_vec_item14ManagedVecItem16into_byte_writeruNCINvXs1B_B9_INtB9_23AssetExtendedConfigViewBW_EB2U_16into_byte_writeruNCNvMs2_NtB2Y_11managed_vecINtB61_10ManagedVecBW_B4X_E4push0E0Esa_0Cs8iyf5MSkCde_5tests
FNDA:0,_RNCINvXs1J_Cs2eHPTk3TAlu_14common_structsINtB9_11AssetConfigINtNtNtNtCs1rODQd5oASQ_22multiversx_sc_scenario3api7impl_vh12vm_hooks_api10VMHooksApiNtNtB11_9debug_api15DebugApiBackendEENtNtNtNtNtCslPMlHj3qn2H_13multiversx_sc5types7managed7wrapped16managed_vec_item14ManagedVecItem16into_byte_writeruNCINvXs1B_B9_INtB9_23AssetExtendedConfigViewBW_EB2U_16into_byte_writeruNCNvMs2_NtB2Y_11managed_vecINtB61_10ManagedVecBW_B4X_E4push0E0Esb_0Cs8iyf5MSkCde_5tests
FNDA:0,_RNCINvXs1J_Cs2eHPTk3TAlu_14common_structsINtB9_11AssetConfigINtNtNtNtCs1rODQd5oASQ_22multiversx_sc_scenario3api7impl_vh12vm_hooks_api10VMHooksApiNtNtB11_9debug_api15DebugApiBackendEENtNtNtNtNtCslPMlHj3qn2H_13multiversx_sc5types7managed7wrapped16managed_vec_item14ManagedVecItem16into_byte_writeruNCINvXs1B_B9_INtB9_23AssetExtendedConfigViewBW_EB2U_16into_byte_writeruNCNvMs2_NtB2Y_11managed_vecINtB61_10ManagedVecBW_B4X_E4push0E0Esc_0Cs8iyf5MSkCde_5tests
FNDA:10,_RNCINvXs1S_Cs2eHPTk3TAlu_14common_structsINtB9_15AccountPositionINtNtNtNtCs1rODQd5oASQ_22multiversx_sc_scenario3api7impl_vh12vm_hooks_api10VMHooksApiNtNtB15_9debug_api15DebugApiBackendEENtNtNtNtNtCslPMlHj3qn2H_13multiversx_sc5types7managed7wrapped16managed_vec_item14ManagedVecItem16from_byte_readerNCNvMs2_NtB32_11managed_vecINtB4V_10ManagedVecB10_BD_E7try_get0E0Cs8iyf5MSkCde_5tests
FNDA:10,_RNCINvXs1S_Cs2eHPTk3TAlu_14common_structsINtB9_15AccountPositionINtNtNtNtCs1rODQd5oASQ_22multiversx_sc_scenario3api7impl_vh12vm_hooks_api10VMHooksApiNtNtB15_9debug_api15DebugApiBackendEENtNtNtNtNtCslPMlHj3qn2H_13multiversx_sc5types7managed7wrapped16managed_vec_item14ManagedVecItem16from_byte_readerNCNvMs2_NtB32_11managed_vecINtB4V_10ManagedVecB10_BD_E7try_get0Es0_0Cs8iyf5MSkCde_5tests
FNDA:10,_RNCINvXs1S_Cs2eHPTk3TAlu_14common_structsINtB9_15AccountPositionINtNtNtNtCs1rODQd5oASQ_22multiversx_sc_scenario3api7impl_vh12vm_hooks_api10VMHooksApiNtNtB15_9debug_api15DebugApiBackendEENtNtNtNtNtCslPMlHj3qn2H_13multiversx_sc5types7managed7wrapped16managed_vec_item14ManagedVecItem16from_byte_readerNCNvMs2_NtB32_11managed_vecINtB4V_10ManagedVecB10_BD_E7try_get0Es1_0Cs8iyf5MSkCde_5tests
FNDA:10,_RNCINvXs1S_Cs2eHPTk3TAlu_14common_structsINtB9_15AccountPositionINtNtNtNtCs1rODQd5oASQ_22multiversx_sc_scenario3api7impl_vh12vm_hooks_api10VMHooksApiNtNtB15_9debug_api15DebugApiBackendEENtNtNtNtNtCslPMlHj3qn2H_13multiversx_sc5types7managed7wrapped16managed_vec_item14ManagedVecItem16from_byte_readerNCNvMs2_NtB32_11managed_vecINtB4V_10ManagedVecB10_BD_E7try_get0Es2_0Cs8iyf5MSkCde_5tests
FNDA:10,_RNCINvXs1S_Cs2eHPTk3TAlu_14common_structsINtB9_15AccountPositionINtNtNtNtCs1rODQd5oASQ_22multiversx_sc_scenario3api7impl_vh12vm_hooks_api10VMHooksApiNtNtB15_9debug_api15DebugApiBackendEENtNtNtNtNtCslPMlHj3qn2H_13multiversx_sc5types7managed7wrapped16managed_vec_item14ManagedVecItem16from_byte_readerNCNvMs2_NtB32_11managed_vecINtB4V_10ManagedVecB10_BD_E7try_get0Es3_0Cs8iyf5MSkCde_5tests
FNDA:10,_RNCINvXs1S_Cs2eHPTk3TAlu_14common_structsINtB9_15AccountPositionINtNtNtNtCs1rODQd5oASQ_22multiversx_sc_scenario3api7impl_vh12vm_hooks_api10VMHooksApiNtNtB15_9debug_api15DebugApiBackendEENtNtNtNtNtCslPMlHj3qn2H_13multiversx_sc5types7managed7wrapped16managed_vec_item14ManagedVecItem16from_byte_readerNCNvMs2_NtB32_11managed_vecINtB4V_10ManagedVecB10_BD_E7try_get0Es4_0Cs8iyf5MSkCde_5tests
FNDA:10,_RNCINvXs1S_Cs2eHPTk3TAlu_14common_structsINtB9_15AccountPositionINtNtNtNtCs1rODQd5oASQ_22multiversx_sc_scenario3api7impl_vh12vm_hooks_api10VMHooksApiNtNtB15_9debug_api15DebugApiBackendEENtNtNtNtNtCslPMlHj3qn2H_13multiversx_sc5types7managed7wrapped16managed_vec_item14ManagedVecItem16from_byte_readerNCNvMs2_NtB32_11managed_vecINtB4V_10ManagedVecB10_BD_E7try_get0Es5_0Cs8iyf5MSkCde_5tests
FNDA:10,_RNCINvXs1S_Cs2eHPTk3TAlu_14common_structsINtB9_15AccountPositionINtNtNtNtCs1rODQd5oASQ_22multiversx_sc_scenario3api7impl_vh12vm_hooks_api10VMHooksApiNtNtB15_9debug_api15DebugApiBackendEENtNtNtNtNtCslPMlHj3qn2H_13multiversx_sc5types7managed7wrapped16managed_vec_item14ManagedVecItem16from_byte_readerNCNvMs2_NtB32_11managed_vecINtB4V_10ManagedVecB10_BD_E7try_get0Es6_0Cs8iyf5MSkCde_5tests
FNDA:10,_RNCINvXs1S_Cs2eHPTk3TAlu_14common_structsINtB9_15AccountPositionINtNtNtNtCs1rODQd5oASQ_22multiversx_sc_scenario3api7impl_vh12vm_hooks_api10VMHooksApiNtNtB15_9debug_api15DebugApiBackendEENtNtNtNtNtCslPMlHj3qn2H_13multiversx_sc5types7managed7wrapped16managed_vec_item14ManagedVecItem16from_byte_readerNCNvMs2_NtB32_11managed_vecINtB4V_10ManagedVecB10_BD_E7try_get0Es7_0Cs8iyf5MSkCde_5tests
FNDA:10,_RNCINvXs1S_Cs2eHPTk3TAlu_14common_structsINtB9_15AccountPositionINtNtNtNtCs1rODQd5oASQ_22multiversx_sc_scenario3api7impl_vh12vm_hooks_api10VMHooksApiNtNtB15_9debug_api15DebugApiBackendEENtNtNtNtNtCslPMlHj3qn2H_13multiversx_sc5types7managed7wrapped16managed_vec_item14ManagedVecItem16from_byte_readerNCNvMs2_NtB32_11managed_vecINtB4V_10ManagedVecB10_BD_E7try_get0Es_0Cs8iyf5MSkCde_5tests
FNDA:80,_RNCINvXs1S_Cs2eHPTk3TAlu_14common_structsINtB9_15AccountPositionINtNtNtNtCs1rODQd5oASQ_22multiversx_sc_scenario3api7impl_vh12vm_hooks_api10VMHooksApiNtNtB15_9debug_api15DebugApiBackendEENtNtNtNtNtCslPMlHj3qn2H_13multiversx_sc5types7managed7wrapped16managed_vec_item14ManagedVecItem16from_byte_readerNCNvXs0_NtB32_22managed_vec_owned_iterINtB4V_23ManagedVecOwnedIteratorB10_BD_ENtNtNtNtCslGS7pEIChKc_4core4iter6traits8iterator8Iterator4next0E0Cs8iyf5MSkCde_5tests
FNDA:80,_RNCINvXs1S_Cs2eHPTk3TAlu_14common_structsINtB9_15AccountPositionINtNtNtNtCs1rODQd5oASQ_22multiversx_sc_scenario3api7impl_vh12vm_hooks_api10VMHooksApiNtNtB15_9debug_api15DebugApiBackendEENtNtNtNtNtCslPMlHj3qn2H_13multiversx_sc5types7managed7wrapped16managed_vec_item14ManagedVecItem16from_byte_readerNCNvXs0_NtB32_22managed_vec_owned_iterINtB4V_23ManagedVecOwnedIteratorB10_BD_ENtNtNtNtCslGS7pEIChKc_4core4iter6traits8iterator8Iterator4next0Es0_0Cs8iyf5MSkCde_5tests
FNDA:80,_RNCINvXs1S_Cs2eHPTk3TAlu_14common_structsINtB9_15AccountPositionINtNtNtNtCs1rODQd5oASQ_22multiversx_sc_scenario3api7impl_vh12vm_hooks_api10VMHooksApiNtNtB15_9debug_api15DebugApiBackendEENtNtNtNtNtCslPMlHj3qn2H_13multiversx_sc5types7managed7wrapped16managed_vec_item14ManagedVecItem16from_byte_readerNCNvXs0_NtB32_22managed_vec_owned_iterINtB4V_23ManagedVecOwnedIteratorB10_BD_ENtNtNtNtCslGS7pEIChKc_4core4iter6traits8iterator8Iterator4next0Es1_0Cs8iyf5MSkCde_5tests
FNDA:80,_RNCINvXs1S_Cs2eHPTk3TAlu_14common_structsINtB9_15AccountPositionINtNtNtNtCs1rODQd5oASQ_22multiversx_sc_scenario3api7impl_vh12vm_hooks_api10VMHooksApiNtNtB15_9debug_api15DebugApiBackendEENtNtNtNtNtCslPMlHj3qn2H_13multiversx_sc5types7managed7wrapped16managed_vec_item14ManagedVecItem16from_byte_readerNCNvXs0_NtB32_22managed_vec_owned_iterINtB4V_23ManagedVecOwnedIteratorB10_BD_ENtNtNtNtCslGS7pEIChKc_4core4iter6traits8iterator8Iterator4next0Es2_0Cs8iyf5MSkCde_5tests
FNDA:80,_RNCINvXs1S_Cs2eHPTk3TAlu_14common_structsINtB9_15AccountPositionINtNtNtNtCs1rODQd5oASQ_22multiversx_sc_scenario3api7impl_vh12vm_hooks_api10VMHooksApiNtNtB15_9debug_api15DebugApiBackendEENtNtNtNtNtCslPMlHj3qn2H_13multiversx_sc5types7managed7wrapped16managed_vec_item14ManagedVecItem16from_byte_readerNCNvXs0_NtB32_22managed_vec_owned_iterINtB4V_23ManagedVecOwnedIteratorB10_BD_ENtNtNtNtCslGS7pEIChKc_4core4iter6traits8iterator8Iterator4next0Es3_0Cs8iyf5MSkCde_5tests
FNDA:80,_RNCINvXs1S_Cs2eHPTk3TAlu_14common_structsINtB9_15AccountPositionINtNtNtNtCs1rODQd5oASQ_22multiversx_sc_scenario3api7impl_vh12vm_hooks_api10VMHooksApiNtNtB15_9debug_api15DebugApiBackendEENtNtNtNtNtCslPMlHj3qn2H_13multiversx_sc5types7managed7wrapped16managed_vec_item14ManagedVecItem16from_byte_readerNCNvXs0_NtB32_22managed_vec_owned_iterINtB4V_23ManagedVecOwnedIteratorB10_BD_ENtNtNtNtCslGS7pEIChKc_4core4iter6traits8iterator8Iterator4next0Es4_0Cs8iyf5MSkCde_5tests
FNDA:80,_RNCINvXs1S_Cs2eHPTk3TAlu_14common_structsINtB9_15AccountPositionINtNtNtNtCs1rODQd5oASQ_22multiversx_sc_scenario3api7impl_vh12vm_hooks_api10VMHooksApiNtNtB15_9debug_api15DebugApiBackendEENtNtNtNtNtCslPMlHj3qn2H_13multiversx_sc5types7managed7wrapped16managed_vec_item14ManagedVecItem16from_byte_readerNCNvXs0_NtB32_22managed_vec_owned_iterINtB4V_23ManagedVecOwnedIteratorB10_BD_ENtNtNtNtCslGS7pEIChKc_4core4iter6traits8iterator8Iterator4next0Es5_0Cs8iyf5MSkCde_5tests
FNDA:80,_RNCINvXs1S_Cs2eHPTk3TAlu_14common_structsINtB9_15AccountPositionINtNtNtNtCs1rODQd5oASQ_22multiversx_sc_scenario3api7impl_vh12vm_hooks_api10VMHooksApiNtNtB15_9debug_api15DebugApiBackendEENtNtNtNtNtCslPMlHj3qn2H_13multiversx_sc5types7managed7wrapped16managed_vec_item14ManagedVecItem16from_byte_readerNCNvXs0_NtB32_22managed_vec_owned_iterINtB4V_23ManagedVecOwnedIteratorB10_BD_ENtNtNtNtCslGS7pEIChKc_4core4iter6traits8iterator8Iterator4next0Es6_0Cs8iyf5MSkCde_5tests
FNDA:80,_RNCINvXs1S_Cs2eHPTk3TAlu_14common_structsINtB9_15AccountPositionINtNtNtNtCs1rODQd5oASQ_22multiversx_sc_scenario3api7impl_vh12vm_hooks_api10VMHooksApiNtNtB15_9debug_api15DebugApiBackendEENtNtNtNtNtCslPMlHj3qn2H_13multiversx_sc5types7managed7wrapped16managed_vec_item14ManagedVecItem16from_byte_readerNCNvXs0_NtB32_22managed_vec_owned_iterINtB4V_23ManagedVecOwnedIteratorB10_BD_ENtNtNtNtCslGS7pEIChKc_4core4iter6traits8iterator8Iterator4next0Es7_0Cs8iyf5MSkCde_5tests
FNDA:80,_RNCINvXs1S_Cs2eHPTk3TAlu_14common_structsINtB9_15AccountPositionINtNtNtNtCs1rODQd5oASQ_22multiversx_sc_scenario3api7impl_vh12vm_hooks_api10VMHooksApiNtNtB15_9debug_api15DebugApiBackendEENtNtNtNtNtCslPMlHj3qn2H_13multiversx_sc5types7managed7wrapped16managed_vec_item14ManagedVecItem16from_byte_readerNCNvXs0_NtB32_22managed_vec_owned_iterINtB4V_23ManagedVecOwnedIteratorB10_BD_ENtNtNtNtCslGS7pEIChKc_4core4iter6traits8iterator8Iterator4next0Es_0Cs8iyf5MSkCde_5tests
FNDA:0,_RNCINvXs1S_Cs2eHPTk3TAlu_14common_structsINtB9_15AccountPositionINtNtNtNtCs1rODQd5oASQ_22multiversx_sc_scenario3api7impl_vh12vm_hooks_api10VMHooksApiNtNtB15_9debug_api15DebugApiBackendEENtNtNtNtNtCslPMlHj3qn2H_13multiversx_sc5types7managed7wrapped16managed_vec_item14ManagedVecItem16into_byte_writerINtNtCslGS7pEIChKc_4core6result6ResultuNtNtNtNtB38_3api13managed_types18managed_buffer_api17InvalidSliceErrorENCNvMs2_NtB32_11managed_vecINtB6H_10ManagedVecB10_BD_E3set0E0Cs8iyf5MSkCde_5tests
FNDA:0,_RNCINvXs1S_Cs2eHPTk3TAlu_14common_structsINtB9_15AccountPositionINtNtNtNtCs1rODQd5oASQ_22multiversx_sc_scenario3api7impl_vh12vm_hooks_api10VMHooksApiNtNtB15_9debug_api15DebugApiBackendEENtNtNtNtNtCslPMlHj3qn2H_13multiversx_sc5types7managed7wrapped16managed_vec_item14ManagedVecItem16into_byte_writerINtNtCslGS7pEIChKc_4core6result6ResultuNtNtNtNtB38_3api13managed_types18managed_buffer_api17InvalidSliceErrorENCNvMs2_NtB32_11managed_vecINtB6H_10ManagedVecB10_BD_E3set0Es0_0Cs8iyf5MSkCde_5tests
FNDA:0,_RNCINvXs1S_Cs2eHPTk3TAlu_14common_structsINtB9_15AccountPositionINtNtNtNtCs1rODQd5oASQ_22multiversx_sc_scenario3api7impl_vh12vm_hooks_api10VMHooksApiNtNtB15_9debug_api15DebugApiBackendEENtNtNtNtNtCslPMlHj3qn2H_13multiversx_sc5types7managed7wrapped16managed_vec_item14ManagedVecItem16into_byte_writerINtNtCslGS7pEIChKc_4core6result6ResultuNtNtNtNtB38_3api13managed_types18managed_buffer_api17InvalidSliceErrorENCNvMs2_NtB32_11managed_vecINtB6H_10ManagedVecB10_BD_E3set0Es1_0Cs8iyf5MSkCde_5tests
FNDA:0,_RNCINvXs1S_Cs2eHPTk3TAlu_14common_structsINtB9_15AccountPositionINtNtNtNtCs1rODQd5oASQ_22multiversx_sc_scenario3api7impl_vh12vm_hooks_api10VMHooksApiNtNtB15_9debug_api15DebugApiBackendEENtNtNtNtNtCslPMlHj3qn2H_13multiversx_sc5types7managed7wrapped16managed_vec_item14ManagedVecItem16into_byte_writerINtNtCslGS7pEIChKc_4core6result6ResultuNtNtNtNtB38_3api13managed_types18managed_buffer_api17InvalidSliceErrorENCNvMs2_NtB32_11managed_vecINtB6H_10ManagedVecB10_BD_E3set0Es2_0Cs8iyf5MSkCde_5tests
FNDA:0,_RNCINvXs1S_Cs2eHPTk3TAlu_14common_structsINtB9_15AccountPositionINtNtNtNtCs1rODQd5oASQ_22multiversx_sc_scenario3api7impl_vh12vm_hooks_api10VMHooksApiNtNtB15_9debug_api15DebugApiBackendEENtNtNtNtNtCslPMlHj3qn2H_13multiversx_sc5types7managed7wrapped16managed_vec_item14ManagedVecItem16into_byte_writerINtNtCslGS7pEIChKc_4core6result6ResultuNtNtNtNtB38_3api13managed_types18managed_buffer_api17InvalidSliceErrorENCNvMs2_NtB32_11managed_vecINtB6H_10ManagedVecB10_BD_E3set0Es3_0Cs8iyf5MSkCde_5tests
FNDA:0,_RNCINvXs1S_Cs2eHPTk3TAlu_14common_structsINtB9_15AccountPositionINtNtNtNtCs1rODQd5oASQ_22multiversx_sc_scenario3api7impl_vh12vm_hooks_api10VMHooksApiNtNtB15_9debug_api15DebugApiBackendEENtNtNtNtNtCslPMlHj3qn2H_13multiversx_sc5types7managed7wrapped16managed_vec_item14ManagedVecItem16into_byte_writerINtNtCslGS7pEIChKc_4core6result6ResultuNtNtNtNtB38_3api13managed_types18managed_buffer_api17InvalidSliceErrorENCNvMs2_NtB32_11managed_vecINtB6H_10ManagedVecB10_BD_E3set0Es4_0Cs8iyf5MSkCde_5tests
FNDA:0,_RNCINvXs1S_Cs2eHPTk3TAlu_14common_structsINtB9_15AccountPositionINtNtNtNtCs1rODQd5oASQ_22multiversx_sc_scenario3api7impl_vh12vm_hooks_api10VMHooksApiNtNtB15_9debug_api15DebugApiBackendEENtNtNtNtNtCslPMlHj3qn2H_13multiversx_sc5types7managed7wrapped16managed_vec_item14ManagedVecItem16into_byte_writerINtNtCslGS7pEIChKc_4core6result6ResultuNtNtNtNtB38_3api13managed_types18managed_buffer_api17InvalidSliceErrorENCNvMs2_NtB32_11managed_vecINtB6H_10ManagedVecB10_BD_E3set0Es5_0Cs8iyf5MSkCde_5tests
FNDA:0,_RNCINvXs1S_Cs2eHPTk3TAlu_14common_structsINtB9_15AccountPositionINtNtNtNtCs1rODQd5oASQ_22multiversx_sc_scenario3api7impl_vh12vm_hooks_api10VMHooksApiNtNtB15_9debug_api15DebugApiBackendEENtNtNtNtNtCslPMlHj3qn2H_13multiversx_sc5types7managed7wrapped16managed_vec_item14ManagedVecItem16into_byte_writerINtNtCslGS7pEIChKc_4core6result6ResultuNtNtNtNtB38_3api13managed_types18managed_buffer_api17InvalidSliceErrorENCNvMs2_NtB32_11managed_vecINtB6H_10ManagedVecB10_BD_E3set0Es6_0Cs8iyf5MSkCde_5tests
FNDA:0,_RNCINvXs1S_Cs2eHPTk3TAlu_14common_structsINtB9_15AccountPositionINtNtNtNtCs1rODQd5oASQ_22multiversx_sc_scenario3api7impl_vh12vm_hooks_api10VMHooksApiNtNtB15_9debug_api15DebugApiBackendEENtNtNtNtNtCslPMlHj3qn2H_13multiversx_sc5types7managed7wrapped16managed_vec_item14ManagedVecItem16into_byte_writerINtNtCslGS7pEIChKc_4core6result6ResultuNtNtNtNtB38_3api13managed_types18managed_buffer_api17InvalidSliceErrorENCNvMs2_NtB32_11managed_vecINtB6H_10ManagedVecB10_BD_E3set0Es7_0Cs8iyf5MSkCde_5tests
FNDA:0,_RNCINvXs1S_Cs2eHPTk3TAlu_14common_structsINtB9_15AccountPositionINtNtNtNtCs1rODQd5oASQ_22multiversx_sc_scenario3api7impl_vh12vm_hooks_api10VMHooksApiNtNtB15_9debug_api15DebugApiBackendEENtNtNtNtNtCslPMlHj3qn2H_13multiversx_sc5types7managed7wrapped16managed_vec_item14ManagedVecItem16into_byte_writerINtNtCslGS7pEIChKc_4core6result6ResultuNtNtNtNtB38_3api13managed_types18managed_buffer_api17InvalidSliceErrorENCNvMs2_NtB32_11managed_vecINtB6H_10ManagedVecB10_BD_E3set0Es_0Cs8iyf5MSkCde_5tests
FNDA:840,_RNCINvXs1S_Cs2eHPTk3TAlu_14common_structsINtB9_15AccountPositionINtNtNtNtCs1rODQd5oASQ_22multiversx_sc_scenario3api7impl_vh12vm_hooks_api10VMHooksApiNtNtB15_9debug_api15DebugApiBackendEENtNtNtNtNtCslPMlHj3qn2H_13multiversx_sc5types7managed7wrapped16managed_vec_item14ManagedVecItem16into_byte_writeruNCNvMs2_NtB32_11managed_vecINtB4W_10ManagedVecB10_BD_E4push0E0Cs8iyf5MSkCde_5tests
FNDA:840,_RNCINvXs1S_Cs2eHPTk3TAlu_14common_structsINtB9_15AccountPositionINtNtNtNtCs1rODQd5oASQ_22multiversx_sc_scenario3api7impl_vh12vm_hooks_api10VMHooksApiNtNtB15_9debug_api15DebugApiBackendEENtNtNtNtNtCslPMlHj3qn2H_13multiversx_sc5types7managed7wrapped16managed_vec_item14ManagedVecItem16into_byte_writeruNCNvMs2_NtB32_11managed_vecINtB4W_10ManagedVecB10_BD_E4push0Es0_0Cs8iyf5MSkCde_5tests
FNDA:840,_RNCINvXs1S_Cs2eHPTk3TAlu_14common_structsINtB9_15AccountPositionINtNtNtNtCs1rODQd5oASQ_22multiversx_sc_scenario3api7impl_vh12vm_hooks_api10VMHooksApiNtNtB15_9debug_api15DebugApiBackendEENtNtNtNtNtCslPMlHj3qn2H_13multiversx_sc5types7managed7wrapped16managed_vec_item14ManagedVecItem16into_byte_writeruNCNvMs2_NtB32_11managed_vecINtB4W_10ManagedVecB10_BD_E4push0Es1_0Cs8iyf5MSkCde_5tests
FNDA:840,_RNCINvXs1S_Cs2eHPTk3TAlu_14common_structsINtB9_15AccountPositionINtNtNtNtCs1rODQd5oASQ_22multiversx_sc_scenario3api7impl_vh12vm_hooks_api10VMHooksApiNtNtB15_9debug_api15DebugApiBackendEENtNtNtNtNtCslPMlHj3qn2H_13multiversx_sc5types7managed7wrapped16managed_vec_item14ManagedVecItem16into_byte_writeruNCNvMs2_NtB32_11managed_vecINtB4W_10ManagedVecB10_BD_E4push0Es2_0Cs8iyf5MSkCde_5tests
FNDA:840,_RNCINvXs1S_Cs2eHPTk3TAlu_14common_structsINtB9_15AccountPositionINtNtNtNtCs1rODQd5oASQ_22multiversx_sc_scenario3api7impl_vh12vm_hooks_api10VMHooksApiNtNtB15_9debug_api15DebugApiBackendEENtNtNtNtNtCslPMlHj3qn2H_13multiversx_sc5types7managed7wrapped16managed_vec_item14ManagedVecItem16into_byte_writeruNCNvMs2_NtB32_11managed_vecINtB4W_10ManagedVecB10_BD_E4push0Es3_0Cs8iyf5MSkCde_5tests
FNDA:840,_RNCINvXs1S_Cs2eHPTk3TAlu_14common_structsINtB9_15AccountPositionINtNtNtNtCs1rODQd5oASQ_22multiversx_sc_scenario3api7impl_vh12vm_hooks_api10VMHooksApiNtNtB15_9debug_api15DebugApiBackendEENtNtNtNtNtCslPMlHj3qn2H_13multiversx_sc5types7managed7wrapped16managed_vec_item14ManagedVecItem16into_byte_writeruNCNvMs2_NtB32_11managed_vecINtB4W_10ManagedVecB10_BD_E4push0Es4_0Cs8iyf5MSkCde_5tests
FNDA:840,_RNCINvXs1S_Cs2eHPTk3TAlu_14common_structsINtB9_15AccountPositionINtNtNtNtCs1rODQd5oASQ_22multiversx_sc_scenario3api7impl_vh12vm_hooks_api10VMHooksApiNtNtB15_9debug_api15DebugApiBackendEENtNtNtNtNtCslPMlHj3qn2H_13multiversx_sc5types7managed7wrapped16managed_vec_item14ManagedVecItem16into_byte_writeruNCNvMs2_NtB32_11managed_vecINtB4W_10ManagedVecB10_BD_E4push0Es5_0Cs8iyf5MSkCde_5tests
FNDA:840,_RNCINvXs1S_Cs2eHPTk3TAlu_14common_structsINtB9_15AccountPositionINtNtNtNtCs1rODQd5oASQ_22multiversx_sc_scenario3api7impl_vh12vm_hooks_api10VMHooksApiNtNtB15_9debug_api15DebugApiBackendEENtNtNtNtNtCslPMlHj3qn2H_13multiversx_sc5types7managed7wrapped16managed_vec_item14ManagedVecItem16into_byte_writeruNCNvMs2_NtB32_11managed_vecINtB4W_10ManagedVecB10_BD_E4push0Es6_0Cs8iyf5MSkCde_5tests
FNDA:840,_RNCINvXs1S_Cs2eHPTk3TAlu_14common_structsINtB9_15AccountPositionINtNtNtNtCs1rODQd5oASQ_22multiversx_sc_scenario3api7impl_vh12vm_hooks_api10VMHooksApiNtNtB15_9debug_api15DebugApiBackendEENtNtNtNtNtCslPMlHj3qn2H_13multiversx_sc5types7managed7wrapped16managed_vec_item14ManagedVecItem16into_byte_writeruNCNvMs2_NtB32_11managed_vecINtB4W_10ManagedVecB10_BD_E4push0Es7_0Cs8iyf5MSkCde_5tests
FNDA:840,_RNCINvXs1S_Cs2eHPTk3TAlu_14common_structsINtB9_15AccountPositionINtNtNtNtCs1rODQd5oASQ_22multiversx_sc_scenario3api7impl_vh12vm_hooks_api10VMHooksApiNtNtB15_9debug_api15DebugApiBackendEENtNtNtNtNtCslPMlHj3qn2H_13multiversx_sc5types7managed7wrapped16managed_vec_item14ManagedVecItem16into_byte_writeruNCNvMs2_NtB32_11managed_vecINtB4W_10ManagedVecB10_BD_E4push0Es_0Cs8iyf5MSkCde_5tests
FNDA:1938,_RNvMCs2eHPTk3TAlu_14common_structsINtB2_15AccountPositionINtNtNtNtCs1rODQd5oASQ_22multiversx_sc_scenario3api7impl_vh12vm_hooks_api10VMHooksApiNtNtBY_9debug_api15DebugApiBackendEE16get_total_amountCs8iyf5MSkCde_5tests
FNDA:110,_RNvMCs2eHPTk3TAlu_14common_structsINtB2_15AccountPositionINtNtNtNtCs1rODQd5oASQ_22multiversx_sc_scenario3api7impl_vh12vm_hooks_api10VMHooksApiNtNtBY_9debug_api15DebugApiBackendEE3newCs8iyf5MSkCde_5tests
FNF:43
FNH:36
DA:7,961
DA:20,3720
DA:29,10240
DA:44,110
DA:45,110
DA:46,110
DA:47,110
DA:48,110
DA:49,110
DA:50,110
DA:51,110
DA:52,110
DA:53,110
DA:54,110
DA:55,110
DA:56,110
DA:57,110
DA:58,110
DA:59,110
DA:60,110
DA:61,110
DA:62,110
DA:63,110
DA:64,110
DA:65,110
DA:66,110
DA:67,110
DA:68,110
DA:70,1938
DA:71,1938
DA:72,1938
DA:76,1345
DA:111,0
DA:120,96
DA:130,384
DA:137,295
DA:146,2258
DA:156,614
DA:168,614
DA:179,614
DA:190,614
DA:203,0
DA:213,614
BRF:0
BRH:0
LF:69
LH:62
end_of_record
SF:/Users/mihaieremia/GitHub/rs-lending/flash_mock/src/lib.rs
FN:8,_RINvXs6_CslXHS5ClhP2t_10flash_mockNtB6_15ContractBuilderNtNtNtCslPMlHj3qn2H_13multiversx_sc13contract_base17callable_contract23CallableContractBuilder16new_contract_objINtNtNtNtCs1rODQd5oASQ_22multiversx_sc_scenario3api7impl_vh12vm_hooks_api10VMHooksApiNtNtB2L_9debug_api15DebugApiBackendEECs8iyf5MSkCde_5tests
FN:8,_RNvXs5_CslXHS5ClhP2t_10flash_mockINtB5_11ContractObjINtNtNtNtCs1rODQd5oASQ_22multiversx_sc_scenario3api7impl_vh12vm_hooks_api10VMHooksApiNtNtBT_9debug_api15DebugApiBackendEENtNtNtCslPMlHj3qn2H_13multiversx_sc13contract_base17callable_contract16CallableContract4callCs8iyf5MSkCde_5tests
FN:8,_RNvYINtCslXHS5ClhP2t_10flash_mock11ContractObjINtNtNtNtCs1rODQd5oASQ_22multiversx_sc_scenario3api7impl_vh12vm_hooks_api10VMHooksApiNtNtBN_9debug_api15DebugApiBackendEENtB5_16EndpointWrappers10call_flashCs8iyf5MSkCde_5tests
FN:8,_RNvYINtCslXHS5ClhP2t_10flash_mock11ContractObjINtNtNtNtCs1rODQd5oASQ_22multiversx_sc_scenario3api7impl_vh12vm_hooks_api10VMHooksApiNtNtBN_9debug_api15DebugApiBackendEENtB5_16EndpointWrappers12call_upgradeCs8iyf5MSkCde_5tests
FN:8,_RNvYINtCslXHS5ClhP2t_10flash_mock11ContractObjINtNtNtNtCs1rODQd5oASQ_22multiversx_sc_scenario3api7impl_vh12vm_hooks_api10VMHooksApiNtNtBN_9debug_api15DebugApiBackendEENtB5_16EndpointWrappers19call_flash_no_repayCs8iyf5MSkCde_5tests
FN:8,_RNvYINtCslXHS5ClhP2t_10flash_mock11ContractObjINtNtNtNtCs1rODQd5oASQ_22multiversx_sc_scenario3api7impl_vh12vm_hooks_api10VMHooksApiNtNtBN_9debug_api15DebugApiBackendEENtB5_16EndpointWrappers21call_flash_repay_someCs8iyf5MSkCde_5tests
FN:8,_RNvYINtCslXHS5ClhP2t_10flash_mock11ContractObjINtNtNtNtCs1rODQd5oASQ_22multiversx_sc_scenario3api7impl_vh12vm_hooks_api10VMHooksApiNtNtBN_9debug_api15DebugApiBackendEENtB5_16EndpointWrappers4callCs8iyf5MSkCde_5tests
FN:8,_RNvYINtCslXHS5ClhP2t_10flash_mock11ContractObjINtNtNtNtCs1rODQd5oASQ_22multiversx_sc_scenario3api7impl_vh12vm_hooks_api10VMHooksApiNtNtBN_9debug_api15DebugApiBackendEENtB5_16EndpointWrappers8callbackCs8iyf5MSkCde_5tests
FN:8,_RNvYINtCslXHS5ClhP2t_10flash_mock11ContractObjINtNtNtNtCs1rODQd5oASQ_22multiversx_sc_scenario3api7impl_vh12vm_hooks_api10VMHooksApiNtNtBN_9debug_api15DebugApiBackendEENtB5_16EndpointWrappers9call_initCs8iyf5MSkCde_5tests
FN:33,_RNvYINtCslXHS5ClhP2t_10flash_mock11ContractObjINtNtNtNtCs1rODQd5oASQ_22multiversx_sc_scenario3api7impl_vh12vm_hooks_api10VMHooksApiNtNtBN_9debug_api15DebugApiBackendEENtB5_9FlashMock16flash_repay_someCs8iyf5MSkCde_5tests
FN:18,_RNvYINtCslXHS5ClhP2t_10flash_mock11ContractObjINtNtNtNtCs1rODQd5oASQ_22multiversx_sc_scenario3api7impl_vh12vm_hooks_api10VMHooksApiNtNtBN_9debug_api15DebugApiBackendEENtB5_9FlashMock5flashCs8iyf5MSkCde_5tests
FNDA:48,_RINvXs6_CslXHS5ClhP2t_10flash_mockNtB6_15ContractBuilderNtNtNtCslPMlHj3qn2H_13multiversx_sc13contract_base17callable_contract23CallableContractBuilder16new_contract_objINtNtNtNtCs1rODQd5oASQ_22multiversx_sc_scenario3api7impl_vh12vm_hooks_api10VMHooksApiNtNtB2L_9debug_api15DebugApiBackendEECs8iyf5MSkCde_5tests
FNDA:51,_RNvXs5_CslXHS5ClhP2t_10flash_mockINtB5_11ContractObjINtNtNtNtCs1rODQd5oASQ_22multiversx_sc_scenario3api7impl_vh12vm_hooks_api10VMHooksApiNtNtBT_9debug_api15DebugApiBackendEENtNtNtCslPMlHj3qn2H_13multiversx_sc13contract_base17callable_contract16CallableContract4callCs8iyf5MSkCde_5tests
FNDA:1,_RNvYINtCslXHS5ClhP2t_10flash_mock11ContractObjINtNtNtNtCs1rODQd5oASQ_22multiversx_sc_scenario3api7impl_vh12vm_hooks_api10VMHooksApiNtNtBN_9debug_api15DebugApiBackendEENtB5_16EndpointWrappers10call_flashCs8iyf5MSkCde_5tests
FNDA:0,_RNvYINtCslXHS5ClhP2t_10flash_mock11ContractObjINtNtNtNtCs1rODQd5oASQ_22multiversx_sc_scenario3api7impl_vh12vm_hooks_api10VMHooksApiNtNtBN_9debug_api15DebugApiBackendEENtB5_16EndpointWrappers12call_upgradeCs8iyf5MSkCde_5tests
FNDA:1,_RNvYINtCslXHS5ClhP2t_10flash_mock11ContractObjINtNtNtNtCs1rODQd5oASQ_22multiversx_sc_scenario3api7impl_vh12vm_hooks_api10VMHooksApiNtNtBN_9debug_api15DebugApiBackendEENtB5_16EndpointWrappers19call_flash_no_repayCs8iyf5MSkCde_5tests
FNDA:1,_RNvYINtCslXHS5ClhP2t_10flash_mock11ContractObjINtNtNtNtCs1rODQd5oASQ_22multiversx_sc_scenario3api7impl_vh12vm_hooks_api10VMHooksApiNtNtBN_9debug_api15DebugApiBackendEENtB5_16EndpointWrappers21call_flash_repay_someCs8iyf5MSkCde_5tests
FNDA:51,_RNvYINtCslXHS5ClhP2t_10flash_mock11ContractObjINtNtNtNtCs1rODQd5oASQ_22multiversx_sc_scenario3api7impl_vh12vm_hooks_api10VMHooksApiNtNtBN_9debug_api15DebugApiBackendEENtB5_16EndpointWrappers4callCs8iyf5MSkCde_5tests
FNDA:0,_RNvYINtCslXHS5ClhP2t_10flash_mock11ContractObjINtNtNtNtCs1rODQd5oASQ_22multiversx_sc_scenario3api7impl_vh12vm_hooks_api10VMHooksApiNtNtBN_9debug_api15DebugApiBackendEENtB5_16EndpointWrappers8callbackCs8iyf5MSkCde_5tests
FNDA:48,_RNvYINtCslXHS5ClhP2t_10flash_mock11ContractObjINtNtNtNtCs1rODQd5oASQ_22multiversx_sc_scenario3api7impl_vh12vm_hooks_api10VMHooksApiNtNtBN_9debug_api15DebugApiBackendEENtB5_16EndpointWrappers9call_initCs8iyf5MSkCde_5tests
FNDA:1,_RNvYINtCslXHS5ClhP2t_10flash_mock11ContractObjINtNtNtNtCs1rODQd5oASQ_22multiversx_sc_scenario3api7impl_vh12vm_hooks_api10VMHooksApiNtNtBN_9debug_api15DebugApiBackendEENtB5_9FlashMock16flash_repay_someCs8iyf5MSkCde_5tests
FNDA:1,_RNvYINtCslXHS5ClhP2t_10flash_mock11ContractObjINtNtNtNtCs1rODQd5oASQ_22multiversx_sc_scenario3api7impl_vh12vm_hooks_api10VMHooksApiNtNtBN_9debug_api15DebugApiBackendEENtB5_9FlashMock5flashCs8iyf5MSkCde_5tests
FNF:3
FNH:3
DA:8,99
DA:18,1
DA:19,1
DA:20,1
DA:21,1
DA:22,1
DA:23,1
DA:24,1
DA:25,1
DA:26,1
DA:27,1
DA:28,1
DA:33,1
DA:34,1
DA:35,1
DA:36,1
DA:37,1
DA:38,1
DA:39,1
DA:40,1
DA:41,1
DA:42,1
DA:43,1
BRF:0
BRH:0
LF:23
LH:23
end_of_record
SF:/Users/mihaieremia/GitHub/rs-lending/lending_pool/src/config.rs
FN:23,_RNvYpNtNtCshiqmisuHlyH_12lending_pool6config12ConfigModule22register_account_tokenB7_
FN:47,_RNvYpNtNtCshiqmisuHlyH_12lending_pool6config12ConfigModule16set_token_oracleB7_
FN:122,_RNvYpNtNtCshiqmisuHlyH_12lending_pool6config12ConfigModule27edit_token_oracle_toleranceB7_
FN:129,_RNCNvYpNtNtCshiqmisuHlyH_12lending_pool6config12ConfigModule27edit_token_oracle_tolerance0B9_
FN:136,_RNvYpNtNtCshiqmisuHlyH_12lending_pool6config12ConfigModule14set_aggregatorB7_
FN:148,_RNvYpNtNtCshiqmisuHlyH_12lending_pool6config12ConfigModule15set_accumulatorB7_
FN:160,_RNvYpNtNtCshiqmisuHlyH_12lending_pool6config12ConfigModule19set_safe_price_viewB7_
FN:172,_RNvYpNtNtCshiqmisuHlyH_12lending_pool6config12ConfigModule27set_liquidity_pool_templateB7_
FN:189,_RNvYpNtNtCshiqmisuHlyH_12lending_pool6config12ConfigModule19add_e_mode_categoryB7_
FN:209,_RNvYpNtNtCshiqmisuHlyH_12lending_pool6config12ConfigModule20edit_e_mode_categoryB7_
FN:222,_RNvYpNtNtCshiqmisuHlyH_12lending_pool6config12ConfigModule22remove_e_mode_categoryB7_
FN:253,_RNvYpNtNtCshiqmisuHlyH_12lending_pool6config12ConfigModule28add_asset_to_e_mode_categoryB7_
FN:301,_RNvYpNtNtCshiqmisuHlyH_12lending_pool6config12ConfigModule29edit_asset_in_e_mode_categoryB7_
FN:312,_RNvYpNtNtCshiqmisuHlyH_12lending_pool6config12ConfigModule33remove_asset_from_e_mode_categoryB7_
FN:357,_RNvYpNtNtCshiqmisuHlyH_12lending_pool6config12ConfigModule17edit_asset_configB7_
FN:12,_RNvYpNtNtCshiqmisuHlyH_12lending_pool6config16EndpointWrappers27call_register_account_tokenB7_
FN:12,_RNvYpNtNtCshiqmisuHlyH_12lending_pool6config16EndpointWrappers21call_set_token_oracleB7_
FN:12,_RNvYpNtNtCshiqmisuHlyH_12lending_pool6config16EndpointWrappers32call_edit_token_oracle_toleranceB7_
FN:12,_RNvYpNtNtCshiqmisuHlyH_12lending_pool6config16EndpointWrappers19call_set_aggregatorB7_
FN:12,_RNvYpNtNtCshiqmisuHlyH_12lending_pool6config16EndpointWrappers20call_set_accumulatorB7_
FN:12,_RNvYpNtNtCshiqmisuHlyH_12lending_pool6config16EndpointWrappers24call_set_safe_price_viewB7_
FN:12,_RNvYpNtNtCshiqmisuHlyH_12lending_pool6config16EndpointWrappers32call_set_liquidity_pool_templateB7_
FN:12,_RNvYpNtNtCshiqmisuHlyH_12lending_pool6config16EndpointWrappers24call_add_e_mode_categoryB7_
FN:12,_RNvYpNtNtCshiqmisuHlyH_12lending_pool6config16EndpointWrappers25call_edit_e_mode_categoryB7_
FN:12,_RNvYpNtNtCshiqmisuHlyH_12lending_pool6config16EndpointWrappers27call_remove_e_mode_categoryB7_
FN:12,_RNvYpNtNtCshiqmisuHlyH_12lending_pool6config16EndpointWrappers33call_add_asset_to_e_mode_categoryB7_
FN:12,_RNvYpNtNtCshiqmisuHlyH_12lending_pool6config16EndpointWrappers34call_edit_asset_in_e_mode_categoryB7_
FN:12,_RNvYpNtNtCshiqmisuHlyH_12lending_pool6config16EndpointWrappers38call_remove_asset_from_e_mode_categoryB7_
FN:12,_RNvYpNtNtCshiqmisuHlyH_12lending_pool6config16EndpointWrappers22call_edit_asset_configB7_
FN:12,_RNvYpNtNtCshiqmisuHlyH_12lending_pool6config16EndpointWrappers4callB7_
FN:12,_RNvYpNtNtCshiqmisuHlyH_12lending_pool6config16EndpointWrappers17callback_selectorB7_
FN:12,_RNvYpNtNtCshiqmisuHlyH_12lending_pool6config16EndpointWrappers8callbackB7_
FN:12,_RNvXs1_NtCshiqmisuHlyH_12lending_pool6configNtB5_11AbiProviderNtNtNtCslPMlHj3qn2H_13multiversx_sc13contract_base21contract_abi_provider19ContractAbiProvider3abi
FN:12,_RNvXININtCshiqmisuHlyH_12lending_pool6configsf_0pEINtB5_11ContractObjpENtNtNtCslPMlHj3qn2H_13multiversx_sc13contract_base17callable_contract16CallableContract4callB7_
FN:12,_RINvNtCshiqmisuHlyH_12lending_pool6config12contract_objpEB4_
FN:12,_RINvXsg_NtCshiqmisuHlyH_12lending_pool6configNtB6_15ContractBuilderNtNtNtCslPMlHj3qn2H_13multiversx_sc13contract_base17callable_contract23CallableContractBuilder16new_contract_objpEB8_
FN:12,_RINvNtNtCshiqmisuHlyH_12lending_pool6config19___wasm__endpoints__22register_account_tokenpEB6_
FN:12,_RINvNtNtCshiqmisuHlyH_12lending_pool6config19___wasm__endpoints__16set_token_oraclepEB6_
FN:12,_RINvNtNtCshiqmisuHlyH_12lending_pool6config19___wasm__endpoints__27edit_token_oracle_tolerancepEB6_
FN:12,_RINvNtNtCshiqmisuHlyH_12lending_pool6config19___wasm__endpoints__14set_aggregatorpEB6_
FN:12,_RINvNtNtCshiqmisuHlyH_12lending_pool6config19___wasm__endpoints__15set_accumulatorpEB6_
FN:12,_RINvNtNtCshiqmisuHlyH_12lending_pool6config19___wasm__endpoints__19set_safe_price_viewpEB6_
FN:12,_RINvNtNtCshiqmisuHlyH_12lending_pool6config19___wasm__endpoints__27set_liquidity_pool_templatepEB6_
FN:12,_RINvNtNtCshiqmisuHlyH_12lending_pool6config19___wasm__endpoints__19add_e_mode_categorypEB6_
FN:12,_RINvNtNtCshiqmisuHlyH_12lending_pool6config19___wasm__endpoints__20edit_e_mode_categorypEB6_
FN:12,_RINvNtNtCshiqmisuHlyH_12lending_pool6config19___wasm__endpoints__22remove_e_mode_categorypEB6_
FN:12,_RINvNtNtCshiqmisuHlyH_12lending_pool6config19___wasm__endpoints__28add_asset_to_e_mode_categorypEB6_
FN:12,_RINvNtNtCshiqmisuHlyH_12lending_pool6config19___wasm__endpoints__29edit_asset_in_e_mode_categorypEB6_
FN:12,_RINvNtNtCshiqmisuHlyH_12lending_pool6config19___wasm__endpoints__33remove_asset_from_e_mode_categorypEB6_
FN:12,_RINvNtNtCshiqmisuHlyH_12lending_pool6config19___wasm__endpoints__17edit_asset_configpEB6_
FN:12,_RINvYpNtNtCshiqmisuHlyH_12lending_pool6config10ProxyTrait22register_account_tokenppEB8_
FN:12,_RINvYpNtNtCshiqmisuHlyH_12lending_pool6config10ProxyTrait16set_token_oracleppppppppEB8_
FN:12,_RINvYpNtNtCshiqmisuHlyH_12lending_pool6config10ProxyTrait27edit_token_oracle_tolerancepppEB8_
FN:12,_RINvYpNtNtCshiqmisuHlyH_12lending_pool6config10ProxyTrait14set_aggregatorpEB8_
FN:12,_RINvYpNtNtCshiqmisuHlyH_12lending_pool6config10ProxyTrait15set_accumulatorpEB8_
FN:12,_RINvYpNtNtCshiqmisuHlyH_12lending_pool6config10ProxyTrait19set_safe_price_viewpEB8_
FN:12,_RINvYpNtNtCshiqmisuHlyH_12lending_pool6config10ProxyTrait27set_liquidity_pool_templatepEB8_
FN:12,_RINvYpNtNtCshiqmisuHlyH_12lending_pool6config10ProxyTrait19add_e_mode_categorypppEB8_
FN:12,_RINvYpNtNtCshiqmisuHlyH_12lending_pool6config10ProxyTrait20edit_e_mode_categorypEB8_
FN:12,_RINvYpNtNtCshiqmisuHlyH_12lending_pool6config10ProxyTrait22remove_e_mode_categorypEB8_
FN:12,_RINvYpNtNtCshiqmisuHlyH_12lending_pool6config10ProxyTrait28add_asset_to_e_mode_categoryppppEB8_
FN:12,_RINvYpNtNtCshiqmisuHlyH_12lending_pool6config10ProxyTrait29edit_asset_in_e_mode_categorypppEB8_
FN:12,_RINvYpNtNtCshiqmisuHlyH_12lending_pool6config10ProxyTrait33remove_asset_from_e_mode_categoryppEB8_
FN:12,_RINvYpNtNtCshiqmisuHlyH_12lending_pool6config10ProxyTrait17edit_asset_configpppppppppppppppEB8_
FN:136,_RNvYINtCs48qTgYy1n57_12lending_pool11ContractObjINtNtNtNtCs1rODQd5oASQ_22multiversx_sc_scenario3api7impl_vh12vm_hooks_api10VMHooksApiNtNtBP_9debug_api15DebugApiBackendEENtNtB5_6config12ConfigModule14set_aggregatorCs8iyf5MSkCde_5tests
FN:148,_RNvYINtCs48qTgYy1n57_12lending_pool11ContractObjINtNtNtNtCs1rODQd5oASQ_22multiversx_sc_scenario3api7impl_vh12vm_hooks_api10VMHooksApiNtNtBP_9debug_api15DebugApiBackendEENtNtB5_6config12ConfigModule15set_accumulatorCs8iyf5MSkCde_5tests
FN:47,_RNvYINtCs48qTgYy1n57_12lending_pool11ContractObjINtNtNtNtCs1rODQd5oASQ_22multiversx_sc_scenario3api7impl_vh12vm_hooks_api10VMHooksApiNtNtBP_9debug_api15DebugApiBackendEENtNtB5_6config12ConfigModule16set_token_oracleCs8iyf5MSkCde_5tests
FN:357,_RNvYINtCs48qTgYy1n57_12lending_pool11ContractObjINtNtNtNtCs1rODQd5oASQ_22multiversx_sc_scenario3api7impl_vh12vm_hooks_api10VMHooksApiNtNtBP_9debug_api15DebugApiBackendEENtNtB5_6config12ConfigModule17edit_asset_configCs8iyf5MSkCde_5tests
FN:189,_RNvYINtCs48qTgYy1n57_12lending_pool11ContractObjINtNtNtNtCs1rODQd5oASQ_22multiversx_sc_scenario3api7impl_vh12vm_hooks_api10VMHooksApiNtNtBP_9debug_api15DebugApiBackendEENtNtB5_6config12ConfigModule19add_e_mode_categoryCs8iyf5MSkCde_5tests
FN:160,_RNvYINtCs48qTgYy1n57_12lending_pool11ContractObjINtNtNtNtCs1rODQd5oASQ_22multiversx_sc_scenario3api7impl_vh12vm_hooks_api10VMHooksApiNtNtBP_9debug_api15DebugApiBackendEENtNtB5_6config12ConfigModule19set_safe_price_viewCs8iyf5MSkCde_5tests
FN:209,_RNvYINtCs48qTgYy1n57_12lending_pool11ContractObjINtNtNtNtCs1rODQd5oASQ_22multiversx_sc_scenario3api7impl_vh12vm_hooks_api10VMHooksApiNtNtBP_9debug_api15DebugApiBackendEENtNtB5_6config12ConfigModule20edit_e_mode_categoryCs8iyf5MSkCde_5tests
FN:23,_RNvYINtCs48qTgYy1n57_12lending_pool11ContractObjINtNtNtNtCs1rODQd5oASQ_22multiversx_sc_scenario3api7impl_vh12vm_hooks_api10VMHooksApiNtNtBP_9debug_api15DebugApiBackendEENtNtB5_6config12ConfigModule22register_account_tokenCs8iyf5MSkCde_5tests
FN:222,_RNvYINtCs48qTgYy1n57_12lending_pool11ContractObjINtNtNtNtCs1rODQd5oASQ_22multiversx_sc_scenario3api7impl_vh12vm_hooks_api10VMHooksApiNtNtBP_9debug_api15DebugApiBackendEENtNtB5_6config12ConfigModule22remove_e_mode_categoryCs8iyf5MSkCde_5tests
FN:122,_RNvYINtCs48qTgYy1n57_12lending_pool11ContractObjINtNtNtNtCs1rODQd5oASQ_22multiversx_sc_scenario3api7impl_vh12vm_hooks_api10VMHooksApiNtNtBP_9debug_api15DebugApiBackendEENtNtB5_6config12ConfigModule27edit_token_oracle_toleranceCs8iyf5MSkCde_5tests
FN:172,_RNvYINtCs48qTgYy1n57_12lending_pool11ContractObjINtNtNtNtCs1rODQd5oASQ_22multiversx_sc_scenario3api7impl_vh12vm_hooks_api10VMHooksApiNtNtBP_9debug_api15DebugApiBackendEENtNtB5_6config12ConfigModule27set_liquidity_pool_templateCs8iyf5MSkCde_5tests
FN:253,_RNvYINtCs48qTgYy1n57_12lending_pool11ContractObjINtNtNtNtCs1rODQd5oASQ_22multiversx_sc_scenario3api7impl_vh12vm_hooks_api10VMHooksApiNtNtBP_9debug_api15DebugApiBackendEENtNtB5_6config12ConfigModule28add_asset_to_e_mode_categoryCs8iyf5MSkCde_5tests
FN:301,_RNvYINtCs48qTgYy1n57_12lending_pool11ContractObjINtNtNtNtCs1rODQd5oASQ_22multiversx_sc_scenario3api7impl_vh12vm_hooks_api10VMHooksApiNtNtBP_9debug_api15DebugApiBackendEENtNtB5_6config12ConfigModule29edit_asset_in_e_mode_categoryCs8iyf5MSkCde_5tests
FN:312,_RNvYINtCs48qTgYy1n57_12lending_pool11ContractObjINtNtNtNtCs1rODQd5oASQ_22multiversx_sc_scenario3api7impl_vh12vm_hooks_api10VMHooksApiNtNtBP_9debug_api15DebugApiBackendEENtNtB5_6config12ConfigModule33remove_asset_from_e_mode_categoryCs8iyf5MSkCde_5tests
FN:12,_RNvYINtCs48qTgYy1n57_12lending_pool11ContractObjINtNtNtNtCs1rODQd5oASQ_22multiversx_sc_scenario3api7impl_vh12vm_hooks_api10VMHooksApiNtNtBP_9debug_api15DebugApiBackendEENtNtB5_6config16EndpointWrappers17callback_selectorCs8iyf5MSkCde_5tests
FN:12,_RNvYINtCs48qTgYy1n57_12lending_pool11ContractObjINtNtNtNtCs1rODQd5oASQ_22multiversx_sc_scenario3api7impl_vh12vm_hooks_api10VMHooksApiNtNtBP_9debug_api15DebugApiBackendEENtNtB5_6config16EndpointWrappers19call_set_aggregatorCs8iyf5MSkCde_5tests
FN:12,_RNvYINtCs48qTgYy1n57_12lending_pool11ContractObjINtNtNtNtCs1rODQd5oASQ_22multiversx_sc_scenario3api7impl_vh12vm_hooks_api10VMHooksApiNtNtBP_9debug_api15DebugApiBackendEENtNtB5_6config16EndpointWrappers20call_set_accumulatorCs8iyf5MSkCde_5tests
FN:12,_RNvYINtCs48qTgYy1n57_12lending_pool11ContractObjINtNtNtNtCs1rODQd5oASQ_22multiversx_sc_scenario3api7impl_vh12vm_hooks_api10VMHooksApiNtNtBP_9debug_api15DebugApiBackendEENtNtB5_6config16EndpointWrappers21call_set_token_oracleCs8iyf5MSkCde_5tests
FN:12,_RNvYINtCs48qTgYy1n57_12lending_pool11ContractObjINtNtNtNtCs1rODQd5oASQ_22multiversx_sc_scenario3api7impl_vh12vm_hooks_api10VMHooksApiNtNtBP_9debug_api15DebugApiBackendEENtNtB5_6config16EndpointWrappers22call_edit_asset_configCs8iyf5MSkCde_5tests
FN:12,_RNvYINtCs48qTgYy1n57_12lending_pool11ContractObjINtNtNtNtCs1rODQd5oASQ_22multiversx_sc_scenario3api7impl_vh12vm_hooks_api10VMHooksApiNtNtBP_9debug_api15DebugApiBackendEENtNtB5_6config16EndpointWrappers24call_add_e_mode_categoryCs8iyf5MSkCde_5tests
FN:12,_RNvYINtCs48qTgYy1n57_12lending_pool11ContractObjINtNtNtNtCs1rODQd5oASQ_22multiversx_sc_scenario3api7impl_vh12vm_hooks_api10VMHooksApiNtNtBP_9debug_api15DebugApiBackendEENtNtB5_6config16EndpointWrappers24call_set_safe_price_viewCs8iyf5MSkCde_5tests
FN:12,_RNvYINtCs48qTgYy1n57_12lending_pool11ContractObjINtNtNtNtCs1rODQd5oASQ_22multiversx_sc_scenario3api7impl_vh12vm_hooks_api10VMHooksApiNtNtBP_9debug_api15DebugApiBackendEENtNtB5_6config16EndpointWrappers25call_edit_e_mode_categoryCs8iyf5MSkCde_5tests
FN:12,_RNvYINtCs48qTgYy1n57_12lending_pool11ContractObjINtNtNtNtCs1rODQd5oASQ_22multiversx_sc_scenario3api7impl_vh12vm_hooks_api10VMHooksApiNtNtBP_9debug_api15DebugApiBackendEENtNtB5_6config16EndpointWrappers27call_register_account_tokenCs8iyf5MSkCde_5tests
FN:12,_RNvYINtCs48qTgYy1n57_12lending_pool11ContractObjINtNtNtNtCs1rODQd5oASQ_22multiversx_sc_scenario3api7impl_vh12vm_hooks_api10VMHooksApiNtNtBP_9debug_api15DebugApiBackendEENtNtB5_6config16EndpointWrappers27call_remove_e_mode_categoryCs8iyf5MSkCde_5tests
FN:12,_RNvYINtCs48qTgYy1n57_12lending_pool11ContractObjINtNtNtNtCs1rODQd5oASQ_22multiversx_sc_scenario3api7impl_vh12vm_hooks_api10VMHooksApiNtNtBP_9debug_api15DebugApiBackendEENtNtB5_6config16EndpointWrappers32call_edit_token_oracle_toleranceCs8iyf5MSkCde_5tests
FN:12,_RNvYINtCs48qTgYy1n57_12lending_pool11ContractObjINtNtNtNtCs1rODQd5oASQ_22multiversx_sc_scenario3api7impl_vh12vm_hooks_api10VMHooksApiNtNtBP_9debug_api15DebugApiBackendEENtNtB5_6config16EndpointWrappers32call_set_liquidity_pool_templateCs8iyf5MSkCde_5tests
FN:12,_RNvYINtCs48qTgYy1n57_12lending_pool11ContractObjINtNtNtNtCs1rODQd5oASQ_22multiversx_sc_scenario3api7impl_vh12vm_hooks_api10VMHooksApiNtNtBP_9debug_api15DebugApiBackendEENtNtB5_6config16EndpointWrappers33call_add_asset_to_e_mode_categoryCs8iyf5MSkCde_5tests
FN:12,_RNvYINtCs48qTgYy1n57_12lending_pool11ContractObjINtNtNtNtCs1rODQd5oASQ_22multiversx_sc_scenario3api7impl_vh12vm_hooks_api10VMHooksApiNtNtBP_9debug_api15DebugApiBackendEENtNtB5_6config16EndpointWrappers34call_edit_asset_in_e_mode_categoryCs8iyf5MSkCde_5tests
FN:12,_RNvYINtCs48qTgYy1n57_12lending_pool11ContractObjINtNtNtNtCs1rODQd5oASQ_22multiversx_sc_scenario3api7impl_vh12vm_hooks_api10VMHooksApiNtNtBP_9debug_api15DebugApiBackendEENtNtB5_6config16EndpointWrappers38call_remove_asset_from_e_mode_categoryCs8iyf5MSkCde_5tests
FN:12,_RNvYINtCs48qTgYy1n57_12lending_pool11ContractObjINtNtNtNtCs1rODQd5oASQ_22multiversx_sc_scenario3api7impl_vh12vm_hooks_api10VMHooksApiNtNtBP_9debug_api15DebugApiBackendEENtNtB5_6config16EndpointWrappers4callCs8iyf5MSkCde_5tests
FN:12,_RNvYINtCs48qTgYy1n57_12lending_pool11ContractObjINtNtNtNtCs1rODQd5oASQ_22multiversx_sc_scenario3api7impl_vh12vm_hooks_api10VMHooksApiNtNtBP_9debug_api15DebugApiBackendEENtNtB5_6config16EndpointWrappers8callbackCs8iyf5MSkCde_5tests
FN:129,_RNCNvYINtCs48qTgYy1n57_12lending_pool11ContractObjINtNtNtNtCs1rODQd5oASQ_22multiversx_sc_scenario3api7impl_vh12vm_hooks_api10VMHooksApiNtNtBR_9debug_api15DebugApiBackendEENtNtB7_6config12ConfigModule27edit_token_oracle_tolerance0Cs8iyf5MSkCde_5tests
FNDA:0,_RNvYpNtNtCshiqmisuHlyH_12lending_pool6config12ConfigModule22register_account_tokenB7_
FNDA:0,_RNvYpNtNtCshiqmisuHlyH_12lending_pool6config12ConfigModule16set_token_oracleB7_
FNDA:0,_RNvYpNtNtCshiqmisuHlyH_12lending_pool6config12ConfigModule27edit_token_oracle_toleranceB7_
FNDA:0,_RNCNvYpNtNtCshiqmisuHlyH_12lending_pool6config12ConfigModule27edit_token_oracle_tolerance0B9_
FNDA:0,_RNvYpNtNtCshiqmisuHlyH_12lending_pool6config12ConfigModule14set_aggregatorB7_
FNDA:0,_RNvYpNtNtCshiqmisuHlyH_12lending_pool6config12ConfigModule15set_accumulatorB7_
FNDA:0,_RNvYpNtNtCshiqmisuHlyH_12lending_pool6config12ConfigModule19set_safe_price_viewB7_
FNDA:0,_RNvYpNtNtCshiqmisuHlyH_12lending_pool6config12ConfigModule27set_liquidity_pool_templateB7_
FNDA:0,_RNvYpNtNtCshiqmisuHlyH_12lending_pool6config12ConfigModule19add_e_mode_categoryB7_
FNDA:0,_RNvYpNtNtCshiqmisuHlyH_12lending_pool6config12ConfigModule20edit_e_mode_categoryB7_
FNDA:0,_RNvYpNtNtCshiqmisuHlyH_12lending_pool6config12ConfigModule22remove_e_mode_categoryB7_
FNDA:0,_RNvYpNtNtCshiqmisuHlyH_12lending_pool6config12ConfigModule28add_asset_to_e_mode_categoryB7_
FNDA:0,_RNvYpNtNtCshiqmisuHlyH_12lending_pool6config12ConfigModule29edit_asset_in_e_mode_categoryB7_
FNDA:0,_RNvYpNtNtCshiqmisuHlyH_12lending_pool6config12ConfigModule33remove_asset_from_e_mode_categoryB7_
FNDA:0,_RNvYpNtNtCshiqmisuHlyH_12lending_pool6config12ConfigModule17edit_asset_configB7_
FNDA:0,_RNvYpNtNtCshiqmisuHlyH_12lending_pool6config16EndpointWrappers27call_register_account_tokenB7_
FNDA:0,_RNvYpNtNtCshiqmisuHlyH_12lending_pool6config16EndpointWrappers21call_set_token_oracleB7_
FNDA:0,_RNvYpNtNtCshiqmisuHlyH_12lending_pool6config16EndpointWrappers32call_edit_token_oracle_toleranceB7_
FNDA:0,_RNvYpNtNtCshiqmisuHlyH_12lending_pool6config16EndpointWrappers19call_set_aggregatorB7_
FNDA:0,_RNvYpNtNtCshiqmisuHlyH_12lending_pool6config16EndpointWrappers20call_set_accumulatorB7_
FNDA:0,_RNvYpNtNtCshiqmisuHlyH_12lending_pool6config16EndpointWrappers24call_set_safe_price_viewB7_
FNDA:0,_RNvYpNtNtCshiqmisuHlyH_12lending_pool6config16EndpointWrappers32call_set_liquidity_pool_templateB7_
FNDA:0,_RNvYpNtNtCshiqmisuHlyH_12lending_pool6config16EndpointWrappers24call_add_e_mode_categoryB7_
FNDA:0,_RNvYpNtNtCshiqmisuHlyH_12lending_pool6config16EndpointWrappers25call_edit_e_mode_categoryB7_
FNDA:0,_RNvYpNtNtCshiqmisuHlyH_12lending_pool6config16EndpointWrappers27call_remove_e_mode_categoryB7_
FNDA:0,_RNvYpNtNtCshiqmisuHlyH_12lending_pool6config16EndpointWrappers33call_add_asset_to_e_mode_categoryB7_
FNDA:0,_RNvYpNtNtCshiqmisuHlyH_12lending_pool6config16EndpointWrappers34call_edit_asset_in_e_mode_categoryB7_
FNDA:0,_RNvYpNtNtCshiqmisuHlyH_12lending_pool6config16EndpointWrappers38call_remove_asset_from_e_mode_categoryB7_
FNDA:0,_RNvYpNtNtCshiqmisuHlyH_12lending_pool6config16EndpointWrappers22call_edit_asset_configB7_
FNDA:0,_RNvYpNtNtCshiqmisuHlyH_12lending_pool6config16EndpointWrappers4callB7_
FNDA:0,_RNvYpNtNtCshiqmisuHlyH_12lending_pool6config16EndpointWrappers17callback_selectorB7_
FNDA:0,_RNvYpNtNtCshiqmisuHlyH_12lending_pool6config16EndpointWrappers8callbackB7_
FNDA:0,_RNvXs1_NtCshiqmisuHlyH_12lending_pool6configNtB5_11AbiProviderNtNtNtCslPMlHj3qn2H_13multiversx_sc13contract_base21contract_abi_provider19ContractAbiProvider3abi
FNDA:0,_RNvXININtCshiqmisuHlyH_12lending_pool6configsf_0pEINtB5_11ContractObjpENtNtNtCslPMlHj3qn2H_13multiversx_sc13contract_base17callable_contract16CallableContract4callB7_
FNDA:0,_RINvNtCshiqmisuHlyH_12lending_pool6config12contract_objpEB4_
FNDA:0,_RINvXsg_NtCshiqmisuHlyH_12lending_pool6configNtB6_15ContractBuilderNtNtNtCslPMlHj3qn2H_13multiversx_sc13contract_base17callable_contract23CallableContractBuilder16new_contract_objpEB8_
FNDA:0,_RINvNtNtCshiqmisuHlyH_12lending_pool6config19___wasm__endpoints__22register_account_tokenpEB6_
FNDA:0,_RINvNtNtCshiqmisuHlyH_12lending_pool6config19___wasm__endpoints__16set_token_oraclepEB6_
FNDA:0,_RINvNtNtCshiqmisuHlyH_12lending_pool6config19___wasm__endpoints__27edit_token_oracle_tolerancepEB6_
FNDA:0,_RINvNtNtCshiqmisuHlyH_12lending_pool6config19___wasm__endpoints__14set_aggregatorpEB6_
FNDA:0,_RINvNtNtCshiqmisuHlyH_12lending_pool6config19___wasm__endpoints__15set_accumulatorpEB6_
FNDA:0,_RINvNtNtCshiqmisuHlyH_12lending_pool6config19___wasm__endpoints__19set_safe_price_viewpEB6_
FNDA:0,_RINvNtNtCshiqmisuHlyH_12lending_pool6config19___wasm__endpoints__27set_liquidity_pool_templatepEB6_
FNDA:0,_RINvNtNtCshiqmisuHlyH_12lending_pool6config19___wasm__endpoints__19add_e_mode_categorypEB6_
FNDA:0,_RINvNtNtCshiqmisuHlyH_12lending_pool6config19___wasm__endpoints__20edit_e_mode_categorypEB6_
FNDA:0,_RINvNtNtCshiqmisuHlyH_12lending_pool6config19___wasm__endpoints__22remove_e_mode_categorypEB6_
FNDA:0,_RINvNtNtCshiqmisuHlyH_12lending_pool6config19___wasm__endpoints__28add_asset_to_e_mode_categorypEB6_
FNDA:0,_RINvNtNtCshiqmisuHlyH_12lending_pool6config19___wasm__endpoints__29edit_asset_in_e_mode_categorypEB6_
FNDA:0,_RINvNtNtCshiqmisuHlyH_12lending_pool6config19___wasm__endpoints__33remove_asset_from_e_mode_categorypEB6_
FNDA:0,_RINvNtNtCshiqmisuHlyH_12lending_pool6config19___wasm__endpoints__17edit_asset_configpEB6_
FNDA:0,_RINvYpNtNtCshiqmisuHlyH_12lending_pool6config10ProxyTrait22register_account_tokenppEB8_
FNDA:0,_RINvYpNtNtCshiqmisuHlyH_12lending_pool6config10ProxyTrait16set_token_oracleppppppppEB8_
FNDA:0,_RINvYpNtNtCshiqmisuHlyH_12lending_pool6config10ProxyTrait27edit_token_oracle_tolerancepppEB8_
FNDA:0,_RINvYpNtNtCshiqmisuHlyH_12lending_pool6config10ProxyTrait14set_aggregatorpEB8_
FNDA:0,_RINvYpNtNtCshiqmisuHlyH_12lending_pool6config10ProxyTrait15set_accumulatorpEB8_
FNDA:0,_RINvYpNtNtCshiqmisuHlyH_12lending_pool6config10ProxyTrait19set_safe_price_viewpEB8_
FNDA:0,_RINvYpNtNtCshiqmisuHlyH_12lending_pool6config10ProxyTrait27set_liquidity_pool_templatepEB8_
FNDA:0,_RINvYpNtNtCshiqmisuHlyH_12lending_pool6config10ProxyTrait19add_e_mode_categorypppEB8_
FNDA:0,_RINvYpNtNtCshiqmisuHlyH_12lending_pool6config10ProxyTrait20edit_e_mode_categorypEB8_
FNDA:0,_RINvYpNtNtCshiqmisuHlyH_12lending_pool6config10ProxyTrait22remove_e_mode_categorypEB8_
FNDA:0,_RINvYpNtNtCshiqmisuHlyH_12lending_pool6config10ProxyTrait28add_asset_to_e_mode_categoryppppEB8_
FNDA:0,_RINvYpNtNtCshiqmisuHlyH_12lending_pool6config10ProxyTrait29edit_asset_in_e_mode_categorypppEB8_
FNDA:0,_RINvYpNtNtCshiqmisuHlyH_12lending_pool6config10ProxyTrait33remove_asset_from_e_mode_categoryppEB8_
FNDA:0,_RINvYpNtNtCshiqmisuHlyH_12lending_pool6config10ProxyTrait17edit_asset_configpppppppppppppppEB8_
FNDA:0,_RNvYINtCs48qTgYy1n57_12lending_pool11ContractObjINtNtNtNtCs1rODQd5oASQ_22multiversx_sc_scenario3api7impl_vh12vm_hooks_api10VMHooksApiNtNtBP_9debug_api15DebugApiBackendEENtNtB5_6config12ConfigModule14set_aggregatorCs8iyf5MSkCde_5tests
FNDA:0,_RNvYINtCs48qTgYy1n57_12lending_pool11ContractObjINtNtNtNtCs1rODQd5oASQ_22multiversx_sc_scenario3api7impl_vh12vm_hooks_api10VMHooksApiNtNtBP_9debug_api15DebugApiBackendEENtNtB5_6config12ConfigModule15set_accumulatorCs8iyf5MSkCde_5tests
FNDA:576,_RNvYINtCs48qTgYy1n57_12lending_pool11ContractObjINtNtNtNtCs1rODQd5oASQ_22multiversx_sc_scenario3api7impl_vh12vm_hooks_api10VMHooksApiNtNtBP_9debug_api15DebugApiBackendEENtNtB5_6config12ConfigModule16set_token_oracleCs8iyf5MSkCde_5tests
FNDA:0,_RNvYINtCs48qTgYy1n57_12lending_pool11ContractObjINtNtNtNtCs1rODQd5oASQ_22multiversx_sc_scenario3api7impl_vh12vm_hooks_api10VMHooksApiNtNtBP_9debug_api15DebugApiBackendEENtNtB5_6config12ConfigModule17edit_asset_configCs8iyf5MSkCde_5tests
FNDA:48,_RNvYINtCs48qTgYy1n57_12lending_pool11ContractObjINtNtNtNtCs1rODQd5oASQ_22multiversx_sc_scenario3api7impl_vh12vm_hooks_api10VMHooksApiNtNtBP_9debug_api15DebugApiBackendEENtNtB5_6config12ConfigModule19add_e_mode_categoryCs8iyf5MSkCde_5tests
FNDA:0,_RNvYINtCs48qTgYy1n57_12lending_pool11ContractObjINtNtNtNtCs1rODQd5oASQ_22multiversx_sc_scenario3api7impl_vh12vm_hooks_api10VMHooksApiNtNtBP_9debug_api15DebugApiBackendEENtNtB5_6config12ConfigModule19set_safe_price_viewCs8iyf5MSkCde_5tests
FNDA:0,_RNvYINtCs48qTgYy1n57_12lending_pool11ContractObjINtNtNtNtCs1rODQd5oASQ_22multiversx_sc_scenario3api7impl_vh12vm_hooks_api10VMHooksApiNtNtBP_9debug_api15DebugApiBackendEENtNtB5_6config12ConfigModule20edit_e_mode_categoryCs8iyf5MSkCde_5tests
FNDA:0,_RNvYINtCs48qTgYy1n57_12lending_pool11ContractObjINtNtNtNtCs1rODQd5oASQ_22multiversx_sc_scenario3api7impl_vh12vm_hooks_api10VMHooksApiNtNtBP_9debug_api15DebugApiBackendEENtNtB5_6config12ConfigModule22register_account_tokenCs8iyf5MSkCde_5tests
FNDA:0,_RNvYINtCs48qTgYy1n57_12lending_pool11ContractObjINtNtNtNtCs1rODQd5oASQ_22multiversx_sc_scenario3api7impl_vh12vm_hooks_api10VMHooksApiNtNtBP_9debug_api15DebugApiBackendEENtNtB5_6config12ConfigModule22remove_e_mode_categoryCs8iyf5MSkCde_5tests
FNDA:0,_RNvYINtCs48qTgYy1n57_12lending_pool11ContractObjINtNtNtNtCs1rODQd5oASQ_22multiversx_sc_scenario3api7impl_vh12vm_hooks_api10VMHooksApiNtNtBP_9debug_api15DebugApiBackendEENtNtB5_6config12ConfigModule27edit_token_oracle_toleranceCs8iyf5MSkCde_5tests
FNDA:0,_RNvYINtCs48qTgYy1n57_12lending_pool11ContractObjINtNtNtNtCs1rODQd5oASQ_22multiversx_sc_scenario3api7impl_vh12vm_hooks_api10VMHooksApiNtNtBP_9debug_api15DebugApiBackendEENtNtB5_6config12ConfigModule27set_liquidity_pool_templateCs8iyf5MSkCde_5tests
FNDA:192,_RNvYINtCs48qTgYy1n57_12lending_pool11ContractObjINtNtNtNtCs1rODQd5oASQ_22multiversx_sc_scenario3api7impl_vh12vm_hooks_api10VMHooksApiNtNtBP_9debug_api15DebugApiBackendEENtNtB5_6config12ConfigModule28add_asset_to_e_mode_categoryCs8iyf5MSkCde_5tests
FNDA:0,_RNvYINtCs48qTgYy1n57_12lending_pool11ContractObjINtNtNtNtCs1rODQd5oASQ_22multiversx_sc_scenario3api7impl_vh12vm_hooks_api10VMHooksApiNtNtBP_9debug_api15DebugApiBackendEENtNtB5_6config12ConfigModule29edit_asset_in_e_mode_categoryCs8iyf5MSkCde_5tests
FNDA:0,_RNvYINtCs48qTgYy1n57_12lending_pool11ContractObjINtNtNtNtCs1rODQd5oASQ_22multiversx_sc_scenario3api7impl_vh12vm_hooks_api10VMHooksApiNtNtBP_9debug_api15DebugApiBackendEENtNtB5_6config12ConfigModule33remove_asset_from_e_mode_categoryCs8iyf5MSkCde_5tests
FNDA:0,_RNvYINtCs48qTgYy1n57_12lending_pool11ContractObjINtNtNtNtCs1rODQd5oASQ_22multiversx_sc_scenario3api7impl_vh12vm_hooks_api10VMHooksApiNtNtBP_9debug_api15DebugApiBackendEENtNtB5_6config16EndpointWrappers17callback_selectorCs8iyf5MSkCde_5tests
FNDA:0,_RNvYINtCs48qTgYy1n57_12lending_pool11ContractObjINtNtNtNtCs1rODQd5oASQ_22multiversx_sc_scenario3api7impl_vh12vm_hooks_api10VMHooksApiNtNtBP_9debug_api15DebugApiBackendEENtNtB5_6config16EndpointWrappers19call_set_aggregatorCs8iyf5MSkCde_5tests
FNDA:0,_RNvYINtCs48qTgYy1n57_12lending_pool11ContractObjINtNtNtNtCs1rODQd5oASQ_22multiversx_sc_scenario3api7impl_vh12vm_hooks_api10VMHooksApiNtNtBP_9debug_api15DebugApiBackendEENtNtB5_6config16EndpointWrappers20call_set_accumulatorCs8iyf5MSkCde_5tests
FNDA:576,_RNvYINtCs48qTgYy1n57_12lending_pool11ContractObjINtNtNtNtCs1rODQd5oASQ_22multiversx_sc_scenario3api7impl_vh12vm_hooks_api10VMHooksApiNtNtBP_9debug_api15DebugApiBackendEENtNtB5_6config16EndpointWrappers21call_set_token_oracleCs8iyf5MSkCde_5tests
FNDA:0,_RNvYINtCs48qTgYy1n57_12lending_pool11ContractObjINtNtNtNtCs1rODQd5oASQ_22multiversx_sc_scenario3api7impl_vh12vm_hooks_api10VMHooksApiNtNtBP_9debug_api15DebugApiBackendEENtNtB5_6config16EndpointWrappers22call_edit_asset_configCs8iyf5MSkCde_5tests
FNDA:48,_RNvYINtCs48qTgYy1n57_12lending_pool11ContractObjINtNtNtNtCs1rODQd5oASQ_22multiversx_sc_scenario3api7impl_vh12vm_hooks_api10VMHooksApiNtNtBP_9debug_api15DebugApiBackendEENtNtB5_6config16EndpointWrappers24call_add_e_mode_categoryCs8iyf5MSkCde_5tests
FNDA:0,_RNvYINtCs48qTgYy1n57_12lending_pool11ContractObjINtNtNtNtCs1rODQd5oASQ_22multiversx_sc_scenario3api7impl_vh12vm_hooks_api10VMHooksApiNtNtBP_9debug_api15DebugApiBackendEENtNtB5_6config16EndpointWrappers24call_set_safe_price_viewCs8iyf5MSkCde_5tests
FNDA:0,_RNvYINtCs48qTgYy1n57_12lending_pool11ContractObjINtNtNtNtCs1rODQd5oASQ_22multiversx_sc_scenario3api7impl_vh12vm_hooks_api10VMHooksApiNtNtBP_9debug_api15DebugApiBackendEENtNtB5_6config16EndpointWrappers25call_edit_e_mode_categoryCs8iyf5MSkCde_5tests
FNDA:0,_RNvYINtCs48qTgYy1n57_12lending_pool11ContractObjINtNtNtNtCs1rODQd5oASQ_22multiversx_sc_scenario3api7impl_vh12vm_hooks_api10VMHooksApiNtNtBP_9debug_api15DebugApiBackendEENtNtB5_6config16EndpointWrappers27call_register_account_tokenCs8iyf5MSkCde_5tests
FNDA:0,_RNvYINtCs48qTgYy1n57_12lending_pool11ContractObjINtNtNtNtCs1rODQd5oASQ_22multiversx_sc_scenario3api7impl_vh12vm_hooks_api10VMHooksApiNtNtBP_9debug_api15DebugApiBackendEENtNtB5_6config16EndpointWrappers27call_remove_e_mode_categoryCs8iyf5MSkCde_5tests
FNDA:0,_RNvYINtCs48qTgYy1n57_12lending_pool11ContractObjINtNtNtNtCs1rODQd5oASQ_22multiversx_sc_scenario3api7impl_vh12vm_hooks_api10VMHooksApiNtNtBP_9debug_api15DebugApiBackendEENtNtB5_6config16EndpointWrappers32call_edit_token_oracle_toleranceCs8iyf5MSkCde_5tests
FNDA:0,_RNvYINtCs48qTgYy1n57_12lending_pool11ContractObjINtNtNtNtCs1rODQd5oASQ_22multiversx_sc_scenario3api7impl_vh12vm_hooks_api10VMHooksApiNtNtBP_9debug_api15DebugApiBackendEENtNtB5_6config16EndpointWrappers32call_set_liquidity_pool_templateCs8iyf5MSkCde_5tests
FNDA:192,_RNvYINtCs48qTgYy1n57_12lending_pool11ContractObjINtNtNtNtCs1rODQd5oASQ_22multiversx_sc_scenario3api7impl_vh12vm_hooks_api10VMHooksApiNtNtBP_9debug_api15DebugApiBackendEENtNtB5_6config16EndpointWrappers33call_add_asset_to_e_mode_categoryCs8iyf5MSkCde_5tests
FNDA:0,_RNvYINtCs48qTgYy1n57_12lending_pool11ContractObjINtNtNtNtCs1rODQd5oASQ_22multiversx_sc_scenario3api7impl_vh12vm_hooks_api10VMHooksApiNtNtBP_9debug_api15DebugApiBackendEENtNtB5_6config16EndpointWrappers34call_edit_asset_in_e_mode_categoryCs8iyf5MSkCde_5tests
FNDA:0,_RNvYINtCs48qTgYy1n57_12lending_pool11ContractObjINtNtNtNtCs1rODQd5oASQ_22multiversx_sc_scenario3api7impl_vh12vm_hooks_api10VMHooksApiNtNtBP_9debug_api15DebugApiBackendEENtNtB5_6config16EndpointWrappers38call_remove_asset_from_e_mode_categoryCs8iyf5MSkCde_5tests
FNDA:873,_RNvYINtCs48qTgYy1n57_12lending_pool11ContractObjINtNtNtNtCs1rODQd5oASQ_22multiversx_sc_scenario3api7impl_vh12vm_hooks_api10VMHooksApiNtNtBP_9debug_api15DebugApiBackendEENtNtB5_6config16EndpointWrappers4callCs8iyf5MSkCde_5tests
FNDA:0,_RNvYINtCs48qTgYy1n57_12lending_pool11ContractObjINtNtNtNtCs1rODQd5oASQ_22multiversx_sc_scenario3api7impl_vh12vm_hooks_api10VMHooksApiNtNtBP_9debug_api15DebugApiBackendEENtNtB5_6config16EndpointWrappers8callbackCs8iyf5MSkCde_5tests
FNDA:0,_RNCNvYINtCs48qTgYy1n57_12lending_pool11ContractObjINtNtNtNtCs1rODQd5oASQ_22multiversx_sc_scenario3api7impl_vh12vm_hooks_api10VMHooksApiNtNtBR_9debug_api15DebugApiBackendEENtNtB7_6config12ConfigModule27edit_token_oracle_tolerance0Cs8iyf5MSkCde_5tests
FNF:16
FNH:4
DA:12,873
DA:23,0
DA:24,0
DA:25,0
DA:26,0
DA:27,0
DA:28,0
DA:29,0
DA:30,0
DA:31,0
DA:32,0
DA:47,576
DA:48,576
DA:49,576
DA:50,576
DA:52,576
DA:54,48
DA:55,48
DA:56,48
DA:57,48
DA:58,48
DA:59,48
DA:60,48
DA:61,48
DA:64,480
DA:65,480
DA:66,480
DA:67,480
DA:68,480
DA:69,480
DA:70,480
DA:71,480
DA:73,48
DA:74,0
DA:76,0
DA:80,576
DA:82,480
DA:83,480
DA:84,480
DA:85,480
DA:86,480
DA:87,480
DA:88,480
DA:89,480
DA:91,48
DA:92,0
DA:93,48
DA:95,0
DA:99,576
DA:100,576
DA:101,576
DA:102,576
DA:103,576
DA:104,576
DA:105,576
DA:106,576
DA:107,576
DA:108,576
DA:109,576
DA:110,576
DA:111,576
DA:112,576
DA:122,0
DA:123,0
DA:124,0
DA:125,0
DA:128,0
DA:129,0
DA:130,0
DA:131,0
DA:136,0
DA:137,0
DA:139,0
DA:140,0
DA:141,0
DA:143,0
DA:148,0
DA:149,0
DA:151,0
DA:152,0
DA:153,0
DA:155,0
DA:160,0
DA:161,0
DA:163,0
DA:164,0
DA:165,0
DA:167,0
DA:172,0
DA:173,0
DA:175,0
DA:176,0
DA:177,0
DA:179,0
DA:189,48
DA:190,48
DA:191,48
DA:192,48
DA:193,48
DA:194,48
DA:195,48
DA:196,48
DA:197,48
DA:198,48
DA:199,48
DA:200,48
DA:201,48
DA:202,48
DA:203,48
DA:204,48
DA:209,0
DA:210,0
DA:211,0
DA:212,0
DA:213,0
DA:216,0
DA:217,0
DA:222,0
DA:223,0
DA:224,0
DA:225,0
DA:226,0
DA:229,0
DA:230,0
DA:231,0
DA:232,0
DA:234,0
DA:235,0
DA:236,0
DA:237,0
DA:238,0
DA:239,0
DA:240,0
DA:241,0
DA:242,0
DA:253,192
DA:254,192
DA:255,192
DA:256,0
DA:258,192
DA:259,192
DA:260,0
DA:263,192
DA:264,192
DA:265,192
DA:266,0
DA:269,192
DA:270,192
DA:271,192
DA:272,0
DA:275,192
DA:276,192
DA:277,192
DA:278,192
DA:279,192
DA:280,192
DA:281,192
DA:282,192
DA:283,192
DA:284,192
DA:285,192
DA:286,192
DA:287,192
DA:288,192
DA:289,192
DA:290,192
DA:291,192
DA:301,0
DA:302,0
DA:303,0
DA:304,0
DA:306,0
DA:307,0
DA:312,0
DA:313,0
DA:314,0
DA:315,0
DA:316,0
DA:317,0
DA:319,0
DA:320,0
DA:321,0
DA:324,0
DA:325,0
DA:326,0
DA:327,0
DA:328,0
DA:329,0
DA:330,0
DA:331,0
DA:332,0
DA:333,0
DA:334,0
DA:335,0
DA:357,0
DA:358,0
DA:359,0
DA:360,0
DA:363,0
DA:364,0
DA:366,0
DA:367,0
DA:368,0
DA:371,0
DA:373,0
DA:374,0
DA:375,0
DA:376,0
DA:377,0
DA:378,0
DA:379,0
DA:380,0
DA:381,0
DA:382,0
DA:383,0
DA:384,0
DA:385,0
DA:386,0
DA:387,0
DA:388,0
DA:390,0
DA:392,0
DA:393,0
DA:395,0
DA:399,0
DA:400,0
DA:401,0
BRF:0
BRH:0
LF:229
LH:92
end_of_record
SF:/Users/mihaieremia/GitHub/rs-lending/lending_pool/src/contexts/base.rs
FN:24,_RNvMNtNtCshiqmisuHlyH_12lending_pool8contexts4baseINtB2_12StorageCachepE3newB6_
FN:24,_RNvMNtNtCs48qTgYy1n57_12lending_pool8contexts4baseINtB2_12StorageCacheINtB6_11ContractObjINtNtNtNtCs1rODQd5oASQ_22multiversx_sc_scenario3api7impl_vh12vm_hooks_api10VMHooksApiNtNtB1u_9debug_api15DebugApiBackendEEE3newCs8iyf5MSkCde_5tests
FNDA:0,_RNvMNtNtCshiqmisuHlyH_12lending_pool8contexts4baseINtB2_12StorageCachepE3newB6_
FNDA:936,_RNvMNtNtCs48qTgYy1n57_12lending_pool8contexts4baseINtB2_12StorageCacheINtB6_11ContractObjINtNtNtNtCs1rODQd5oASQ_22multiversx_sc_scenario3api7impl_vh12vm_hooks_api10VMHooksApiNtNtB1u_9debug_api15DebugApiBackendEEE3newCs8iyf5MSkCde_5tests
FNF:1
FNH:1
DA:24,936
DA:25,936
DA:26,936
DA:27,936
DA:28,936
DA:29,936
DA:30,936
DA:31,936
DA:32,936
DA:33,936
DA:34,936
DA:35,936
DA:36,936
BRF:0
BRH:0
LF:13
LH:13
end_of_record
SF:/Users/mihaieremia/GitHub/rs-lending/lending_pool/src/factory.rs
FN:19,_RNvYpNtNtCshiqmisuHlyH_12lending_pool7factory13FactoryModule11create_poolB7_
FN:57,_RNvYpNtNtCshiqmisuHlyH_12lending_pool7factory13FactoryModule12upgrade_poolB7_
FN:6,_RNvYpNtNtCshiqmisuHlyH_12lending_pool7factory16EndpointWrappers4callB7_
FN:6,_RNvYpNtNtCshiqmisuHlyH_12lending_pool7factory16EndpointWrappers17callback_selectorB7_
FN:6,_RNvYpNtNtCshiqmisuHlyH_12lending_pool7factory16EndpointWrappers8callbackB7_
FN:6,_RNvXs1_NtCshiqmisuHlyH_12lending_pool7factoryNtB5_11AbiProviderNtNtNtCslPMlHj3qn2H_13multiversx_sc13contract_base21contract_abi_provider19ContractAbiProvider3abi
FN:6,_RNvXININtCshiqmisuHlyH_12lending_pool7factorysb_0pEINtB5_11ContractObjpENtNtNtCslPMlHj3qn2H_13multiversx_sc13contract_base17callable_contract16CallableContract4callB7_
FN:6,_RINvNtCshiqmisuHlyH_12lending_pool7factory12contract_objpEB4_
FN:6,_RINvXsc_NtCshiqmisuHlyH_12lending_pool7factoryNtB6_15ContractBuilderNtNtNtCslPMlHj3qn2H_13multiversx_sc13contract_base17callable_contract23CallableContractBuilder16new_contract_objpEB8_
FN:19,_RNvYINtCs48qTgYy1n57_12lending_pool11ContractObjINtNtNtNtCs1rODQd5oASQ_22multiversx_sc_scenario3api7impl_vh12vm_hooks_api10VMHooksApiNtNtBP_9debug_api15DebugApiBackendEENtNtB5_7factory13FactoryModule11create_poolCs8iyf5MSkCde_5tests
FN:57,_RNvYINtCs48qTgYy1n57_12lending_pool11ContractObjINtNtNtNtCs1rODQd5oASQ_22multiversx_sc_scenario3api7impl_vh12vm_hooks_api10VMHooksApiNtNtBP_9debug_api15DebugApiBackendEENtNtB5_7factory13FactoryModule12upgrade_poolCs8iyf5MSkCde_5tests
FN:6,_RNvYINtCs48qTgYy1n57_12lending_pool11ContractObjINtNtNtNtCs1rODQd5oASQ_22multiversx_sc_scenario3api7impl_vh12vm_hooks_api10VMHooksApiNtNtBP_9debug_api15DebugApiBackendEENtNtB5_7factory16EndpointWrappers17callback_selectorCs8iyf5MSkCde_5tests
FN:6,_RNvYINtCs48qTgYy1n57_12lending_pool11ContractObjINtNtNtNtCs1rODQd5oASQ_22multiversx_sc_scenario3api7impl_vh12vm_hooks_api10VMHooksApiNtNtBP_9debug_api15DebugApiBackendEENtNtB5_7factory16EndpointWrappers4callCs8iyf5MSkCde_5tests
FN:6,_RNvYINtCs48qTgYy1n57_12lending_pool11ContractObjINtNtNtNtCs1rODQd5oASQ_22multiversx_sc_scenario3api7impl_vh12vm_hooks_api10VMHooksApiNtNtBP_9debug_api15DebugApiBackendEENtNtB5_7factory16EndpointWrappers8callbackCs8iyf5MSkCde_5tests
FNDA:0,_RNvYpNtNtCshiqmisuHlyH_12lending_pool7factory13FactoryModule11create_poolB7_
FNDA:0,_RNvYpNtNtCshiqmisuHlyH_12lending_pool7factory13FactoryModule12upgrade_poolB7_
FNDA:0,_RNvYpNtNtCshiqmisuHlyH_12lending_pool7factory16EndpointWrappers4callB7_
FNDA:0,_RNvYpNtNtCshiqmisuHlyH_12lending_pool7factory16EndpointWrappers17callback_selectorB7_
FNDA:0,_RNvYpNtNtCshiqmisuHlyH_12lending_pool7factory16EndpointWrappers8callbackB7_
FNDA:0,_RNvXs1_NtCshiqmisuHlyH_12lending_pool7factoryNtB5_11AbiProviderNtNtNtCslPMlHj3qn2H_13multiversx_sc13contract_base21contract_abi_provider19ContractAbiProvider3abi
FNDA:0,_RNvXININtCshiqmisuHlyH_12lending_pool7factorysb_0pEINtB5_11ContractObjpENtNtNtCslPMlHj3qn2H_13multiversx_sc13contract_base17callable_contract16CallableContract4callB7_
FNDA:0,_RINvNtCshiqmisuHlyH_12lending_pool7factory12contract_objpEB4_
FNDA:0,_RINvXsc_NtCshiqmisuHlyH_12lending_pool7factoryNtB6_15ContractBuilderNtNtNtCslPMlHj3qn2H_13multiversx_sc13contract_base17callable_contract23CallableContractBuilder16new_contract_objpEB8_
FNDA:480,_RNvYINtCs48qTgYy1n57_12lending_pool11ContractObjINtNtNtNtCs1rODQd5oASQ_22multiversx_sc_scenario3api7impl_vh12vm_hooks_api10VMHooksApiNtNtBP_9debug_api15DebugApiBackendEENtNtB5_7factory13FactoryModule11create_poolCs8iyf5MSkCde_5tests
FNDA:0,_RNvYINtCs48qTgYy1n57_12lending_pool11ContractObjINtNtNtNtCs1rODQd5oASQ_22multiversx_sc_scenario3api7impl_vh12vm_hooks_api10VMHooksApiNtNtBP_9debug_api15DebugApiBackendEENtNtB5_7factory13FactoryModule12upgrade_poolCs8iyf5MSkCde_5tests
FNDA:0,_RNvYINtCs48qTgYy1n57_12lending_pool11ContractObjINtNtNtNtCs1rODQd5oASQ_22multiversx_sc_scenario3api7impl_vh12vm_hooks_api10VMHooksApiNtNtBP_9debug_api15DebugApiBackendEENtNtB5_7factory16EndpointWrappers17callback_selectorCs8iyf5MSkCde_5tests
FNDA:2251,_RNvYINtCs48qTgYy1n57_12lending_pool11ContractObjINtNtNtNtCs1rODQd5oASQ_22multiversx_sc_scenario3api7impl_vh12vm_hooks_api10VMHooksApiNtNtBP_9debug_api15DebugApiBackendEENtNtB5_7factory16EndpointWrappers4callCs8iyf5MSkCde_5tests
FNDA:0,_RNvYINtCs48qTgYy1n57_12lending_pool11ContractObjINtNtNtNtCs1rODQd5oASQ_22multiversx_sc_scenario3api7impl_vh12vm_hooks_api10VMHooksApiNtNtBP_9debug_api15DebugApiBackendEENtNtB5_7factory16EndpointWrappers8callbackCs8iyf5MSkCde_5tests
FNF:3
FNH:2
DA:6,2251
DA:19,480
DA:20,480
DA:21,480
DA:22,0
DA:25,480
DA:26,480
DA:27,480
DA:28,480
DA:29,480
DA:30,480
DA:31,480
DA:32,480
DA:33,480
DA:34,480
DA:35,480
DA:36,480
DA:37,480
DA:38,480
DA:39,480
DA:40,480
DA:41,480
DA:42,480
DA:43,480
DA:44,480
DA:45,480
DA:57,0
DA:58,0
DA:59,0
DA:60,0
DA:62,0
DA:63,0
DA:64,0
DA:65,0
DA:66,0
DA:67,0
DA:68,0
BRF:0
BRH:0
LF:37
LH:25
end_of_record
SF:/Users/mihaieremia/GitHub/rs-lending/lending_pool/src/helpers/math.rs
FN:30,_RNvYpNtNtNtCshiqmisuHlyH_12lending_pool7helpers4math11MathsModule21compute_health_factorB9_
FN:54,_RNvYpNtNtNtCshiqmisuHlyH_12lending_pool7helpers4math11MathsModule9get_rangeB9_
FN:94,_RNvYpNtNtNtCshiqmisuHlyH_12lending_pool7helpers4math11MathsModule21get_anchor_tolerancesB9_
FN:143,_RNvYpNtNtNtCshiqmisuHlyH_12lending_pool7helpers4math11MathsModule22get_max_feasible_bonusB9_
FN:174,_RNvYpNtNtNtCshiqmisuHlyH_12lending_pool7helpers4math11MathsModule30calculate_dynamic_protocol_feeB9_
FN:217,_RNvYpNtNtNtCshiqmisuHlyH_12lending_pool7helpers4math11MathsModule35calculate_dynamic_liquidation_bonusB9_
FN:248,_RNvYpNtNtNtCshiqmisuHlyH_12lending_pool7helpers4math11MathsModule21calculate_liquidationB9_
FN:282,_RNvYpNtNtNtCshiqmisuHlyH_12lending_pool7helpers4math11MathsModule26calculate_liquidation_feesB9_
FN:311,_RNvYpNtNtNtCshiqmisuHlyH_12lending_pool7helpers4math11MathsModule27estimate_liquidation_amountB9_
FN:346,_RNvYpNtNtNtCshiqmisuHlyH_12lending_pool7helpers4math11MathsModule22calculate_max_leverageB9_
FN:15,_RNvYpNtNtNtCshiqmisuHlyH_12lending_pool7helpers4math16EndpointWrappers27call_calculate_max_leverageB9_
FN:15,_RNvYpNtNtNtCshiqmisuHlyH_12lending_pool7helpers4math16EndpointWrappers4callB9_
FN:15,_RNvYpNtNtNtCshiqmisuHlyH_12lending_pool7helpers4math16EndpointWrappers17callback_selectorB9_
FN:15,_RNvYpNtNtNtCshiqmisuHlyH_12lending_pool7helpers4math16EndpointWrappers8callbackB9_
FN:15,_RNvXs1_NtNtCshiqmisuHlyH_12lending_pool7helpers4mathNtB5_11AbiProviderNtNtNtCslPMlHj3qn2H_13multiversx_sc13contract_base21contract_abi_provider19ContractAbiProvider3abi
FN:15,_RNvXININtNtCshiqmisuHlyH_12lending_pool7helpers4maths5_0pEINtB5_11ContractObjpENtNtNtCslPMlHj3qn2H_13multiversx_sc13contract_base17callable_contract16CallableContract4callB9_
FN:15,_RINvNtNtCshiqmisuHlyH_12lending_pool7helpers4math12contract_objpEB6_
FN:15,_RINvXs6_NtNtCshiqmisuHlyH_12lending_pool7helpers4mathNtB6_15ContractBuilderNtNtNtCslPMlHj3qn2H_13multiversx_sc13contract_base17callable_contract23CallableContractBuilder16new_contract_objpEBa_
FN:15,_RINvNtNtNtCshiqmisuHlyH_12lending_pool7helpers4math19___wasm__endpoints__22calculate_max_leveragepEB8_
FN:15,_RINvYpNtNtNtCshiqmisuHlyH_12lending_pool7helpers4math10ProxyTrait22calculate_max_leverageppppppEBa_
FN:248,_RNvYINtCs48qTgYy1n57_12lending_pool11ContractObjINtNtNtNtCs1rODQd5oASQ_22multiversx_sc_scenario3api7impl_vh12vm_hooks_api10VMHooksApiNtNtBP_9debug_api15DebugApiBackendEENtNtNtB5_7helpers4math11MathsModule21calculate_liquidationCs8iyf5MSkCde_5tests
FN:30,_RNvYINtCs48qTgYy1n57_12lending_pool11ContractObjINtNtNtNtCs1rODQd5oASQ_22multiversx_sc_scenario3api7impl_vh12vm_hooks_api10VMHooksApiNtNtBP_9debug_api15DebugApiBackendEENtNtNtB5_7helpers4math11MathsModule21compute_health_factorCs8iyf5MSkCde_5tests
FN:94,_RNvYINtCs48qTgYy1n57_12lending_pool11ContractObjINtNtNtNtCs1rODQd5oASQ_22multiversx_sc_scenario3api7impl_vh12vm_hooks_api10VMHooksApiNtNtBP_9debug_api15DebugApiBackendEENtNtNtB5_7helpers4math11MathsModule21get_anchor_tolerancesCs8iyf5MSkCde_5tests
FN:346,_RNvYINtCs48qTgYy1n57_12lending_pool11ContractObjINtNtNtNtCs1rODQd5oASQ_22multiversx_sc_scenario3api7impl_vh12vm_hooks_api10VMHooksApiNtNtBP_9debug_api15DebugApiBackendEENtNtNtB5_7helpers4math11MathsModule22calculate_max_leverageCs8iyf5MSkCde_5tests
FN:143,_RNvYINtCs48qTgYy1n57_12lending_pool11ContractObjINtNtNtNtCs1rODQd5oASQ_22multiversx_sc_scenario3api7impl_vh12vm_hooks_api10VMHooksApiNtNtBP_9debug_api15DebugApiBackendEENtNtNtB5_7helpers4math11MathsModule22get_max_feasible_bonusCs8iyf5MSkCde_5tests
FN:282,_RNvYINtCs48qTgYy1n57_12lending_pool11ContractObjINtNtNtNtCs1rODQd5oASQ_22multiversx_sc_scenario3api7impl_vh12vm_hooks_api10VMHooksApiNtNtBP_9debug_api15DebugApiBackendEENtNtNtB5_7helpers4math11MathsModule26calculate_liquidation_feesCs8iyf5MSkCde_5tests
FN:311,_RNvYINtCs48qTgYy1n57_12lending_pool11ContractObjINtNtNtNtCs1rODQd5oASQ_22multiversx_sc_scenario3api7impl_vh12vm_hooks_api10VMHooksApiNtNtBP_9debug_api15DebugApiBackendEENtNtNtB5_7helpers4math11MathsModule27estimate_liquidation_amountCs8iyf5MSkCde_5tests
FN:174,_RNvYINtCs48qTgYy1n57_12lending_pool11ContractObjINtNtNtNtCs1rODQd5oASQ_22multiversx_sc_scenario3api7impl_vh12vm_hooks_api10VMHooksApiNtNtBP_9debug_api15DebugApiBackendEENtNtNtB5_7helpers4math11MathsModule30calculate_dynamic_protocol_feeCs8iyf5MSkCde_5tests
FN:217,_RNvYINtCs48qTgYy1n57_12lending_pool11ContractObjINtNtNtNtCs1rODQd5oASQ_22multiversx_sc_scenario3api7impl_vh12vm_hooks_api10VMHooksApiNtNtBP_9debug_api15DebugApiBackendEENtNtNtB5_7helpers4math11MathsModule35calculate_dynamic_liquidation_bonusCs8iyf5MSkCde_5tests
FN:54,_RNvYINtCs48qTgYy1n57_12lending_pool11ContractObjINtNtNtNtCs1rODQd5oASQ_22multiversx_sc_scenario3api7impl_vh12vm_hooks_api10VMHooksApiNtNtBP_9debug_api15DebugApiBackendEENtNtNtB5_7helpers4math11MathsModule9get_rangeCs8iyf5MSkCde_5tests
FN:15,_RNvYINtCs48qTgYy1n57_12lending_pool11ContractObjINtNtNtNtCs1rODQd5oASQ_22multiversx_sc_scenario3api7impl_vh12vm_hooks_api10VMHooksApiNtNtBP_9debug_api15DebugApiBackendEENtNtNtB5_7helpers4math16EndpointWrappers17callback_selectorCs8iyf5MSkCde_5tests
FN:15,_RNvYINtCs48qTgYy1n57_12lending_pool11ContractObjINtNtNtNtCs1rODQd5oASQ_22multiversx_sc_scenario3api7impl_vh12vm_hooks_api10VMHooksApiNtNtBP_9debug_api15DebugApiBackendEENtNtNtB5_7helpers4math16EndpointWrappers27call_calculate_max_leverageCs8iyf5MSkCde_5tests
FN:15,_RNvYINtCs48qTgYy1n57_12lending_pool11ContractObjINtNtNtNtCs1rODQd5oASQ_22multiversx_sc_scenario3api7impl_vh12vm_hooks_api10VMHooksApiNtNtBP_9debug_api15DebugApiBackendEENtNtNtB5_7helpers4math16EndpointWrappers4callCs8iyf5MSkCde_5tests
FN:15,_RNvYINtCs48qTgYy1n57_12lending_pool11ContractObjINtNtNtNtCs1rODQd5oASQ_22multiversx_sc_scenario3api7impl_vh12vm_hooks_api10VMHooksApiNtNtBP_9debug_api15DebugApiBackendEENtNtNtB5_7helpers4math16EndpointWrappers8callbackCs8iyf5MSkCde_5tests
FNDA:0,_RNvYpNtNtNtCshiqmisuHlyH_12lending_pool7helpers4math11MathsModule21compute_health_factorB9_
FNDA:0,_RNvYpNtNtNtCshiqmisuHlyH_12lending_pool7helpers4math11MathsModule9get_rangeB9_
FNDA:0,_RNvYpNtNtNtCshiqmisuHlyH_12lending_pool7helpers4math11MathsModule21get_anchor_tolerancesB9_
FNDA:0,_RNvYpNtNtNtCshiqmisuHlyH_12lending_pool7helpers4math11MathsModule22get_max_feasible_bonusB9_
FNDA:0,_RNvYpNtNtNtCshiqmisuHlyH_12lending_pool7helpers4math11MathsModule30calculate_dynamic_protocol_feeB9_
FNDA:0,_RNvYpNtNtNtCshiqmisuHlyH_12lending_pool7helpers4math11MathsModule35calculate_dynamic_liquidation_bonusB9_
FNDA:0,_RNvYpNtNtNtCshiqmisuHlyH_12lending_pool7helpers4math11MathsModule21calculate_liquidationB9_
FNDA:0,_RNvYpNtNtNtCshiqmisuHlyH_12lending_pool7helpers4math11MathsModule26calculate_liquidation_feesB9_
FNDA:0,_RNvYpNtNtNtCshiqmisuHlyH_12lending_pool7helpers4math11MathsModule27estimate_liquidation_amountB9_
FNDA:0,_RNvYpNtNtNtCshiqmisuHlyH_12lending_pool7helpers4math11MathsModule22calculate_max_leverageB9_
FNDA:0,_RNvYpNtNtNtCshiqmisuHlyH_12lending_pool7helpers4math16EndpointWrappers27call_calculate_max_leverageB9_
FNDA:0,_RNvYpNtNtNtCshiqmisuHlyH_12lending_pool7helpers4math16EndpointWrappers4callB9_
FNDA:0,_RNvYpNtNtNtCshiqmisuHlyH_12lending_pool7helpers4math16EndpointWrappers17callback_selectorB9_
FNDA:0,_RNvYpNtNtNtCshiqmisuHlyH_12lending_pool7helpers4math16EndpointWrappers8callbackB9_
FNDA:0,_RNvXs1_NtNtCshiqmisuHlyH_12lending_pool7helpers4mathNtB5_11AbiProviderNtNtNtCslPMlHj3qn2H_13multiversx_sc13contract_base21contract_abi_provider19ContractAbiProvider3abi
FNDA:0,_RNvXININtNtCshiqmisuHlyH_12lending_pool7helpers4maths5_0pEINtB5_11ContractObjpENtNtNtCslPMlHj3qn2H_13multiversx_sc13contract_base17callable_contract16CallableContract4callB9_
FNDA:0,_RINvNtNtCshiqmisuHlyH_12lending_pool7helpers4math12contract_objpEB6_
FNDA:0,_RINvXs6_NtNtCshiqmisuHlyH_12lending_pool7helpers4mathNtB6_15ContractBuilderNtNtNtCslPMlHj3qn2H_13multiversx_sc13contract_base17callable_contract23CallableContractBuilder16new_contract_objpEBa_
FNDA:0,_RINvNtNtNtCshiqmisuHlyH_12lending_pool7helpers4math19___wasm__endpoints__22calculate_max_leveragepEB8_
FNDA:0,_RINvYpNtNtNtCshiqmisuHlyH_12lending_pool7helpers4math10ProxyTrait22calculate_max_leverageppppppEBa_
FNDA:6,_RNvYINtCs48qTgYy1n57_12lending_pool11ContractObjINtNtNtNtCs1rODQd5oASQ_22multiversx_sc_scenario3api7impl_vh12vm_hooks_api10VMHooksApiNtNtBP_9debug_api15DebugApiBackendEENtNtNtB5_7helpers4math11MathsModule21calculate_liquidationCs8iyf5MSkCde_5tests
FNDA:17,_RNvYINtCs48qTgYy1n57_12lending_pool11ContractObjINtNtNtNtCs1rODQd5oASQ_22multiversx_sc_scenario3api7impl_vh12vm_hooks_api10VMHooksApiNtNtBP_9debug_api15DebugApiBackendEENtNtNtB5_7helpers4math11MathsModule21compute_health_factorCs8iyf5MSkCde_5tests
FNDA:576,_RNvYINtCs48qTgYy1n57_12lending_pool11ContractObjINtNtNtNtCs1rODQd5oASQ_22multiversx_sc_scenario3api7impl_vh12vm_hooks_api10VMHooksApiNtNtBP_9debug_api15DebugApiBackendEENtNtNtB5_7helpers4math11MathsModule21get_anchor_tolerancesCs8iyf5MSkCde_5tests
FNDA:1,_RNvYINtCs48qTgYy1n57_12lending_pool11ContractObjINtNtNtNtCs1rODQd5oASQ_22multiversx_sc_scenario3api7impl_vh12vm_hooks_api10VMHooksApiNtNtBP_9debug_api15DebugApiBackendEENtNtNtB5_7helpers4math11MathsModule22calculate_max_leverageCs8iyf5MSkCde_5tests
FNDA:6,_RNvYINtCs48qTgYy1n57_12lending_pool11ContractObjINtNtNtNtCs1rODQd5oASQ_22multiversx_sc_scenario3api7impl_vh12vm_hooks_api10VMHooksApiNtNtBP_9debug_api15DebugApiBackendEENtNtNtB5_7helpers4math11MathsModule22get_max_feasible_bonusCs8iyf5MSkCde_5tests
FNDA:5,_RNvYINtCs48qTgYy1n57_12lending_pool11ContractObjINtNtNtNtCs1rODQd5oASQ_22multiversx_sc_scenario3api7impl_vh12vm_hooks_api10VMHooksApiNtNtBP_9debug_api15DebugApiBackendEENtNtNtB5_7helpers4math11MathsModule26calculate_liquidation_feesCs8iyf5MSkCde_5tests
FNDA:6,_RNvYINtCs48qTgYy1n57_12lending_pool11ContractObjINtNtNtNtCs1rODQd5oASQ_22multiversx_sc_scenario3api7impl_vh12vm_hooks_api10VMHooksApiNtNtBP_9debug_api15DebugApiBackendEENtNtNtB5_7helpers4math11MathsModule27estimate_liquidation_amountCs8iyf5MSkCde_5tests
FNDA:5,_RNvYINtCs48qTgYy1n57_12lending_pool11ContractObjINtNtNtNtCs1rODQd5oASQ_22multiversx_sc_scenario3api7impl_vh12vm_hooks_api10VMHooksApiNtNtBP_9debug_api15DebugApiBackendEENtNtNtB5_7helpers4math11MathsModule30calculate_dynamic_protocol_feeCs8iyf5MSkCde_5tests
FNDA:6,_RNvYINtCs48qTgYy1n57_12lending_pool11ContractObjINtNtNtNtCs1rODQd5oASQ_22multiversx_sc_scenario3api7impl_vh12vm_hooks_api10VMHooksApiNtNtBP_9debug_api15DebugApiBackendEENtNtNtB5_7helpers4math11MathsModule35calculate_dynamic_liquidation_bonusCs8iyf5MSkCde_5tests
FNDA:1152,_RNvYINtCs48qTgYy1n57_12lending_pool11ContractObjINtNtNtNtCs1rODQd5oASQ_22multiversx_sc_scenario3api7impl_vh12vm_hooks_api10VMHooksApiNtNtBP_9debug_api15DebugApiBackendEENtNtNtB5_7helpers4math11MathsModule9get_rangeCs8iyf5MSkCde_5tests
FNDA:0,_RNvYINtCs48qTgYy1n57_12lending_pool11ContractObjINtNtNtNtCs1rODQd5oASQ_22multiversx_sc_scenario3api7impl_vh12vm_hooks_api10VMHooksApiNtNtBP_9debug_api15DebugApiBackendEENtNtNtB5_7helpers4math16EndpointWrappers17callback_selectorCs8iyf5MSkCde_5tests
FNDA:1,_RNvYINtCs48qTgYy1n57_12lending_pool11ContractObjINtNtNtNtCs1rODQd5oASQ_22multiversx_sc_scenario3api7impl_vh12vm_hooks_api10VMHooksApiNtNtBP_9debug_api15DebugApiBackendEENtNtNtB5_7helpers4math16EndpointWrappers27call_calculate_max_leverageCs8iyf5MSkCde_5tests
FNDA:4006,_RNvYINtCs48qTgYy1n57_12lending_pool11ContractObjINtNtNtNtCs1rODQd5oASQ_22multiversx_sc_scenario3api7impl_vh12vm_hooks_api10VMHooksApiNtNtBP_9debug_api15DebugApiBackendEENtNtNtB5_7helpers4math16EndpointWrappers4callCs8iyf5MSkCde_5tests
FNDA:0,_RNvYINtCs48qTgYy1n57_12lending_pool11ContractObjINtNtNtNtCs1rODQd5oASQ_22multiversx_sc_scenario3api7impl_vh12vm_hooks_api10VMHooksApiNtNtBP_9debug_api15DebugApiBackendEENtNtNtB5_7helpers4math16EndpointWrappers8callbackCs8iyf5MSkCde_5tests
FNF:11
FNH:11
DA:15,4006
DA:30,17
DA:31,17
DA:32,17
DA:33,0
DA:34,17
DA:35,17
DA:36,17
DA:37,17
DA:38,17
DA:39,17
DA:40,17
DA:54,1152
DA:55,1152
DA:56,1152
DA:57,1152
DA:58,1152
DA:59,1152
DA:94,576
DA:95,576
DA:96,576
DA:97,576
DA:98,0
DA:101,576
DA:102,576
DA:103,576
DA:104,0
DA:107,576
DA:108,576
DA:109,0
DA:112,576
DA:113,576
DA:114,576
DA:115,576
DA:116,576
DA:117,576
DA:118,576
DA:119,576
DA:120,576
DA:121,576
DA:122,576
DA:143,6
DA:144,6
DA:145,6
DA:146,6
DA:147,6
DA:148,6
DA:149,6
DA:150,6
DA:151,6
DA:152,6
DA:153,6
DA:154,6
DA:155,6
DA:156,6
DA:157,6
DA:158,6
DA:159,6
DA:174,5
DA:175,5
DA:176,5
DA:177,5
DA:178,5
DA:179,5
DA:180,5
DA:181,1
DA:182,4
DA:183,4
DA:184,4
DA:185,4
DA:186,4
DA:187,4
DA:188,4
DA:189,4
DA:190,4
DA:191,4
DA:192,4
DA:193,4
DA:194,4
DA:195,4
DA:196,4
DA:197,4
DA:198,4
DA:217,6
DA:218,6
DA:219,6
DA:220,6
DA:221,6
DA:222,6
DA:223,6
DA:224,6
DA:225,6
DA:248,6
DA:249,6
DA:250,6
DA:251,6
DA:252,6
DA:253,6
DA:254,6
DA:255,6
DA:256,6
DA:257,6
DA:258,6
DA:259,6
DA:260,6
DA:261,6
DA:262,6
DA:263,6
DA:264,6
DA:282,5
DA:283,5
DA:284,5
DA:285,5
DA:286,5
DA:287,5
DA:288,5
DA:311,6
DA:312,6
DA:313,6
DA:314,6
DA:315,6
DA:316,6
DA:317,6
DA:318,6
DA:319,6
DA:320,6
DA:321,6
DA:322,6
DA:323,6
DA:324,6
DA:325,6
DA:326,6
DA:327,6
DA:328,6
DA:329,6
DA:330,6
DA:331,6
DA:332,6
DA:333,6
DA:334,6
DA:346,1
DA:347,1
DA:348,1
DA:349,0
DA:351,1
DA:353,1
DA:354,1
DA:355,1
DA:356,1
DA:357,1
DA:358,1
DA:359,1
DA:360,1
DA:361,1
DA:362,1
DA:363,1
DA:364,1
DA:365,1
DA:366,1
DA:367,1
DA:368,1
DA:369,1
DA:370,1
DA:371,1
DA:372,1
DA:373,1
DA:374,1
DA:375,1
DA:376,1
DA:377,1
DA:378,1
DA:379,1
DA:380,1
DA:381,1
DA:382,1
DA:383,1
DA:384,1
DA:385,1
DA:386,1
DA:387,1
BRF:0
BRH:0
LF:180
LH:175
end_of_record
SF:/Users/mihaieremia/GitHub/rs-lending/lending_pool/src/lib.rs
FN:54,_RNvYpNtCshiqmisuHlyH_12lending_pool11LendingPool4initB5_
FN:88,_RNvYpNtCshiqmisuHlyH_12lending_pool11LendingPool6supplyB5_
FN:184,_RNvYpNtCshiqmisuHlyH_12lending_pool11LendingPool8withdrawB5_
FN:253,_RNvYpNtCshiqmisuHlyH_12lending_pool11LendingPool6borrowB5_
FN:386,_RNvYpNtCshiqmisuHlyH_12lending_pool11LendingPool5repayB5_
FN:439,_RNvYpNtCshiqmisuHlyH_12lending_pool11LendingPool9liquidateB5_
FN:484,_RNvYpNtCshiqmisuHlyH_12lending_pool11LendingPool10flash_loanB5_
FN:551,_RNvYpNtCshiqmisuHlyH_12lending_pool11LendingPool24update_account_positionsB5_
FN:576,_RNvYpNtCshiqmisuHlyH_12lending_pool11LendingPool13disable_vaultB5_
FN:609,_RNCNvYpNtCshiqmisuHlyH_12lending_pool11LendingPool13disable_vault0B7_
FN:669,_RNvYpNtCshiqmisuHlyH_12lending_pool11LendingPool12enable_vaultB5_
FN:733,_RNCNvYpNtCshiqmisuHlyH_12lending_pool11LendingPool12enable_vault0B7_
FN:782,_RNvYpNtCshiqmisuHlyH_12lending_pool11LendingPool25update_position_thresholdB5_
FN:859,_RNvYpNtCshiqmisuHlyH_12lending_pool11LendingPool14update_indexesB5_
FN:26,_RNvYpNtCshiqmisuHlyH_12lending_pool16EndpointWrappers9call_initB5_
FN:26,_RNvYpNtCshiqmisuHlyH_12lending_pool16EndpointWrappers12call_upgradeB5_
FN:26,_RNvYpNtCshiqmisuHlyH_12lending_pool16EndpointWrappers11call_supplyB5_
FN:26,_RNvYpNtCshiqmisuHlyH_12lending_pool16EndpointWrappers13call_withdrawB5_
FN:26,_RNvYpNtCshiqmisuHlyH_12lending_pool16EndpointWrappers11call_borrowB5_
FN:26,_RNvYpNtCshiqmisuHlyH_12lending_pool16EndpointWrappers10call_repayB5_
FN:26,_RNvYpNtCshiqmisuHlyH_12lending_pool16EndpointWrappers14call_liquidateB5_
FN:26,_RNvYpNtCshiqmisuHlyH_12lending_pool16EndpointWrappers15call_flash_loanB5_
FN:26,_RNvYpNtCshiqmisuHlyH_12lending_pool16EndpointWrappers29call_update_account_positionsB5_
FN:26,_RNvYpNtCshiqmisuHlyH_12lending_pool16EndpointWrappers18call_disable_vaultB5_
FN:26,_RNvYpNtCshiqmisuHlyH_12lending_pool16EndpointWrappers17call_enable_vaultB5_
FN:26,_RNvYpNtCshiqmisuHlyH_12lending_pool16EndpointWrappers30call_update_position_thresholdB5_
FN:26,_RNvYpNtCshiqmisuHlyH_12lending_pool16EndpointWrappers19call_update_indexesB5_
FN:26,_RNvYpNtCshiqmisuHlyH_12lending_pool16EndpointWrappers4callB5_
FN:26,_RNvYpNtCshiqmisuHlyH_12lending_pool16EndpointWrappers17callback_selectorB5_
FN:26,_RNvYpNtCshiqmisuHlyH_12lending_pool16EndpointWrappers8callbackB5_
FN:26,_RNvXs1_CshiqmisuHlyH_12lending_poolNtB5_11AbiProviderNtNtNtCslPMlHj3qn2H_13multiversx_sc13contract_base21contract_abi_provider19ContractAbiProvider3abi
FN:26,_RNvXINICshiqmisuHlyH_12lending_poolst_0pEINtB5_11ContractObjpENtNtNtCslPMlHj3qn2H_13multiversx_sc13contract_base17callable_contract16CallableContract4callB5_
FN:26,_RINvCshiqmisuHlyH_12lending_pool12contract_objpEB2_
FN:26,_RINvXsu_CshiqmisuHlyH_12lending_poolNtB6_15ContractBuilderNtNtNtCslPMlHj3qn2H_13multiversx_sc13contract_base17callable_contract23CallableContractBuilder16new_contract_objpEB6_
FN:26,_RINvNtCshiqmisuHlyH_12lending_pool19___wasm__endpoints__4initpEB4_
FN:26,_RINvNtCshiqmisuHlyH_12lending_pool19___wasm__endpoints__7upgradepEB4_
FN:26,_RINvNtCshiqmisuHlyH_12lending_pool19___wasm__endpoints__6supplypEB4_
FN:26,_RINvNtCshiqmisuHlyH_12lending_pool19___wasm__endpoints__8withdrawpEB4_
FN:26,_RINvNtCshiqmisuHlyH_12lending_pool19___wasm__endpoints__6borrowpEB4_
FN:26,_RINvNtCshiqmisuHlyH_12lending_pool19___wasm__endpoints__5repaypEB4_
FN:26,_RINvNtCshiqmisuHlyH_12lending_pool19___wasm__endpoints__9liquidatepEB4_
FN:26,_RINvNtCshiqmisuHlyH_12lending_pool19___wasm__endpoints__10flash_loanpEB4_
FN:26,_RINvNtCshiqmisuHlyH_12lending_pool19___wasm__endpoints__24update_account_positionspEB4_
FN:26,_RINvNtCshiqmisuHlyH_12lending_pool19___wasm__endpoints__13disable_vaultpEB4_
FN:26,_RINvNtCshiqmisuHlyH_12lending_pool19___wasm__endpoints__12enable_vaultpEB4_
FN:26,_RINvNtCshiqmisuHlyH_12lending_pool19___wasm__endpoints__25update_position_thresholdpEB4_
FN:26,_RINvNtCshiqmisuHlyH_12lending_pool19___wasm__endpoints__14update_indexespEB4_
FN:26,_RINvNtCshiqmisuHlyH_12lending_pool19___wasm__endpoints__8callBackpEB4_
FN:26,_RINvYpNtCshiqmisuHlyH_12lending_pool10ProxyTrait4initppppEB6_
FN:26,_RNvYpNtCshiqmisuHlyH_12lending_pool10ProxyTrait7upgradeB5_
FN:26,_RINvYpNtCshiqmisuHlyH_12lending_pool10ProxyTrait6supplyppEB6_
FN:26,_RINvYpNtCshiqmisuHlyH_12lending_pool10ProxyTrait8withdrawpEB6_
FN:26,_RINvYpNtCshiqmisuHlyH_12lending_pool10ProxyTrait6borrowpEB6_
FN:26,_RINvYpNtCshiqmisuHlyH_12lending_pool10ProxyTrait5repaypEB6_
FN:26,_RINvYpNtCshiqmisuHlyH_12lending_pool10ProxyTrait9liquidatepppEB6_
FN:26,_RINvYpNtCshiqmisuHlyH_12lending_pool10ProxyTrait10flash_loanpppppEB6_
FN:26,_RINvYpNtCshiqmisuHlyH_12lending_pool10ProxyTrait24update_account_positionspEB6_
FN:26,_RNvYpNtCshiqmisuHlyH_12lending_pool10ProxyTrait13disable_vaultB5_
FN:26,_RNvYpNtCshiqmisuHlyH_12lending_pool10ProxyTrait12enable_vaultB5_
FN:26,_RINvYpNtCshiqmisuHlyH_12lending_pool10ProxyTrait25update_position_thresholdpppEB6_
FN:26,_RINvYpNtCshiqmisuHlyH_12lending_pool10ProxyTrait14update_indexespEB6_
FN:26,_RNvXINICshiqmisuHlyH_12lending_poolsv_0pEINtB5_5ProxypENtNtNtCslPMlHj3qn2H_13multiversx_sc13contract_base14proxy_obj_base12ProxyObjBase19extract_opt_addressB5_
FN:26,_RNvXINICshiqmisuHlyH_12lending_poolsv_0pEINtB5_5ProxypENtNtNtCslPMlHj3qn2H_13multiversx_sc13contract_base14proxy_obj_base12ProxyObjBase16extract_proxy_toB5_
FN:26,_RNvXINICshiqmisuHlyH_12lending_poolsw_0pEINtB5_5ProxypENtNtNtCslPMlHj3qn2H_13multiversx_sc13contract_base14proxy_obj_base11ProxyObjNew13new_proxy_objB5_
FN:26,_RNvXINICshiqmisuHlyH_12lending_poolsw_0pEINtB5_5ProxypENtNtNtCslPMlHj3qn2H_13multiversx_sc13contract_base14proxy_obj_base11ProxyObjNew8contractB5_
FN:26,_RNvXINICshiqmisuHlyH_12lending_poolsx_0pEINtB5_7ProxyTopENtNtNtCslPMlHj3qn2H_13multiversx_sc13contract_base14proxy_obj_base12ProxyObjBase19extract_opt_addressB5_
FN:26,_RNvXINICshiqmisuHlyH_12lending_poolsx_0pEINtB5_7ProxyTopENtNtNtCslPMlHj3qn2H_13multiversx_sc13contract_base14proxy_obj_base12ProxyObjBase15extract_addressB5_
FN:26,_RNvXINICshiqmisuHlyH_12lending_poolsx_0pEINtB5_7ProxyTopENtNtNtCslPMlHj3qn2H_13multiversx_sc13contract_base14proxy_obj_base12ProxyObjBase16extract_proxy_toB5_
FN:26,_RINvCs48qTgYy1n57_12lending_pool12contract_objINtNtNtNtCs1rODQd5oASQ_22multiversx_sc_scenario3api7impl_vh12vm_hooks_api10VMHooksApiNtNtBN_9debug_api15DebugApiBackendEECs8iyf5MSkCde_5tests
FN:26,_RINvXsu_Cs48qTgYy1n57_12lending_poolNtB6_15ContractBuilderNtNtNtCslPMlHj3qn2H_13multiversx_sc13contract_base17callable_contract23CallableContractBuilder16new_contract_objINtNtNtNtCs1rODQd5oASQ_22multiversx_sc_scenario3api7impl_vh12vm_hooks_api10VMHooksApiNtNtB2N_9debug_api15DebugApiBackendEECs8iyf5MSkCde_5tests
FN:733,_RNCNvYINtCs48qTgYy1n57_12lending_pool11ContractObjINtNtNtNtCs1rODQd5oASQ_22multiversx_sc_scenario3api7impl_vh12vm_hooks_api10VMHooksApiNtNtBR_9debug_api15DebugApiBackendEENtB7_11LendingPool12enable_vault0Cs8iyf5MSkCde_5tests
FN:609,_RNCNvYINtCs48qTgYy1n57_12lending_pool11ContractObjINtNtNtNtCs1rODQd5oASQ_22multiversx_sc_scenario3api7impl_vh12vm_hooks_api10VMHooksApiNtNtBR_9debug_api15DebugApiBackendEENtB7_11LendingPool13disable_vault0Cs8iyf5MSkCde_5tests
FN:26,_RNvXst_Cs48qTgYy1n57_12lending_poolINtB5_11ContractObjINtNtNtNtCs1rODQd5oASQ_22multiversx_sc_scenario3api7impl_vh12vm_hooks_api10VMHooksApiNtNtBV_9debug_api15DebugApiBackendEENtNtNtCslPMlHj3qn2H_13multiversx_sc13contract_base17callable_contract16CallableContract4callCs8iyf5MSkCde_5tests
FN:484,_RNvYINtCs48qTgYy1n57_12lending_pool11ContractObjINtNtNtNtCs1rODQd5oASQ_22multiversx_sc_scenario3api7impl_vh12vm_hooks_api10VMHooksApiNtNtBP_9debug_api15DebugApiBackendEENtB5_11LendingPool10flash_loanCs8iyf5MSkCde_5tests
FN:669,_RNvYINtCs48qTgYy1n57_12lending_pool11ContractObjINtNtNtNtCs1rODQd5oASQ_22multiversx_sc_scenario3api7impl_vh12vm_hooks_api10VMHooksApiNtNtBP_9debug_api15DebugApiBackendEENtB5_11LendingPool12enable_vaultCs8iyf5MSkCde_5tests
FN:576,_RNvYINtCs48qTgYy1n57_12lending_pool11ContractObjINtNtNtNtCs1rODQd5oASQ_22multiversx_sc_scenario3api7impl_vh12vm_hooks_api10VMHooksApiNtNtBP_9debug_api15DebugApiBackendEENtB5_11LendingPool13disable_vaultCs8iyf5MSkCde_5tests
FN:859,_RNvYINtCs48qTgYy1n57_12lending_pool11ContractObjINtNtNtNtCs1rODQd5oASQ_22multiversx_sc_scenario3api7impl_vh12vm_hooks_api10VMHooksApiNtNtBP_9debug_api15DebugApiBackendEENtB5_11LendingPool14update_indexesCs8iyf5MSkCde_5tests
FN:551,_RNvYINtCs48qTgYy1n57_12lending_pool11ContractObjINtNtNtNtCs1rODQd5oASQ_22multiversx_sc_scenario3api7impl_vh12vm_hooks_api10VMHooksApiNtNtBP_9debug_api15DebugApiBackendEENtB5_11LendingPool24update_account_positionsCs8iyf5MSkCde_5tests
FN:782,_RNvYINtCs48qTgYy1n57_12lending_pool11ContractObjINtNtNtNtCs1rODQd5oASQ_22multiversx_sc_scenario3api7impl_vh12vm_hooks_api10VMHooksApiNtNtBP_9debug_api15DebugApiBackendEENtB5_11LendingPool25update_position_thresholdCs8iyf5MSkCde_5tests
FN:54,_RNvYINtCs48qTgYy1n57_12lending_pool11ContractObjINtNtNtNtCs1rODQd5oASQ_22multiversx_sc_scenario3api7impl_vh12vm_hooks_api10VMHooksApiNtNtBP_9debug_api15DebugApiBackendEENtB5_11LendingPool4initCs8iyf5MSkCde_5tests
FN:386,_RNvYINtCs48qTgYy1n57_12lending_pool11ContractObjINtNtNtNtCs1rODQd5oASQ_22multiversx_sc_scenario3api7impl_vh12vm_hooks_api10VMHooksApiNtNtBP_9debug_api15DebugApiBackendEENtB5_11LendingPool5repayCs8iyf5MSkCde_5tests
FN:253,_RNvYINtCs48qTgYy1n57_12lending_pool11ContractObjINtNtNtNtCs1rODQd5oASQ_22multiversx_sc_scenario3api7impl_vh12vm_hooks_api10VMHooksApiNtNtBP_9debug_api15DebugApiBackendEENtB5_11LendingPool6borrowCs8iyf5MSkCde_5tests
FN:88,_RNvYINtCs48qTgYy1n57_12lending_pool11ContractObjINtNtNtNtCs1rODQd5oASQ_22multiversx_sc_scenario3api7impl_vh12vm_hooks_api10VMHooksApiNtNtBP_9debug_api15DebugApiBackendEENtB5_11LendingPool6supplyCs8iyf5MSkCde_5tests
FN:184,_RNvYINtCs48qTgYy1n57_12lending_pool11ContractObjINtNtNtNtCs1rODQd5oASQ_22multiversx_sc_scenario3api7impl_vh12vm_hooks_api10VMHooksApiNtNtBP_9debug_api15DebugApiBackendEENtB5_11LendingPool8withdrawCs8iyf5MSkCde_5tests
FN:439,_RNvYINtCs48qTgYy1n57_12lending_pool11ContractObjINtNtNtNtCs1rODQd5oASQ_22multiversx_sc_scenario3api7impl_vh12vm_hooks_api10VMHooksApiNtNtBP_9debug_api15DebugApiBackendEENtB5_11LendingPool9liquidateCs8iyf5MSkCde_5tests
FN:26,_RNvYINtCs48qTgYy1n57_12lending_pool11ContractObjINtNtNtNtCs1rODQd5oASQ_22multiversx_sc_scenario3api7impl_vh12vm_hooks_api10VMHooksApiNtNtBP_9debug_api15DebugApiBackendEENtB5_16EndpointWrappers10call_repayCs8iyf5MSkCde_5tests
FN:26,_RNvYINtCs48qTgYy1n57_12lending_pool11ContractObjINtNtNtNtCs1rODQd5oASQ_22multiversx_sc_scenario3api7impl_vh12vm_hooks_api10VMHooksApiNtNtBP_9debug_api15DebugApiBackendEENtB5_16EndpointWrappers11call_borrowCs8iyf5MSkCde_5tests
FN:26,_RNvYINtCs48qTgYy1n57_12lending_pool11ContractObjINtNtNtNtCs1rODQd5oASQ_22multiversx_sc_scenario3api7impl_vh12vm_hooks_api10VMHooksApiNtNtBP_9debug_api15DebugApiBackendEENtB5_16EndpointWrappers11call_supplyCs8iyf5MSkCde_5tests
FN:26,_RNvYINtCs48qTgYy1n57_12lending_pool11ContractObjINtNtNtNtCs1rODQd5oASQ_22multiversx_sc_scenario3api7impl_vh12vm_hooks_api10VMHooksApiNtNtBP_9debug_api15DebugApiBackendEENtB5_16EndpointWrappers12call_upgradeCs8iyf5MSkCde_5tests
FN:26,_RNvYINtCs48qTgYy1n57_12lending_pool11ContractObjINtNtNtNtCs1rODQd5oASQ_22multiversx_sc_scenario3api7impl_vh12vm_hooks_api10VMHooksApiNtNtBP_9debug_api15DebugApiBackendEENtB5_16EndpointWrappers13call_withdrawCs8iyf5MSkCde_5tests
FN:26,_RNvYINtCs48qTgYy1n57_12lending_pool11ContractObjINtNtNtNtCs1rODQd5oASQ_22multiversx_sc_scenario3api7impl_vh12vm_hooks_api10VMHooksApiNtNtBP_9debug_api15DebugApiBackendEENtB5_16EndpointWrappers14call_liquidateCs8iyf5MSkCde_5tests
FN:26,_RNvYINtCs48qTgYy1n57_12lending_pool11ContractObjINtNtNtNtCs1rODQd5oASQ_22multiversx_sc_scenario3api7impl_vh12vm_hooks_api10VMHooksApiNtNtBP_9debug_api15DebugApiBackendEENtB5_16EndpointWrappers15call_flash_loanCs8iyf5MSkCde_5tests
FN:26,_RNvYINtCs48qTgYy1n57_12lending_pool11ContractObjINtNtNtNtCs1rODQd5oASQ_22multiversx_sc_scenario3api7impl_vh12vm_hooks_api10VMHooksApiNtNtBP_9debug_api15DebugApiBackendEENtB5_16EndpointWrappers17call_enable_vaultCs8iyf5MSkCde_5tests
FN:26,_RNvYINtCs48qTgYy1n57_12lending_pool11ContractObjINtNtNtNtCs1rODQd5oASQ_22multiversx_sc_scenario3api7impl_vh12vm_hooks_api10VMHooksApiNtNtBP_9debug_api15DebugApiBackendEENtB5_16EndpointWrappers17callback_selectorCs8iyf5MSkCde_5tests
FN:26,_RNvYINtCs48qTgYy1n57_12lending_pool11ContractObjINtNtNtNtCs1rODQd5oASQ_22multiversx_sc_scenario3api7impl_vh12vm_hooks_api10VMHooksApiNtNtBP_9debug_api15DebugApiBackendEENtB5_16EndpointWrappers18call_disable_vaultCs8iyf5MSkCde_5tests
FN:26,_RNvYINtCs48qTgYy1n57_12lending_pool11ContractObjINtNtNtNtCs1rODQd5oASQ_22multiversx_sc_scenario3api7impl_vh12vm_hooks_api10VMHooksApiNtNtBP_9debug_api15DebugApiBackendEENtB5_16EndpointWrappers19call_update_indexesCs8iyf5MSkCde_5tests
FN:26,_RNvYINtCs48qTgYy1n57_12lending_pool11ContractObjINtNtNtNtCs1rODQd5oASQ_22multiversx_sc_scenario3api7impl_vh12vm_hooks_api10VMHooksApiNtNtBP_9debug_api15DebugApiBackendEENtB5_16EndpointWrappers29call_update_account_positionsCs8iyf5MSkCde_5tests
FN:26,_RNvYINtCs48qTgYy1n57_12lending_pool11ContractObjINtNtNtNtCs1rODQd5oASQ_22multiversx_sc_scenario3api7impl_vh12vm_hooks_api10VMHooksApiNtNtBP_9debug_api15DebugApiBackendEENtB5_16EndpointWrappers30call_update_position_thresholdCs8iyf5MSkCde_5tests
FN:26,_RNvYINtCs48qTgYy1n57_12lending_pool11ContractObjINtNtNtNtCs1rODQd5oASQ_22multiversx_sc_scenario3api7impl_vh12vm_hooks_api10VMHooksApiNtNtBP_9debug_api15DebugApiBackendEENtB5_16EndpointWrappers4callCs8iyf5MSkCde_5tests
FN:26,_RNvYINtCs48qTgYy1n57_12lending_pool11ContractObjINtNtNtNtCs1rODQd5oASQ_22multiversx_sc_scenario3api7impl_vh12vm_hooks_api10VMHooksApiNtNtBP_9debug_api15DebugApiBackendEENtB5_16EndpointWrappers8callbackCs8iyf5MSkCde_5tests
FN:26,_RNvYINtCs48qTgYy1n57_12lending_pool11ContractObjINtNtNtNtCs1rODQd5oASQ_22multiversx_sc_scenario3api7impl_vh12vm_hooks_api10VMHooksApiNtNtBP_9debug_api15DebugApiBackendEENtB5_16EndpointWrappers9call_initCs8iyf5MSkCde_5tests
FNDA:0,_RNvYpNtCshiqmisuHlyH_12lending_pool11LendingPool4initB5_
FNDA:0,_RNvYpNtCshiqmisuHlyH_12lending_pool11LendingPool6supplyB5_
FNDA:0,_RNvYpNtCshiqmisuHlyH_12lending_pool11LendingPool8withdrawB5_
FNDA:0,_RNvYpNtCshiqmisuHlyH_12lending_pool11LendingPool6borrowB5_
FNDA:0,_RNvYpNtCshiqmisuHlyH_12lending_pool11LendingPool5repayB5_
FNDA:0,_RNvYpNtCshiqmisuHlyH_12lending_pool11LendingPool9liquidateB5_
FNDA:0,_RNvYpNtCshiqmisuHlyH_12lending_pool11LendingPool10flash_loanB5_
FNDA:0,_RNvYpNtCshiqmisuHlyH_12lending_pool11LendingPool24update_account_positionsB5_
FNDA:0,_RNvYpNtCshiqmisuHlyH_12lending_pool11LendingPool13disable_vaultB5_
FNDA:0,_RNCNvYpNtCshiqmisuHlyH_12lending_pool11LendingPool13disable_vault0B7_
FNDA:0,_RNvYpNtCshiqmisuHlyH_12lending_pool11LendingPool12enable_vaultB5_
FNDA:0,_RNCNvYpNtCshiqmisuHlyH_12lending_pool11LendingPool12enable_vault0B7_
FNDA:0,_RNvYpNtCshiqmisuHlyH_12lending_pool11LendingPool25update_position_thresholdB5_
FNDA:0,_RNvYpNtCshiqmisuHlyH_12lending_pool11LendingPool14update_indexesB5_
FNDA:0,_RNvYpNtCshiqmisuHlyH_12lending_pool16EndpointWrappers9call_initB5_
FNDA:0,_RNvYpNtCshiqmisuHlyH_12lending_pool16EndpointWrappers12call_upgradeB5_
FNDA:0,_RNvYpNtCshiqmisuHlyH_12lending_pool16EndpointWrappers11call_supplyB5_
FNDA:0,_RNvYpNtCshiqmisuHlyH_12lending_pool16EndpointWrappers13call_withdrawB5_
FNDA:0,_RNvYpNtCshiqmisuHlyH_12lending_pool16EndpointWrappers11call_borrowB5_
FNDA:0,_RNvYpNtCshiqmisuHlyH_12lending_pool16EndpointWrappers10call_repayB5_
FNDA:0,_RNvYpNtCshiqmisuHlyH_12lending_pool16EndpointWrappers14call_liquidateB5_
FNDA:0,_RNvYpNtCshiqmisuHlyH_12lending_pool16EndpointWrappers15call_flash_loanB5_
FNDA:0,_RNvYpNtCshiqmisuHlyH_12lending_pool16EndpointWrappers29call_update_account_positionsB5_
FNDA:0,_RNvYpNtCshiqmisuHlyH_12lending_pool16EndpointWrappers18call_disable_vaultB5_
FNDA:0,_RNvYpNtCshiqmisuHlyH_12lending_pool16EndpointWrappers17call_enable_vaultB5_
FNDA:0,_RNvYpNtCshiqmisuHlyH_12lending_pool16EndpointWrappers30call_update_position_thresholdB5_
FNDA:0,_RNvYpNtCshiqmisuHlyH_12lending_pool16EndpointWrappers19call_update_indexesB5_
FNDA:0,_RNvYpNtCshiqmisuHlyH_12lending_pool16EndpointWrappers4callB5_
FNDA:0,_RNvYpNtCshiqmisuHlyH_12lending_pool16EndpointWrappers17callback_selectorB5_
FNDA:0,_RNvYpNtCshiqmisuHlyH_12lending_pool16EndpointWrappers8callbackB5_
FNDA:0,_RNvXs1_CshiqmisuHlyH_12lending_poolNtB5_11AbiProviderNtNtNtCslPMlHj3qn2H_13multiversx_sc13contract_base21contract_abi_provider19ContractAbiProvider3abi
FNDA:0,_RNvXINICshiqmisuHlyH_12lending_poolst_0pEINtB5_11ContractObjpENtNtNtCslPMlHj3qn2H_13multiversx_sc13contract_base17callable_contract16CallableContract4callB5_
FNDA:0,_RINvCshiqmisuHlyH_12lending_pool12contract_objpEB2_
FNDA:0,_RINvXsu_CshiqmisuHlyH_12lending_poolNtB6_15ContractBuilderNtNtNtCslPMlHj3qn2H_13multiversx_sc13contract_base17callable_contract23CallableContractBuilder16new_contract_objpEB6_
FNDA:0,_RINvNtCshiqmisuHlyH_12lending_pool19___wasm__endpoints__4initpEB4_
FNDA:0,_RINvNtCshiqmisuHlyH_12lending_pool19___wasm__endpoints__7upgradepEB4_
FNDA:0,_RINvNtCshiqmisuHlyH_12lending_pool19___wasm__endpoints__6supplypEB4_
FNDA:0,_RINvNtCshiqmisuHlyH_12lending_pool19___wasm__endpoints__8withdrawpEB4_
FNDA:0,_RINvNtCshiqmisuHlyH_12lending_pool19___wasm__endpoints__6borrowpEB4_
FNDA:0,_RINvNtCshiqmisuHlyH_12lending_pool19___wasm__endpoints__5repaypEB4_
FNDA:0,_RINvNtCshiqmisuHlyH_12lending_pool19___wasm__endpoints__9liquidatepEB4_
FNDA:0,_RINvNtCshiqmisuHlyH_12lending_pool19___wasm__endpoints__10flash_loanpEB4_
FNDA:0,_RINvNtCshiqmisuHlyH_12lending_pool19___wasm__endpoints__24update_account_positionspEB4_
FNDA:0,_RINvNtCshiqmisuHlyH_12lending_pool19___wasm__endpoints__13disable_vaultpEB4_
FNDA:0,_RINvNtCshiqmisuHlyH_12lending_pool19___wasm__endpoints__12enable_vaultpEB4_
FNDA:0,_RINvNtCshiqmisuHlyH_12lending_pool19___wasm__endpoints__25update_position_thresholdpEB4_
FNDA:0,_RINvNtCshiqmisuHlyH_12lending_pool19___wasm__endpoints__14update_indexespEB4_
FNDA:0,_RINvNtCshiqmisuHlyH_12lending_pool19___wasm__endpoints__8callBackpEB4_
FNDA:0,_RINvYpNtCshiqmisuHlyH_12lending_pool10ProxyTrait4initppppEB6_
FNDA:0,_RNvYpNtCshiqmisuHlyH_12lending_pool10ProxyTrait7upgradeB5_
FNDA:0,_RINvYpNtCshiqmisuHlyH_12lending_pool10ProxyTrait6supplyppEB6_
FNDA:0,_RINvYpNtCshiqmisuHlyH_12lending_pool10ProxyTrait8withdrawpEB6_
FNDA:0,_RINvYpNtCshiqmisuHlyH_12lending_pool10ProxyTrait6borrowpEB6_
FNDA:0,_RINvYpNtCshiqmisuHlyH_12lending_pool10ProxyTrait5repaypEB6_
FNDA:0,_RINvYpNtCshiqmisuHlyH_12lending_pool10ProxyTrait9liquidatepppEB6_
FNDA:0,_RINvYpNtCshiqmisuHlyH_12lending_pool10ProxyTrait10flash_loanpppppEB6_
FNDA:0,_RINvYpNtCshiqmisuHlyH_12lending_pool10ProxyTrait24update_account_positionspEB6_
FNDA:0,_RNvYpNtCshiqmisuHlyH_12lending_pool10ProxyTrait13disable_vaultB5_
FNDA:0,_RNvYpNtCshiqmisuHlyH_12lending_pool10ProxyTrait12enable_vaultB5_
FNDA:0,_RINvYpNtCshiqmisuHlyH_12lending_pool10ProxyTrait25update_position_thresholdpppEB6_
FNDA:0,_RINvYpNtCshiqmisuHlyH_12lending_pool10ProxyTrait14update_indexespEB6_
FNDA:0,_RNvXINICshiqmisuHlyH_12lending_poolsv_0pEINtB5_5ProxypENtNtNtCslPMlHj3qn2H_13multiversx_sc13contract_base14proxy_obj_base12ProxyObjBase19extract_opt_addressB5_
FNDA:0,_RNvXINICshiqmisuHlyH_12lending_poolsv_0pEINtB5_5ProxypENtNtNtCslPMlHj3qn2H_13multiversx_sc13contract_base14proxy_obj_base12ProxyObjBase16extract_proxy_toB5_
FNDA:0,_RNvXINICshiqmisuHlyH_12lending_poolsw_0pEINtB5_5ProxypENtNtNtCslPMlHj3qn2H_13multiversx_sc13contract_base14proxy_obj_base11ProxyObjNew13new_proxy_objB5_
FNDA:0,_RNvXINICshiqmisuHlyH_12lending_poolsw_0pEINtB5_5ProxypENtNtNtCslPMlHj3qn2H_13multiversx_sc13contract_base14proxy_obj_base11ProxyObjNew8contractB5_
FNDA:0,_RNvXINICshiqmisuHlyH_12lending_poolsx_0pEINtB5_7ProxyTopENtNtNtCslPMlHj3qn2H_13multiversx_sc13contract_base14proxy_obj_base12ProxyObjBase19extract_opt_addressB5_
FNDA:0,_RNvXINICshiqmisuHlyH_12lending_poolsx_0pEINtB5_7ProxyTopENtNtNtCslPMlHj3qn2H_13multiversx_sc13contract_base14proxy_obj_base12ProxyObjBase15extract_addressB5_
FNDA:0,_RNvXINICshiqmisuHlyH_12lending_poolsx_0pEINtB5_7ProxyTopENtNtNtCslPMlHj3qn2H_13multiversx_sc13contract_base14proxy_obj_base12ProxyObjBase16extract_proxy_toB5_
FNDA:796,_RINvCs48qTgYy1n57_12lending_pool12contract_objINtNtNtNtCs1rODQd5oASQ_22multiversx_sc_scenario3api7impl_vh12vm_hooks_api10VMHooksApiNtNtBN_9debug_api15DebugApiBackendEECs8iyf5MSkCde_5tests
FNDA:48,_RINvXsu_Cs48qTgYy1n57_12lending_poolNtB6_15ContractBuilderNtNtNtCslPMlHj3qn2H_13multiversx_sc13contract_base17callable_contract23CallableContractBuilder16new_contract_objINtNtNtNtCs1rODQd5oASQ_22multiversx_sc_scenario3api7impl_vh12vm_hooks_api10VMHooksApiNtNtB2N_9debug_api15DebugApiBackendEECs8iyf5MSkCde_5tests
FNDA:2,_RNCNvYINtCs48qTgYy1n57_12lending_pool11ContractObjINtNtNtNtCs1rODQd5oASQ_22multiversx_sc_scenario3api7impl_vh12vm_hooks_api10VMHooksApiNtNtBR_9debug_api15DebugApiBackendEENtB7_11LendingPool12enable_vault0Cs8iyf5MSkCde_5tests
FNDA:3,_RNCNvYINtCs48qTgYy1n57_12lending_pool11ContractObjINtNtNtNtCs1rODQd5oASQ_22multiversx_sc_scenario3api7impl_vh12vm_hooks_api10VMHooksApiNtNtBR_9debug_api15DebugApiBackendEENtB7_11LendingPool13disable_vault0Cs8iyf5MSkCde_5tests
FNDA:1595,_RNvXst_Cs48qTgYy1n57_12lending_poolINtB5_11ContractObjINtNtNtNtCs1rODQd5oASQ_22multiversx_sc_scenario3api7impl_vh12vm_hooks_api10VMHooksApiNtNtBV_9debug_api15DebugApiBackendEENtNtNtCslPMlHj3qn2H_13multiversx_sc13contract_base17callable_contract16CallableContract4callCs8iyf5MSkCde_5tests
FNDA:16,_RNvYINtCs48qTgYy1n57_12lending_pool11ContractObjINtNtNtNtCs1rODQd5oASQ_22multiversx_sc_scenario3api7impl_vh12vm_hooks_api10VMHooksApiNtNtBP_9debug_api15DebugApiBackendEENtB5_11LendingPool10flash_loanCs8iyf5MSkCde_5tests
FNDA:2,_RNvYINtCs48qTgYy1n57_12lending_pool11ContractObjINtNtNtNtCs1rODQd5oASQ_22multiversx_sc_scenario3api7impl_vh12vm_hooks_api10VMHooksApiNtNtBP_9debug_api15DebugApiBackendEENtB5_11LendingPool12enable_vaultCs8iyf5MSkCde_5tests
FNDA:3,_RNvYINtCs48qTgYy1n57_12lending_pool11ContractObjINtNtNtNtCs1rODQd5oASQ_22multiversx_sc_scenario3api7impl_vh12vm_hooks_api10VMHooksApiNtNtBP_9debug_api15DebugApiBackendEENtB5_11LendingPool13disable_vaultCs8iyf5MSkCde_5tests
FNDA:2,_RNvYINtCs48qTgYy1n57_12lending_pool11ContractObjINtNtNtNtCs1rODQd5oASQ_22multiversx_sc_scenario3api7impl_vh12vm_hooks_api10VMHooksApiNtNtBP_9debug_api15DebugApiBackendEENtB5_11LendingPool14update_indexesCs8iyf5MSkCde_5tests
FNDA:2,_RNvYINtCs48qTgYy1n57_12lending_pool11ContractObjINtNtNtNtCs1rODQd5oASQ_22multiversx_sc_scenario3api7impl_vh12vm_hooks_api10VMHooksApiNtNtBP_9debug_api15DebugApiBackendEENtB5_11LendingPool24update_account_positionsCs8iyf5MSkCde_5tests
FNDA:0,_RNvYINtCs48qTgYy1n57_12lending_pool11ContractObjINtNtNtNtCs1rODQd5oASQ_22multiversx_sc_scenario3api7impl_vh12vm_hooks_api10VMHooksApiNtNtBP_9debug_api15DebugApiBackendEENtB5_11LendingPool25update_position_thresholdCs8iyf5MSkCde_5tests
FNDA:48,_RNvYINtCs48qTgYy1n57_12lending_pool11ContractObjINtNtNtNtCs1rODQd5oASQ_22multiversx_sc_scenario3api7impl_vh12vm_hooks_api10VMHooksApiNtNtBP_9debug_api15DebugApiBackendEENtB5_11LendingPool4initCs8iyf5MSkCde_5tests
FNDA:6,_RNvYINtCs48qTgYy1n57_12lending_pool11ContractObjINtNtNtNtCs1rODQd5oASQ_22multiversx_sc_scenario3api7impl_vh12vm_hooks_api10VMHooksApiNtNtBP_9debug_api15DebugApiBackendEENtB5_11LendingPool5repayCs8iyf5MSkCde_5tests
FNDA:40,_RNvYINtCs48qTgYy1n57_12lending_pool11ContractObjINtNtNtNtCs1rODQd5oASQ_22multiversx_sc_scenario3api7impl_vh12vm_hooks_api10VMHooksApiNtNtBP_9debug_api15DebugApiBackendEENtB5_11LendingPool6borrowCs8iyf5MSkCde_5tests
FNDA:87,_RNvYINtCs48qTgYy1n57_12lending_pool11ContractObjINtNtNtNtCs1rODQd5oASQ_22multiversx_sc_scenario3api7impl_vh12vm_hooks_api10VMHooksApiNtNtBP_9debug_api15DebugApiBackendEENtB5_11LendingPool6supplyCs8iyf5MSkCde_5tests
FNDA:7,_RNvYINtCs48qTgYy1n57_12lending_pool11ContractObjINtNtNtNtCs1rODQd5oASQ_22multiversx_sc_scenario3api7impl_vh12vm_hooks_api10VMHooksApiNtNtBP_9debug_api15DebugApiBackendEENtB5_11LendingPool8withdrawCs8iyf5MSkCde_5tests
FNDA:5,_RNvYINtCs48qTgYy1n57_12lending_pool11ContractObjINtNtNtNtCs1rODQd5oASQ_22multiversx_sc_scenario3api7impl_vh12vm_hooks_api10VMHooksApiNtNtBP_9debug_api15DebugApiBackendEENtB5_11LendingPool9liquidateCs8iyf5MSkCde_5tests
FNDA:6,_RNvYINtCs48qTgYy1n57_12lending_pool11ContractObjINtNtNtNtCs1rODQd5oASQ_22multiversx_sc_scenario3api7impl_vh12vm_hooks_api10VMHooksApiNtNtBP_9debug_api15DebugApiBackendEENtB5_16EndpointWrappers10call_repayCs8iyf5MSkCde_5tests
FNDA:40,_RNvYINtCs48qTgYy1n57_12lending_pool11ContractObjINtNtNtNtCs1rODQd5oASQ_22multiversx_sc_scenario3api7impl_vh12vm_hooks_api10VMHooksApiNtNtBP_9debug_api15DebugApiBackendEENtB5_16EndpointWrappers11call_borrowCs8iyf5MSkCde_5tests
FNDA:87,_RNvYINtCs48qTgYy1n57_12lending_pool11ContractObjINtNtNtNtCs1rODQd5oASQ_22multiversx_sc_scenario3api7impl_vh12vm_hooks_api10VMHooksApiNtNtBP_9debug_api15DebugApiBackendEENtB5_16EndpointWrappers11call_supplyCs8iyf5MSkCde_5tests
FNDA:0,_RNvYINtCs48qTgYy1n57_12lending_pool11ContractObjINtNtNtNtCs1rODQd5oASQ_22multiversx_sc_scenario3api7impl_vh12vm_hooks_api10VMHooksApiNtNtBP_9debug_api15DebugApiBackendEENtB5_16EndpointWrappers12call_upgradeCs8iyf5MSkCde_5tests
FNDA:7,_RNvYINtCs48qTgYy1n57_12lending_pool11ContractObjINtNtNtNtCs1rODQd5oASQ_22multiversx_sc_scenario3api7impl_vh12vm_hooks_api10VMHooksApiNtNtBP_9debug_api15DebugApiBackendEENtB5_16EndpointWrappers13call_withdrawCs8iyf5MSkCde_5tests
FNDA:5,_RNvYINtCs48qTgYy1n57_12lending_pool11ContractObjINtNtNtNtCs1rODQd5oASQ_22multiversx_sc_scenario3api7impl_vh12vm_hooks_api10VMHooksApiNtNtBP_9debug_api15DebugApiBackendEENtB5_16EndpointWrappers14call_liquidateCs8iyf5MSkCde_5tests
FNDA:16,_RNvYINtCs48qTgYy1n57_12lending_pool11ContractObjINtNtNtNtCs1rODQd5oASQ_22multiversx_sc_scenario3api7impl_vh12vm_hooks_api10VMHooksApiNtNtBP_9debug_api15DebugApiBackendEENtB5_16EndpointWrappers15call_flash_loanCs8iyf5MSkCde_5tests
FNDA:2,_RNvYINtCs48qTgYy1n57_12lending_pool11ContractObjINtNtNtNtCs1rODQd5oASQ_22multiversx_sc_scenario3api7impl_vh12vm_hooks_api10VMHooksApiNtNtBP_9debug_api15DebugApiBackendEENtB5_16EndpointWrappers17call_enable_vaultCs8iyf5MSkCde_5tests
FNDA:0,_RNvYINtCs48qTgYy1n57_12lending_pool11ContractObjINtNtNtNtCs1rODQd5oASQ_22multiversx_sc_scenario3api7impl_vh12vm_hooks_api10VMHooksApiNtNtBP_9debug_api15DebugApiBackendEENtB5_16EndpointWrappers17callback_selectorCs8iyf5MSkCde_5tests
FNDA:3,_RNvYINtCs48qTgYy1n57_12lending_pool11ContractObjINtNtNtNtCs1rODQd5oASQ_22multiversx_sc_scenario3api7impl_vh12vm_hooks_api10VMHooksApiNtNtBP_9debug_api15DebugApiBackendEENtB5_16EndpointWrappers18call_disable_vaultCs8iyf5MSkCde_5tests
FNDA:2,_RNvYINtCs48qTgYy1n57_12lending_pool11ContractObjINtNtNtNtCs1rODQd5oASQ_22multiversx_sc_scenario3api7impl_vh12vm_hooks_api10VMHooksApiNtNtBP_9debug_api15DebugApiBackendEENtB5_16EndpointWrappers19call_update_indexesCs8iyf5MSkCde_5tests
FNDA:2,_RNvYINtCs48qTgYy1n57_12lending_pool11ContractObjINtNtNtNtCs1rODQd5oASQ_22multiversx_sc_scenario3api7impl_vh12vm_hooks_api10VMHooksApiNtNtBP_9debug_api15DebugApiBackendEENtB5_16EndpointWrappers29call_update_account_positionsCs8iyf5MSkCde_5tests
FNDA:0,_RNvYINtCs48qTgYy1n57_12lending_pool11ContractObjINtNtNtNtCs1rODQd5oASQ_22multiversx_sc_scenario3api7impl_vh12vm_hooks_api10VMHooksApiNtNtBP_9debug_api15DebugApiBackendEENtB5_16EndpointWrappers30call_update_position_thresholdCs8iyf5MSkCde_5tests
FNDA:1595,_RNvYINtCs48qTgYy1n57_12lending_pool11ContractObjINtNtNtNtCs1rODQd5oASQ_22multiversx_sc_scenario3api7impl_vh12vm_hooks_api10VMHooksApiNtNtBP_9debug_api15DebugApiBackendEENtB5_16EndpointWrappers4callCs8iyf5MSkCde_5tests
FNDA:0,_RNvYINtCs48qTgYy1n57_12lending_pool11ContractObjINtNtNtNtCs1rODQd5oASQ_22multiversx_sc_scenario3api7impl_vh12vm_hooks_api10VMHooksApiNtNtBP_9debug_api15DebugApiBackendEENtB5_16EndpointWrappers8callbackCs8iyf5MSkCde_5tests
FNDA:48,_RNvYINtCs48qTgYy1n57_12lending_pool11ContractObjINtNtNtNtCs1rODQd5oASQ_22multiversx_sc_scenario3api7impl_vh12vm_hooks_api10VMHooksApiNtNtBP_9debug_api15DebugApiBackendEENtB5_16EndpointWrappers9call_initCs8iyf5MSkCde_5tests
FNF:15
FNH:14
DA:26,1610
DA:54,48
DA:55,48
DA:56,48
DA:57,48
DA:58,48
DA:88,87
DA:89,87
DA:90,87
DA:91,87
DA:92,87
DA:93,87
DA:94,87
DA:95,87
DA:96,87
DA:97,87
DA:98,87
DA:99,87
DA:100,87
DA:101,87
DA:102,87
DA:103,87
DA:104,87
DA:105,87
DA:106,87
DA:107,87
DA:108,87
DA:109,87
DA:110,170
DA:112,90
DA:114,86
DA:116,4
DA:119,90
DA:120,90
DA:121,90
DA:122,90
DA:123,90
DA:124,90
DA:125,90
DA:126,90
DA:127,90
DA:128,90
DA:129,90
DA:130,90
DA:131,90
DA:132,7
DA:136,83
DA:137,83
DA:138,83
DA:139,83
DA:140,83
DA:141,83
DA:142,83
DA:143,83
DA:144,83
DA:145,83
DA:146,83
DA:147,83
DA:148,83
DA:149,83
DA:150,83
DA:151,83
DA:152,83
DA:153,83
DA:154,83
DA:155,83
DA:156,83
DA:157,83
DA:158,83
DA:159,83
DA:160,83
DA:161,83
DA:162,83
DA:184,7
DA:185,7
DA:186,7
DA:187,7
DA:188,7
DA:189,7
DA:190,7
DA:191,7
DA:192,7
DA:193,7
DA:194,7
DA:196,14
DA:197,7
DA:198,7
DA:199,7
DA:200,7
DA:201,7
DA:202,7
DA:203,7
DA:204,7
DA:205,7
DA:206,7
DA:207,7
DA:208,7
DA:209,7
DA:210,7
DA:211,7
DA:212,7
DA:215,7
DA:216,7
DA:217,7
DA:218,7
DA:253,40
DA:254,40
DA:255,40
DA:256,40
DA:257,40
DA:258,40
DA:259,40
DA:260,40
DA:261,40
DA:262,40
DA:263,40
DA:264,40
DA:265,40
DA:266,40
DA:267,40
DA:268,40
DA:269,40
DA:270,40
DA:271,40
DA:272,40
DA:273,40
DA:274,40
DA:275,40
DA:276,40
DA:277,40
DA:278,71
DA:280,40
DA:281,40
DA:282,40
DA:283,40
DA:284,40
DA:285,40
DA:286,40
DA:287,40
DA:288,40
DA:289,40
DA:290,40
DA:291,40
DA:292,40
DA:293,40
DA:294,40
DA:295,40
DA:296,40
DA:297,40
DA:298,40
DA:299,40
DA:300,40
DA:301,40
DA:302,40
DA:303,40
DA:304,40
DA:305,40
DA:308,39
DA:309,39
DA:310,39
DA:311,39
DA:312,39
DA:313,39
DA:314,39
DA:315,39
DA:316,39
DA:317,39
DA:318,39
DA:319,39
DA:320,39
DA:321,39
DA:322,39
DA:323,39
DA:324,39
DA:325,39
DA:326,39
DA:327,39
DA:328,39
DA:329,39
DA:330,39
DA:331,39
DA:332,39
DA:333,39
DA:334,39
DA:335,39
DA:336,39
DA:337,39
DA:338,39
DA:339,39
DA:340,39
DA:341,39
DA:342,39
DA:343,39
DA:344,39
DA:345,39
DA:346,39
DA:347,39
DA:348,39
DA:349,39
DA:350,8
DA:351,8
DA:352,8
DA:353,8
DA:354,8
DA:355,8
DA:356,8
DA:357,8
DA:358,8
DA:359,8
DA:360,8
DA:362,0
DA:365,0
DA:366,0
DA:367,0
DA:368,0
DA:369,0
DA:370,0
DA:372,31
DA:376,31
DA:386,6
DA:387,6
DA:388,6
DA:389,6
DA:390,6
DA:391,6
DA:392,6
DA:393,6
DA:394,6
DA:395,6
DA:396,12
DA:397,6
DA:398,6
DA:399,6
DA:400,6
DA:401,6
DA:402,6
DA:403,6
DA:404,6
DA:405,6
DA:406,6
DA:407,6
DA:408,6
DA:409,6
DA:410,6
DA:411,6
DA:439,5
DA:440,5
DA:441,5
DA:442,5
DA:443,5
DA:444,5
DA:445,5
DA:446,5
DA:447,5
DA:448,5
DA:449,5
DA:450,5
DA:451,5
DA:452,5
DA:453,5
DA:454,5
DA:455,5
DA:484,16
DA:485,16
DA:486,16
DA:488,16
DA:489,16
DA:490,16
DA:491,16
DA:492,16
DA:493,16
DA:494,16
DA:495,16
DA:496,16
DA:497,0
DA:500,16
DA:501,16
DA:502,16
DA:503,16
DA:504,13
DA:507,3
DA:508,3
DA:509,3
DA:510,3
DA:511,3
DA:512,3
DA:513,3
DA:514,3
DA:515,3
DA:516,3
DA:517,3
DA:518,3
DA:519,3
DA:520,3
DA:521,3
DA:522,3
DA:523,3
DA:551,2
DA:552,2
DA:553,2
DA:554,2
DA:555,2
DA:556,2
DA:557,2
DA:576,3
DA:577,3
DA:578,3
DA:579,3
DA:580,3
DA:581,3
DA:582,3
DA:583,3
DA:585,3
DA:586,3
DA:587,3
DA:589,3
DA:590,2
DA:591,2
DA:592,2
DA:593,2
DA:594,2
DA:595,2
DA:596,2
DA:597,2
DA:598,2
DA:599,2
DA:600,2
DA:601,2
DA:602,2
DA:604,3
DA:605,3
DA:606,3
DA:607,3
DA:608,3
DA:609,3
DA:610,3
DA:611,3
DA:612,3
DA:613,3
DA:614,3
DA:615,3
DA:616,3
DA:617,3
DA:618,3
DA:619,3
DA:620,3
DA:621,3
DA:622,3
DA:623,3
DA:624,3
DA:625,3
DA:626,3
DA:627,3
DA:628,3
DA:629,3
DA:630,3
DA:631,3
DA:632,3
DA:633,3
DA:634,3
DA:635,3
DA:636,3
DA:637,3
DA:638,3
DA:640,3
DA:641,3
DA:642,3
DA:643,3
DA:644,3
DA:645,3
DA:646,3
DA:647,3
DA:648,3
DA:649,3
DA:650,3
DA:651,3
DA:669,2
DA:670,2
DA:671,2
DA:672,2
DA:673,2
DA:674,2
DA:675,2
DA:676,2
DA:677,2
DA:679,2
DA:680,2
DA:681,2
DA:682,2
DA:684,2
DA:685,2
DA:686,2
DA:687,2
DA:688,2
DA:689,2
DA:690,2
DA:691,2
DA:692,2
DA:693,2
DA:694,2
DA:695,2
DA:696,2
DA:698,2
DA:699,2
DA:700,2
DA:701,2
DA:702,2
DA:703,2
DA:704,2
DA:705,2
DA:706,2
DA:707,2
DA:708,2
DA:709,2
DA:710,2
DA:711,2
DA:712,2
DA:713,2
DA:714,2
DA:715,2
DA:716,2
DA:717,2
DA:718,2
DA:719,2
DA:720,2
DA:721,2
DA:722,2
DA:723,2
DA:724,2
DA:725,2
DA:726,2
DA:727,0
DA:730,2
DA:731,2
DA:732,2
DA:733,2
DA:734,2
DA:735,2
DA:736,2
DA:737,2
DA:738,2
DA:739,2
DA:740,2
DA:741,2
DA:742,2
DA:743,2
DA:744,2
DA:745,2
DA:746,2
DA:747,2
DA:748,2
DA:751,2
DA:752,2
DA:753,2
DA:754,2
DA:755,2
DA:756,2
DA:757,2
DA:758,2
DA:759,2
DA:760,2
DA:761,2
DA:762,2
DA:782,0
DA:783,0
DA:784,0
DA:785,0
DA:786,0
DA:787,0
DA:788,0
DA:789,0
DA:790,0
DA:791,0
DA:792,0
DA:794,0
DA:796,0
DA:797,0
DA:798,0
DA:799,0
DA:800,0
DA:802,0
DA:805,0
DA:806,0
DA:808,0
DA:812,0
DA:814,0
DA:815,0
DA:817,0
DA:820,0
DA:821,0
DA:822,0
DA:823,0
DA:824,0
DA:825,0
DA:827,0
DA:828,0
DA:829,0
DA:830,0
DA:831,0
DA:832,0
DA:833,0
DA:834,0
DA:835,0
DA:836,0
DA:838,0
DA:839,0
DA:840,0
DA:841,0
DA:842,0
DA:843,0
DA:844,0
DA:845,0
DA:859,2
DA:860,2
DA:861,4
DA:862,2
DA:863,2
DA:864,2
DA:865,2
DA:866,2
DA:867,2
DA:868,2
DA:869,2
BRF:0
BRH:0
LF:527
LH:469
end_of_record
SF:/Users/mihaieremia/GitHub/rs-lending/lending_pool/src/multiply.rs
FN:28,_RNvYpNtNtCshiqmisuHlyH_12lending_pool8multiply14MultiplyModule8multiplyB7_
FN:11,_RNvYpNtNtCshiqmisuHlyH_12lending_pool8multiply16EndpointWrappers13call_multiplyB7_
FN:11,_RNvYpNtNtCshiqmisuHlyH_12lending_pool8multiply16EndpointWrappers4callB7_
FN:11,_RNvYpNtNtCshiqmisuHlyH_12lending_pool8multiply16EndpointWrappers17callback_selectorB7_
FN:11,_RNvYpNtNtCshiqmisuHlyH_12lending_pool8multiply16EndpointWrappers8callbackB7_
FN:11,_RNvXs1_NtCshiqmisuHlyH_12lending_pool8multiplyNtB5_11AbiProviderNtNtNtCslPMlHj3qn2H_13multiversx_sc13contract_base21contract_abi_provider19ContractAbiProvider3abi
FN:11,_RNvXININtCshiqmisuHlyH_12lending_pool8multiplysj_0pEINtB5_11ContractObjpENtNtNtCslPMlHj3qn2H_13multiversx_sc13contract_base17callable_contract16CallableContract4callB7_
FN:11,_RINvNtCshiqmisuHlyH_12lending_pool8multiply12contract_objpEB4_
FN:11,_RINvXsk_NtCshiqmisuHlyH_12lending_pool8multiplyNtB6_15ContractBuilderNtNtNtCslPMlHj3qn2H_13multiversx_sc13contract_base17callable_contract23CallableContractBuilder16new_contract_objpEB8_
FN:11,_RINvNtNtCshiqmisuHlyH_12lending_pool8multiply19___wasm__endpoints__8multiplypEB6_
FN:11,_RINvYpNtNtCshiqmisuHlyH_12lending_pool8multiply10ProxyTrait8multiplypppEB8_
FNDA:0,_RNvYpNtNtCshiqmisuHlyH_12lending_pool8multiply14MultiplyModule8multiplyB7_
FNDA:0,_RNvYpNtNtCshiqmisuHlyH_12lending_pool8multiply16EndpointWrappers13call_multiplyB7_
FNDA:0,_RNvYpNtNtCshiqmisuHlyH_12lending_pool8multiply16EndpointWrappers4callB7_
FNDA:0,_RNvYpNtNtCshiqmisuHlyH_12lending_pool8multiply16EndpointWrappers17callback_selectorB7_
FNDA:0,_RNvYpNtNtCshiqmisuHlyH_12lending_pool8multiply16EndpointWrappers8callbackB7_
FNDA:0,_RNvXs1_NtCshiqmisuHlyH_12lending_pool8multiplyNtB5_11AbiProviderNtNtNtCslPMlHj3qn2H_13multiversx_sc13contract_base21contract_abi_provider19ContractAbiProvider3abi
FNDA:0,_RNvXININtCshiqmisuHlyH_12lending_pool8multiplysj_0pEINtB5_11ContractObjpENtNtNtCslPMlHj3qn2H_13multiversx_sc13contract_base17callable_contract16CallableContract4callB7_
FNDA:0,_RINvNtCshiqmisuHlyH_12lending_pool8multiply12contract_objpEB4_
FNDA:0,_RINvXsk_NtCshiqmisuHlyH_12lending_pool8multiplyNtB6_15ContractBuilderNtNtNtCslPMlHj3qn2H_13multiversx_sc13contract_base17callable_contract23CallableContractBuilder16new_contract_objpEB8_
FNDA:0,_RINvNtNtCshiqmisuHlyH_12lending_pool8multiply19___wasm__endpoints__8multiplypEB6_
FNDA:0,_RINvYpNtNtCshiqmisuHlyH_12lending_pool8multiply10ProxyTrait8multiplypppEB8_
FNF:2
FNH:0
DA:11,0
DA:28,0
DA:29,0
DA:30,0
DA:31,0
DA:32,0
DA:33,0
DA:34,0
DA:35,0
DA:36,0
DA:37,0
DA:38,0
DA:39,0
DA:40,0
DA:41,0
DA:42,0
DA:43,0
DA:44,0
DA:45,0
DA:46,0
DA:47,0
DA:48,0
DA:49,0
DA:50,0
DA:51,0
DA:52,0
DA:53,0
DA:54,0
DA:55,0
DA:56,0
DA:57,0
DA:59,0
DA:60,0
DA:61,0
DA:62,0
DA:63,0
DA:64,0
DA:65,0
DA:66,0
DA:67,0
DA:68,0
DA:69,0
DA:70,0
DA:71,0
DA:72,0
DA:73,0
DA:74,0
DA:75,0
DA:76,0
DA:77,0
DA:78,0
DA:79,0
DA:80,0
DA:83,0
DA:85,0
DA:86,0
DA:87,0
DA:88,0
DA:90,0
DA:91,0
DA:92,0
DA:93,0
DA:95,0
DA:96,0
DA:97,0
DA:98,0
DA:99,0
DA:100,0
DA:101,0
DA:102,0
DA:103,0
DA:104,0
DA:105,0
DA:106,0
DA:107,0
DA:108,0
DA:109,0
DA:110,0
DA:111,0
DA:112,0
DA:113,0
DA:114,0
DA:115,0
DA:116,0
DA:117,0
DA:118,0
DA:119,0
DA:120,0
DA:121,0
DA:122,0
DA:123,0
DA:124,0
DA:125,0
DA:126,0
DA:127,0
DA:128,0
DA:129,0
DA:130,0
DA:131,0
DA:132,0
DA:133,0
DA:134,0
DA:135,0
DA:136,0
DA:137,0
DA:138,0
DA:139,0
DA:140,0
DA:141,0
DA:142,0
DA:143,0
DA:144,0
DA:145,0
DA:146,0
DA:147,0
DA:148,0
DA:149,0
DA:150,0
DA:151,0
DA:152,0
DA:153,0
DA:154,0
DA:155,0
DA:156,0
DA:157,0
DA:158,0
DA:159,0
DA:160,0
DA:161,0
DA:162,0
DA:163,0
DA:164,0
DA:165,0
DA:166,0
DA:167,0
DA:168,0
DA:169,0
DA:172,0
DA:173,0
DA:174,0
DA:175,0
DA:176,0
DA:177,0
DA:178,0
DA:179,0
DA:180,0
DA:181,0
DA:182,0
DA:183,0
DA:184,0
DA:185,0
DA:186,0
DA:187,0
DA:188,0
DA:189,0
DA:190,0
DA:191,0
BRF:0
BRH:0
LF:157
LH:0
end_of_record
SF:/Users/mihaieremia/GitHub/rs-lending/lending_pool/src/oracle.rs
FN:29,_RNvYpNtNtCshiqmisuHlyH_12lending_pool6oracle12OracleModule24compute_amount_in_tokensB7_
FN:45,_RNvYpNtNtCshiqmisuHlyH_12lending_pool6oracle12OracleModule31get_token_amount_in_dollars_rawB7_
FN:62,_RNvYpNtNtCshiqmisuHlyH_12lending_pool6oracle12OracleModule24get_token_amount_in_egldB7_
FN:75,_RNvYpNtNtCshiqmisuHlyH_12lending_pool6oracle12OracleModule28get_token_amount_in_egld_rawB7_
FN:93,_RNvYpNtNtCshiqmisuHlyH_12lending_pool6oracle12OracleModule15get_token_priceB7_
FN:140,_RNvYpNtNtCshiqmisuHlyH_12lending_pool6oracle12OracleModule15find_price_feedB7_
FN:155,_RNvYpNtNtCshiqmisuHlyH_12lending_pool6oracle12OracleModule17get_safe_lp_priceB7_
FN:196,_RNvYpNtNtCshiqmisuHlyH_12lending_pool6oracle12OracleModule17get_derived_priceB7_
FN:208,_RNvYpNtNtCshiqmisuHlyH_12lending_pool6oracle12OracleModule23get_legld_derived_priceB7_
FN:223,_RNvYpNtNtCshiqmisuHlyH_12lending_pool6oracle12OracleModule23get_xegld_derived_priceB7_
FN:239,_RNvYpNtNtCshiqmisuHlyH_12lending_pool6oracle12OracleModule24get_lxoxno_derived_priceB7_
FN:254,_RNvYpNtNtCshiqmisuHlyH_12lending_pool6oracle12OracleModule14get_pair_stateB7_
FN:268,_RNvYpNtNtCshiqmisuHlyH_12lending_pool6oracle12OracleModule14get_safe_priceB7_
FN:310,_RNvYpNtNtCshiqmisuHlyH_12lending_pool6oracle12OracleModule24get_normal_price_in_egldB7_
FN:375,_RNvYpNtNtCshiqmisuHlyH_12lending_pool6oracle12OracleModule39get_token_price_in_egld_from_aggregatorB7_
FN:394,_RNvYpNtNtCshiqmisuHlyH_12lending_pool6oracle12OracleModule16is_within_anchorB7_
FN:399,_RNvYpNtNtCshiqmisuHlyH_12lending_pool6oracle12OracleModule17create_price_feedB7_
FN:407,_RNvYpNtNtCshiqmisuHlyH_12lending_pool6oracle12OracleModule16get_token_tickerB7_
FN:426,_RNvYpNtNtCshiqmisuHlyH_12lending_pool6oracle12OracleModule12get_lp_priceB7_
FN:468,_RNvYpNtNtCshiqmisuHlyH_12lending_pool6oracle12OracleModule25get_aggregator_price_feedB7_
FN:19,_RNvXININtCshiqmisuHlyH_12lending_pool6oracle0pEpNtB5_12OracleModule16safe_price_proxyB7_
FN:19,_RNvYpNtNtCshiqmisuHlyH_12lending_pool6oracle16EndpointWrappers4callB7_
FN:19,_RNvYpNtNtCshiqmisuHlyH_12lending_pool6oracle16EndpointWrappers17callback_selectorB7_
FN:19,_RNvYpNtNtCshiqmisuHlyH_12lending_pool6oracle16EndpointWrappers8callbackB7_
FN:19,_RNvXs1_NtCshiqmisuHlyH_12lending_pool6oracleNtB5_11AbiProviderNtNtNtCslPMlHj3qn2H_13multiversx_sc13contract_base21contract_abi_provider19ContractAbiProvider3abi
FN:19,_RNvXININtCshiqmisuHlyH_12lending_pool6oracles7_0pEINtB5_11ContractObjpENtNtNtCslPMlHj3qn2H_13multiversx_sc13contract_base17callable_contract16CallableContract4callB7_
FN:19,_RINvNtCshiqmisuHlyH_12lending_pool6oracle12contract_objpEB4_
FN:19,_RINvXs8_NtCshiqmisuHlyH_12lending_pool6oracleNtB6_15ContractBuilderNtNtNtCslPMlHj3qn2H_13multiversx_sc13contract_base17callable_contract23CallableContractBuilder16new_contract_objpEB8_
FN:549,_RINvYpNtNtNtCshiqmisuHlyH_12lending_pool6oracle16safe_price_proxy10ProxyTrait34get_safe_price_by_timestamp_offsetpppEBa_
FN:549,_RINvYpNtNtNtCshiqmisuHlyH_12lending_pool6oracle16safe_price_proxy10ProxyTrait44get_lp_tokens_safe_price_by_timestamp_offsetpppEBa_
FN:549,_RNvXININtNtCshiqmisuHlyH_12lending_pool6oracle16safe_price_proxy0pEINtB5_5ProxypENtNtNtCslPMlHj3qn2H_13multiversx_sc13contract_base14proxy_obj_base12ProxyObjBase19extract_opt_addressB9_
FN:549,_RNvXININtNtCshiqmisuHlyH_12lending_pool6oracle16safe_price_proxy0pEINtB5_5ProxypENtNtNtCslPMlHj3qn2H_13multiversx_sc13contract_base14proxy_obj_base12ProxyObjBase16extract_proxy_toB9_
FN:549,_RNvXININtNtCshiqmisuHlyH_12lending_pool6oracle16safe_price_proxys_0pEINtB5_5ProxypENtNtNtCslPMlHj3qn2H_13multiversx_sc13contract_base14proxy_obj_base11ProxyObjNew13new_proxy_objB9_
FN:549,_RNvXININtNtCshiqmisuHlyH_12lending_pool6oracle16safe_price_proxys_0pEINtB5_5ProxypENtNtNtCslPMlHj3qn2H_13multiversx_sc13contract_base14proxy_obj_base11ProxyObjNew8contractB9_
FN:549,_RNvXININtNtCshiqmisuHlyH_12lending_pool6oracle16safe_price_proxys0_0pEINtB5_7ProxyTopENtNtNtCslPMlHj3qn2H_13multiversx_sc13contract_base14proxy_obj_base12ProxyObjBase19extract_opt_addressB9_
FN:549,_RNvXININtNtCshiqmisuHlyH_12lending_pool6oracle16safe_price_proxys0_0pEINtB5_7ProxyTopENtNtNtCslPMlHj3qn2H_13multiversx_sc13contract_base14proxy_obj_base12ProxyObjBase15extract_addressB9_
FN:549,_RNvXININtNtCshiqmisuHlyH_12lending_pool6oracle16safe_price_proxys0_0pEINtB5_7ProxyTopENtNtNtCslPMlHj3qn2H_13multiversx_sc13contract_base14proxy_obj_base12ProxyObjBase16extract_proxy_toB9_
FN:19,_RNvXNtCs48qTgYy1n57_12lending_pool6oracleINtB4_11ContractObjINtNtNtNtCs1rODQd5oASQ_22multiversx_sc_scenario3api7impl_vh12vm_hooks_api10VMHooksApiNtNtB11_9debug_api15DebugApiBackendEENtB2_12OracleModule16safe_price_proxyCs8iyf5MSkCde_5tests
FN:426,_RNvYINtCs48qTgYy1n57_12lending_pool11ContractObjINtNtNtNtCs1rODQd5oASQ_22multiversx_sc_scenario3api7impl_vh12vm_hooks_api10VMHooksApiNtNtBP_9debug_api15DebugApiBackendEENtNtB5_6oracle12OracleModule12get_lp_priceCs8iyf5MSkCde_5tests
FN:254,_RNvYINtCs48qTgYy1n57_12lending_pool11ContractObjINtNtNtNtCs1rODQd5oASQ_22multiversx_sc_scenario3api7impl_vh12vm_hooks_api10VMHooksApiNtNtBP_9debug_api15DebugApiBackendEENtNtB5_6oracle12OracleModule14get_pair_stateCs8iyf5MSkCde_5tests
FN:268,_RNvYINtCs48qTgYy1n57_12lending_pool11ContractObjINtNtNtNtCs1rODQd5oASQ_22multiversx_sc_scenario3api7impl_vh12vm_hooks_api10VMHooksApiNtNtBP_9debug_api15DebugApiBackendEENtNtB5_6oracle12OracleModule14get_safe_priceCs8iyf5MSkCde_5tests
FN:140,_RNvYINtCs48qTgYy1n57_12lending_pool11ContractObjINtNtNtNtCs1rODQd5oASQ_22multiversx_sc_scenario3api7impl_vh12vm_hooks_api10VMHooksApiNtNtBP_9debug_api15DebugApiBackendEENtNtB5_6oracle12OracleModule15find_price_feedCs8iyf5MSkCde_5tests
FN:93,_RNvYINtCs48qTgYy1n57_12lending_pool11ContractObjINtNtNtNtCs1rODQd5oASQ_22multiversx_sc_scenario3api7impl_vh12vm_hooks_api10VMHooksApiNtNtBP_9debug_api15DebugApiBackendEENtNtB5_6oracle12OracleModule15get_token_priceCs8iyf5MSkCde_5tests
FN:407,_RNvYINtCs48qTgYy1n57_12lending_pool11ContractObjINtNtNtNtCs1rODQd5oASQ_22multiversx_sc_scenario3api7impl_vh12vm_hooks_api10VMHooksApiNtNtBP_9debug_api15DebugApiBackendEENtNtB5_6oracle12OracleModule16get_token_tickerCs8iyf5MSkCde_5tests
FN:394,_RNvYINtCs48qTgYy1n57_12lending_pool11ContractObjINtNtNtNtCs1rODQd5oASQ_22multiversx_sc_scenario3api7impl_vh12vm_hooks_api10VMHooksApiNtNtBP_9debug_api15DebugApiBackendEENtNtB5_6oracle12OracleModule16is_within_anchorCs8iyf5MSkCde_5tests
FN:399,_RNvYINtCs48qTgYy1n57_12lending_pool11ContractObjINtNtNtNtCs1rODQd5oASQ_22multiversx_sc_scenario3api7impl_vh12vm_hooks_api10VMHooksApiNtNtBP_9debug_api15DebugApiBackendEENtNtB5_6oracle12OracleModule17create_price_feedCs8iyf5MSkCde_5tests
FN:196,_RNvYINtCs48qTgYy1n57_12lending_pool11ContractObjINtNtNtNtCs1rODQd5oASQ_22multiversx_sc_scenario3api7impl_vh12vm_hooks_api10VMHooksApiNtNtBP_9debug_api15DebugApiBackendEENtNtB5_6oracle12OracleModule17get_derived_priceCs8iyf5MSkCde_5tests
FN:155,_RNvYINtCs48qTgYy1n57_12lending_pool11ContractObjINtNtNtNtCs1rODQd5oASQ_22multiversx_sc_scenario3api7impl_vh12vm_hooks_api10VMHooksApiNtNtBP_9debug_api15DebugApiBackendEENtNtB5_6oracle12OracleModule17get_safe_lp_priceCs8iyf5MSkCde_5tests
FN:208,_RNvYINtCs48qTgYy1n57_12lending_pool11ContractObjINtNtNtNtCs1rODQd5oASQ_22multiversx_sc_scenario3api7impl_vh12vm_hooks_api10VMHooksApiNtNtBP_9debug_api15DebugApiBackendEENtNtB5_6oracle12OracleModule23get_legld_derived_priceCs8iyf5MSkCde_5tests
FN:223,_RNvYINtCs48qTgYy1n57_12lending_pool11ContractObjINtNtNtNtCs1rODQd5oASQ_22multiversx_sc_scenario3api7impl_vh12vm_hooks_api10VMHooksApiNtNtBP_9debug_api15DebugApiBackendEENtNtB5_6oracle12OracleModule23get_xegld_derived_priceCs8iyf5MSkCde_5tests
FN:29,_RNvYINtCs48qTgYy1n57_12lending_pool11ContractObjINtNtNtNtCs1rODQd5oASQ_22multiversx_sc_scenario3api7impl_vh12vm_hooks_api10VMHooksApiNtNtBP_9debug_api15DebugApiBackendEENtNtB5_6oracle12OracleModule24compute_amount_in_tokensCs8iyf5MSkCde_5tests
FN:239,_RNvYINtCs48qTgYy1n57_12lending_pool11ContractObjINtNtNtNtCs1rODQd5oASQ_22multiversx_sc_scenario3api7impl_vh12vm_hooks_api10VMHooksApiNtNtBP_9debug_api15DebugApiBackendEENtNtB5_6oracle12OracleModule24get_lxoxno_derived_priceCs8iyf5MSkCde_5tests
FN:310,_RNvYINtCs48qTgYy1n57_12lending_pool11ContractObjINtNtNtNtCs1rODQd5oASQ_22multiversx_sc_scenario3api7impl_vh12vm_hooks_api10VMHooksApiNtNtBP_9debug_api15DebugApiBackendEENtNtB5_6oracle12OracleModule24get_normal_price_in_egldCs8iyf5MSkCde_5tests
FN:62,_RNvYINtCs48qTgYy1n57_12lending_pool11ContractObjINtNtNtNtCs1rODQd5oASQ_22multiversx_sc_scenario3api7impl_vh12vm_hooks_api10VMHooksApiNtNtBP_9debug_api15DebugApiBackendEENtNtB5_6oracle12OracleModule24get_token_amount_in_egldCs8iyf5MSkCde_5tests
FN:468,_RNvYINtCs48qTgYy1n57_12lending_pool11ContractObjINtNtNtNtCs1rODQd5oASQ_22multiversx_sc_scenario3api7impl_vh12vm_hooks_api10VMHooksApiNtNtBP_9debug_api15DebugApiBackendEENtNtB5_6oracle12OracleModule25get_aggregator_price_feedCs8iyf5MSkCde_5tests
FN:75,_RNvYINtCs48qTgYy1n57_12lending_pool11ContractObjINtNtNtNtCs1rODQd5oASQ_22multiversx_sc_scenario3api7impl_vh12vm_hooks_api10VMHooksApiNtNtBP_9debug_api15DebugApiBackendEENtNtB5_6oracle12OracleModule28get_token_amount_in_egld_rawCs8iyf5MSkCde_5tests
FN:45,_RNvYINtCs48qTgYy1n57_12lending_pool11ContractObjINtNtNtNtCs1rODQd5oASQ_22multiversx_sc_scenario3api7impl_vh12vm_hooks_api10VMHooksApiNtNtBP_9debug_api15DebugApiBackendEENtNtB5_6oracle12OracleModule31get_token_amount_in_dollars_rawCs8iyf5MSkCde_5tests
FN:375,_RNvYINtCs48qTgYy1n57_12lending_pool11ContractObjINtNtNtNtCs1rODQd5oASQ_22multiversx_sc_scenario3api7impl_vh12vm_hooks_api10VMHooksApiNtNtBP_9debug_api15DebugApiBackendEENtNtB5_6oracle12OracleModule39get_token_price_in_egld_from_aggregatorCs8iyf5MSkCde_5tests
FN:19,_RNvYINtCs48qTgYy1n57_12lending_pool11ContractObjINtNtNtNtCs1rODQd5oASQ_22multiversx_sc_scenario3api7impl_vh12vm_hooks_api10VMHooksApiNtNtBP_9debug_api15DebugApiBackendEENtNtB5_6oracle16EndpointWrappers17callback_selectorCs8iyf5MSkCde_5tests
FN:19,_RNvYINtCs48qTgYy1n57_12lending_pool11ContractObjINtNtNtNtCs1rODQd5oASQ_22multiversx_sc_scenario3api7impl_vh12vm_hooks_api10VMHooksApiNtNtBP_9debug_api15DebugApiBackendEENtNtB5_6oracle16EndpointWrappers4callCs8iyf5MSkCde_5tests
FN:19,_RNvYINtCs48qTgYy1n57_12lending_pool11ContractObjINtNtNtNtCs1rODQd5oASQ_22multiversx_sc_scenario3api7impl_vh12vm_hooks_api10VMHooksApiNtNtBP_9debug_api15DebugApiBackendEENtNtB5_6oracle16EndpointWrappers8callbackCs8iyf5MSkCde_5tests
FN:549,_RINvYINtNtNtCs48qTgYy1n57_12lending_pool6oracle16safe_price_proxy7ProxyToINtNtNtNtCs1rODQd5oASQ_22multiversx_sc_scenario3api7impl_vh12vm_hooks_api10VMHooksApiNtNtB1e_9debug_api15DebugApiBackendEENtB6_10ProxyTrait34get_safe_price_by_timestamp_offsetRINtNtNtNtNtCslPMlHj3qn2H_13multiversx_sc5types7managed7wrapped15managed_address14ManagedAddressB19_EyINtNtB44_18esdt_token_payment16EsdtTokenPaymentB19_EECs8iyf5MSkCde_5tests
FN:549,_RINvYINtNtNtCs48qTgYy1n57_12lending_pool6oracle16safe_price_proxy7ProxyToINtNtNtNtCs1rODQd5oASQ_22multiversx_sc_scenario3api7impl_vh12vm_hooks_api10VMHooksApiNtNtB1e_9debug_api15DebugApiBackendEENtB6_10ProxyTrait44get_lp_tokens_safe_price_by_timestamp_offsetINtNtNtNtNtCslPMlHj3qn2H_13multiversx_sc5types7managed7wrapped15managed_address14ManagedAddressB19_EyRINtNtB4d_8big_uint7BigUintB19_EECs8iyf5MSkCde_5tests
FN:549,_RNvXs0_NtNtCs48qTgYy1n57_12lending_pool6oracle16safe_price_proxyINtB5_7ProxyToINtNtNtNtCs1rODQd5oASQ_22multiversx_sc_scenario3api7impl_vh12vm_hooks_api10VMHooksApiNtNtB1j_9debug_api15DebugApiBackendEENtNtNtCslPMlHj3qn2H_13multiversx_sc13contract_base14proxy_obj_base12ProxyObjBase15extract_addressCs8iyf5MSkCde_5tests
FN:549,_RNvXs0_NtNtCs48qTgYy1n57_12lending_pool6oracle16safe_price_proxyINtB5_7ProxyToINtNtNtNtCs1rODQd5oASQ_22multiversx_sc_scenario3api7impl_vh12vm_hooks_api10VMHooksApiNtNtB1j_9debug_api15DebugApiBackendEENtNtNtCslPMlHj3qn2H_13multiversx_sc13contract_base14proxy_obj_base12ProxyObjBase16extract_proxy_toCs8iyf5MSkCde_5tests
FN:549,_RNvXs_NtNtCs48qTgYy1n57_12lending_pool6oracle16safe_price_proxyINtB4_5ProxyINtNtNtNtCs1rODQd5oASQ_22multiversx_sc_scenario3api7impl_vh12vm_hooks_api10VMHooksApiNtNtB1g_9debug_api15DebugApiBackendEENtNtNtCslPMlHj3qn2H_13multiversx_sc13contract_base14proxy_obj_base11ProxyObjNew13new_proxy_objCs8iyf5MSkCde_5tests
FN:549,_RNvXs_NtNtCs48qTgYy1n57_12lending_pool6oracle16safe_price_proxyINtB4_5ProxyINtNtNtNtCs1rODQd5oASQ_22multiversx_sc_scenario3api7impl_vh12vm_hooks_api10VMHooksApiNtNtB1g_9debug_api15DebugApiBackendEENtNtNtCslPMlHj3qn2H_13multiversx_sc13contract_base14proxy_obj_base11ProxyObjNew8contractCs8iyf5MSkCde_5tests
FNDA:0,_RNvYpNtNtCshiqmisuHlyH_12lending_pool6oracle12OracleModule24compute_amount_in_tokensB7_
FNDA:0,_RNvYpNtNtCshiqmisuHlyH_12lending_pool6oracle12OracleModule31get_token_amount_in_dollars_rawB7_
FNDA:0,_RNvYpNtNtCshiqmisuHlyH_12lending_pool6oracle12OracleModule24get_token_amount_in_egldB7_
FNDA:0,_RNvYpNtNtCshiqmisuHlyH_12lending_pool6oracle12OracleModule28get_token_amount_in_egld_rawB7_
FNDA:0,_RNvYpNtNtCshiqmisuHlyH_12lending_pool6oracle12OracleModule15get_token_priceB7_
FNDA:0,_RNvYpNtNtCshiqmisuHlyH_12lending_pool6oracle12OracleModule15find_price_feedB7_
FNDA:0,_RNvYpNtNtCshiqmisuHlyH_12lending_pool6oracle12OracleModule17get_safe_lp_priceB7_
FNDA:0,_RNvYpNtNtCshiqmisuHlyH_12lending_pool6oracle12OracleModule17get_derived_priceB7_
FNDA:0,_RNvYpNtNtCshiqmisuHlyH_12lending_pool6oracle12OracleModule23get_legld_derived_priceB7_
FNDA:0,_RNvYpNtNtCshiqmisuHlyH_12lending_pool6oracle12OracleModule23get_xegld_derived_priceB7_
FNDA:0,_RNvYpNtNtCshiqmisuHlyH_12lending_pool6oracle12OracleModule24get_lxoxno_derived_priceB7_
FNDA:0,_RNvYpNtNtCshiqmisuHlyH_12lending_pool6oracle12OracleModule14get_pair_stateB7_
FNDA:0,_RNvYpNtNtCshiqmisuHlyH_12lending_pool6oracle12OracleModule14get_safe_priceB7_
FNDA:0,_RNvYpNtNtCshiqmisuHlyH_12lending_pool6oracle12OracleModule24get_normal_price_in_egldB7_
FNDA:0,_RNvYpNtNtCshiqmisuHlyH_12lending_pool6oracle12OracleModule39get_token_price_in_egld_from_aggregatorB7_
FNDA:0,_RNvYpNtNtCshiqmisuHlyH_12lending_pool6oracle12OracleModule16is_within_anchorB7_
FNDA:0,_RNvYpNtNtCshiqmisuHlyH_12lending_pool6oracle12OracleModule17create_price_feedB7_
FNDA:0,_RNvYpNtNtCshiqmisuHlyH_12lending_pool6oracle12OracleModule16get_token_tickerB7_
FNDA:0,_RNvYpNtNtCshiqmisuHlyH_12lending_pool6oracle12OracleModule12get_lp_priceB7_
FNDA:0,_RNvYpNtNtCshiqmisuHlyH_12lending_pool6oracle12OracleModule25get_aggregator_price_feedB7_
FNDA:0,_RNvXININtCshiqmisuHlyH_12lending_pool6oracle0pEpNtB5_12OracleModule16safe_price_proxyB7_
FNDA:0,_RNvYpNtNtCshiqmisuHlyH_12lending_pool6oracle16EndpointWrappers4callB7_
FNDA:0,_RNvYpNtNtCshiqmisuHlyH_12lending_pool6oracle16EndpointWrappers17callback_selectorB7_
FNDA:0,_RNvYpNtNtCshiqmisuHlyH_12lending_pool6oracle16EndpointWrappers8callbackB7_
FNDA:0,_RNvXs1_NtCshiqmisuHlyH_12lending_pool6oracleNtB5_11AbiProviderNtNtNtCslPMlHj3qn2H_13multiversx_sc13contract_base21contract_abi_provider19ContractAbiProvider3abi
FNDA:0,_RNvXININtCshiqmisuHlyH_12lending_pool6oracles7_0pEINtB5_11ContractObjpENtNtNtCslPMlHj3qn2H_13multiversx_sc13contract_base17callable_contract16CallableContract4callB7_
FNDA:0,_RINvNtCshiqmisuHlyH_12lending_pool6oracle12contract_objpEB4_
FNDA:0,_RINvXs8_NtCshiqmisuHlyH_12lending_pool6oracleNtB6_15ContractBuilderNtNtNtCslPMlHj3qn2H_13multiversx_sc13contract_base17callable_contract23CallableContractBuilder16new_contract_objpEB8_
FNDA:0,_RINvYpNtNtNtCshiqmisuHlyH_12lending_pool6oracle16safe_price_proxy10ProxyTrait34get_safe_price_by_timestamp_offsetpppEBa_
FNDA:0,_RINvYpNtNtNtCshiqmisuHlyH_12lending_pool6oracle16safe_price_proxy10ProxyTrait44get_lp_tokens_safe_price_by_timestamp_offsetpppEBa_
FNDA:0,_RNvXININtNtCshiqmisuHlyH_12lending_pool6oracle16safe_price_proxy0pEINtB5_5ProxypENtNtNtCslPMlHj3qn2H_13multiversx_sc13contract_base14proxy_obj_base12ProxyObjBase19extract_opt_addressB9_
FNDA:0,_RNvXININtNtCshiqmisuHlyH_12lending_pool6oracle16safe_price_proxy0pEINtB5_5ProxypENtNtNtCslPMlHj3qn2H_13multiversx_sc13contract_base14proxy_obj_base12ProxyObjBase16extract_proxy_toB9_
FNDA:0,_RNvXININtNtCshiqmisuHlyH_12lending_pool6oracle16safe_price_proxys_0pEINtB5_5ProxypENtNtNtCslPMlHj3qn2H_13multiversx_sc13contract_base14proxy_obj_base11ProxyObjNew13new_proxy_objB9_
FNDA:0,_RNvXININtNtCshiqmisuHlyH_12lending_pool6oracle16safe_price_proxys_0pEINtB5_5ProxypENtNtNtCslPMlHj3qn2H_13multiversx_sc13contract_base14proxy_obj_base11ProxyObjNew8contractB9_
FNDA:0,_RNvXININtNtCshiqmisuHlyH_12lending_pool6oracle16safe_price_proxys0_0pEINtB5_7ProxyTopENtNtNtCslPMlHj3qn2H_13multiversx_sc13contract_base14proxy_obj_base12ProxyObjBase19extract_opt_addressB9_
FNDA:0,_RNvXININtNtCshiqmisuHlyH_12lending_pool6oracle16safe_price_proxys0_0pEINtB5_7ProxyTopENtNtNtCslPMlHj3qn2H_13multiversx_sc13contract_base14proxy_obj_base12ProxyObjBase15extract_addressB9_
FNDA:0,_RNvXININtNtCshiqmisuHlyH_12lending_pool6oracle16safe_price_proxys0_0pEINtB5_7ProxyTopENtNtNtCslPMlHj3qn2H_13multiversx_sc13contract_base14proxy_obj_base12ProxyObjBase16extract_proxy_toB9_
FNDA:123,_RNvXNtCs48qTgYy1n57_12lending_pool6oracleINtB4_11ContractObjINtNtNtNtCs1rODQd5oASQ_22multiversx_sc_scenario3api7impl_vh12vm_hooks_api10VMHooksApiNtNtB11_9debug_api15DebugApiBackendEENtB2_12OracleModule16safe_price_proxyCs8iyf5MSkCde_5tests
FNDA:2,_RNvYINtCs48qTgYy1n57_12lending_pool11ContractObjINtNtNtNtCs1rODQd5oASQ_22multiversx_sc_scenario3api7impl_vh12vm_hooks_api10VMHooksApiNtNtBP_9debug_api15DebugApiBackendEENtNtB5_6oracle12OracleModule12get_lp_priceCs8iyf5MSkCde_5tests
FNDA:121,_RNvYINtCs48qTgYy1n57_12lending_pool11ContractObjINtNtNtNtCs1rODQd5oASQ_22multiversx_sc_scenario3api7impl_vh12vm_hooks_api10VMHooksApiNtNtBP_9debug_api15DebugApiBackendEENtNtB5_6oracle12OracleModule14get_pair_stateCs8iyf5MSkCde_5tests
FNDA:121,_RNvYINtCs48qTgYy1n57_12lending_pool11ContractObjINtNtNtNtCs1rODQd5oASQ_22multiversx_sc_scenario3api7impl_vh12vm_hooks_api10VMHooksApiNtNtBP_9debug_api15DebugApiBackendEENtNtB5_6oracle12OracleModule14get_safe_priceCs8iyf5MSkCde_5tests
FNDA:134,_RNvYINtCs48qTgYy1n57_12lending_pool11ContractObjINtNtNtNtCs1rODQd5oASQ_22multiversx_sc_scenario3api7impl_vh12vm_hooks_api10VMHooksApiNtNtBP_9debug_api15DebugApiBackendEENtNtB5_6oracle12OracleModule15find_price_feedCs8iyf5MSkCde_5tests
FNDA:985,_RNvYINtCs48qTgYy1n57_12lending_pool11ContractObjINtNtNtNtCs1rODQd5oASQ_22multiversx_sc_scenario3api7impl_vh12vm_hooks_api10VMHooksApiNtNtBP_9debug_api15DebugApiBackendEENtNtB5_6oracle12OracleModule15get_token_priceCs8iyf5MSkCde_5tests
FNDA:2172,_RNvYINtCs48qTgYy1n57_12lending_pool11ContractObjINtNtNtNtCs1rODQd5oASQ_22multiversx_sc_scenario3api7impl_vh12vm_hooks_api10VMHooksApiNtNtBP_9debug_api15DebugApiBackendEENtNtB5_6oracle12OracleModule16get_token_tickerCs8iyf5MSkCde_5tests
FNDA:122,_RNvYINtCs48qTgYy1n57_12lending_pool11ContractObjINtNtNtNtCs1rODQd5oASQ_22multiversx_sc_scenario3api7impl_vh12vm_hooks_api10VMHooksApiNtNtBP_9debug_api15DebugApiBackendEENtNtB5_6oracle12OracleModule16is_within_anchorCs8iyf5MSkCde_5tests
FNDA:2053,_RNvYINtCs48qTgYy1n57_12lending_pool11ContractObjINtNtNtNtCs1rODQd5oASQ_22multiversx_sc_scenario3api7impl_vh12vm_hooks_api10VMHooksApiNtNtBP_9debug_api15DebugApiBackendEENtNtB5_6oracle12OracleModule17create_price_feedCs8iyf5MSkCde_5tests
FNDA:3,_RNvYINtCs48qTgYy1n57_12lending_pool11ContractObjINtNtNtNtCs1rODQd5oASQ_22multiversx_sc_scenario3api7impl_vh12vm_hooks_api10VMHooksApiNtNtBP_9debug_api15DebugApiBackendEENtNtB5_6oracle12OracleModule17get_derived_priceCs8iyf5MSkCde_5tests
FNDA:1,_RNvYINtCs48qTgYy1n57_12lending_pool11ContractObjINtNtNtNtCs1rODQd5oASQ_22multiversx_sc_scenario3api7impl_vh12vm_hooks_api10VMHooksApiNtNtBP_9debug_api15DebugApiBackendEENtNtB5_6oracle12OracleModule17get_safe_lp_priceCs8iyf5MSkCde_5tests
FNDA:0,_RNvYINtCs48qTgYy1n57_12lending_pool11ContractObjINtNtNtNtCs1rODQd5oASQ_22multiversx_sc_scenario3api7impl_vh12vm_hooks_api10VMHooksApiNtNtBP_9debug_api15DebugApiBackendEENtNtB5_6oracle12OracleModule23get_legld_derived_priceCs8iyf5MSkCde_5tests
FNDA:3,_RNvYINtCs48qTgYy1n57_12lending_pool11ContractObjINtNtNtNtCs1rODQd5oASQ_22multiversx_sc_scenario3api7impl_vh12vm_hooks_api10VMHooksApiNtNtBP_9debug_api15DebugApiBackendEENtNtB5_6oracle12OracleModule23get_xegld_derived_priceCs8iyf5MSkCde_5tests
FNDA:9,_RNvYINtCs48qTgYy1n57_12lending_pool11ContractObjINtNtNtNtCs1rODQd5oASQ_22multiversx_sc_scenario3api7impl_vh12vm_hooks_api10VMHooksApiNtNtBP_9debug_api15DebugApiBackendEENtNtB5_6oracle12OracleModule24compute_amount_in_tokensCs8iyf5MSkCde_5tests
FNDA:0,_RNvYINtCs48qTgYy1n57_12lending_pool11ContractObjINtNtNtNtCs1rODQd5oASQ_22multiversx_sc_scenario3api7impl_vh12vm_hooks_api10VMHooksApiNtNtBP_9debug_api15DebugApiBackendEENtNtB5_6oracle12OracleModule24get_lxoxno_derived_priceCs8iyf5MSkCde_5tests
FNDA:130,_RNvYINtCs48qTgYy1n57_12lending_pool11ContractObjINtNtNtNtCs1rODQd5oASQ_22multiversx_sc_scenario3api7impl_vh12vm_hooks_api10VMHooksApiNtNtBP_9debug_api15DebugApiBackendEENtNtB5_6oracle12OracleModule24get_normal_price_in_egldCs8iyf5MSkCde_5tests
FNDA:77,_RNvYINtCs48qTgYy1n57_12lending_pool11ContractObjINtNtNtNtCs1rODQd5oASQ_22multiversx_sc_scenario3api7impl_vh12vm_hooks_api10VMHooksApiNtNtBP_9debug_api15DebugApiBackendEENtNtB5_6oracle12OracleModule24get_token_amount_in_egldCs8iyf5MSkCde_5tests
FNDA:1066,_RNvYINtCs48qTgYy1n57_12lending_pool11ContractObjINtNtNtNtCs1rODQd5oASQ_22multiversx_sc_scenario3api7impl_vh12vm_hooks_api10VMHooksApiNtNtBP_9debug_api15DebugApiBackendEENtNtB5_6oracle12OracleModule25get_aggregator_price_feedCs8iyf5MSkCde_5tests
FNDA:142,_RNvYINtCs48qTgYy1n57_12lending_pool11ContractObjINtNtNtNtCs1rODQd5oASQ_22multiversx_sc_scenario3api7impl_vh12vm_hooks_api10VMHooksApiNtNtBP_9debug_api15DebugApiBackendEENtNtB5_6oracle12OracleModule28get_token_amount_in_egld_rawCs8iyf5MSkCde_5tests
FNDA:37,_RNvYINtCs48qTgYy1n57_12lending_pool11ContractObjINtNtNtNtCs1rODQd5oASQ_22multiversx_sc_scenario3api7impl_vh12vm_hooks_api10VMHooksApiNtNtBP_9debug_api15DebugApiBackendEENtNtB5_6oracle12OracleModule31get_token_amount_in_dollars_rawCs8iyf5MSkCde_5tests
FNDA:130,_RNvYINtCs48qTgYy1n57_12lending_pool11ContractObjINtNtNtNtCs1rODQd5oASQ_22multiversx_sc_scenario3api7impl_vh12vm_hooks_api10VMHooksApiNtNtBP_9debug_api15DebugApiBackendEENtNtB5_6oracle12OracleModule39get_token_price_in_egld_from_aggregatorCs8iyf5MSkCde_5tests
FNDA:0,_RNvYINtCs48qTgYy1n57_12lending_pool11ContractObjINtNtNtNtCs1rODQd5oASQ_22multiversx_sc_scenario3api7impl_vh12vm_hooks_api10VMHooksApiNtNtBP_9debug_api15DebugApiBackendEENtNtB5_6oracle16EndpointWrappers17callback_selectorCs8iyf5MSkCde_5tests
FNDA:6315,_RNvYINtCs48qTgYy1n57_12lending_pool11ContractObjINtNtNtNtCs1rODQd5oASQ_22multiversx_sc_scenario3api7impl_vh12vm_hooks_api10VMHooksApiNtNtBP_9debug_api15DebugApiBackendEENtNtB5_6oracle16EndpointWrappers4callCs8iyf5MSkCde_5tests
FNDA:0,_RNvYINtCs48qTgYy1n57_12lending_pool11ContractObjINtNtNtNtCs1rODQd5oASQ_22multiversx_sc_scenario3api7impl_vh12vm_hooks_api10VMHooksApiNtNtBP_9debug_api15DebugApiBackendEENtNtB5_6oracle16EndpointWrappers8callbackCs8iyf5MSkCde_5tests
FNDA:121,_RINvYINtNtNtCs48qTgYy1n57_12lending_pool6oracle16safe_price_proxy7ProxyToINtNtNtNtCs1rODQd5oASQ_22multiversx_sc_scenario3api7impl_vh12vm_hooks_api10VMHooksApiNtNtB1e_9debug_api15DebugApiBackendEENtB6_10ProxyTrait34get_safe_price_by_timestamp_offsetRINtNtNtNtNtCslPMlHj3qn2H_13multiversx_sc5types7managed7wrapped15managed_address14ManagedAddressB19_EyINtNtB44_18esdt_token_payment16EsdtTokenPaymentB19_EECs8iyf5MSkCde_5tests
FNDA:2,_RINvYINtNtNtCs48qTgYy1n57_12lending_pool6oracle16safe_price_proxy7ProxyToINtNtNtNtCs1rODQd5oASQ_22multiversx_sc_scenario3api7impl_vh12vm_hooks_api10VMHooksApiNtNtB1e_9debug_api15DebugApiBackendEENtB6_10ProxyTrait44get_lp_tokens_safe_price_by_timestamp_offsetINtNtNtNtNtCslPMlHj3qn2H_13multiversx_sc5types7managed7wrapped15managed_address14ManagedAddressB19_EyRINtNtB4d_8big_uint7BigUintB19_EECs8iyf5MSkCde_5tests
FNDA:123,_RNvXs0_NtNtCs48qTgYy1n57_12lending_pool6oracle16safe_price_proxyINtB5_7ProxyToINtNtNtNtCs1rODQd5oASQ_22multiversx_sc_scenario3api7impl_vh12vm_hooks_api10VMHooksApiNtNtB1j_9debug_api15DebugApiBackendEENtNtNtCslPMlHj3qn2H_13multiversx_sc13contract_base14proxy_obj_base12ProxyObjBase15extract_addressCs8iyf5MSkCde_5tests
FNDA:123,_RNvXs0_NtNtCs48qTgYy1n57_12lending_pool6oracle16safe_price_proxyINtB5_7ProxyToINtNtNtNtCs1rODQd5oASQ_22multiversx_sc_scenario3api7impl_vh12vm_hooks_api10VMHooksApiNtNtB1j_9debug_api15DebugApiBackendEENtNtNtCslPMlHj3qn2H_13multiversx_sc13contract_base14proxy_obj_base12ProxyObjBase16extract_proxy_toCs8iyf5MSkCde_5tests
FNDA:123,_RNvXs_NtNtCs48qTgYy1n57_12lending_pool6oracle16safe_price_proxyINtB4_5ProxyINtNtNtNtCs1rODQd5oASQ_22multiversx_sc_scenario3api7impl_vh12vm_hooks_api10VMHooksApiNtNtB1g_9debug_api15DebugApiBackendEENtNtNtCslPMlHj3qn2H_13multiversx_sc13contract_base14proxy_obj_base11ProxyObjNew13new_proxy_objCs8iyf5MSkCde_5tests
FNDA:123,_RNvXs_NtNtCs48qTgYy1n57_12lending_pool6oracle16safe_price_proxyINtB4_5ProxyINtNtNtNtCs1rODQd5oASQ_22multiversx_sc_scenario3api7impl_vh12vm_hooks_api10VMHooksApiNtNtB1g_9debug_api15DebugApiBackendEENtNtNtCslPMlHj3qn2H_13multiversx_sc13contract_base14proxy_obj_base11ProxyObjNew8contractCs8iyf5MSkCde_5tests
FNF:22
FNH:20
DA:19,6315
DA:29,9
DA:30,9
DA:31,9
DA:32,9
DA:33,9
DA:34,9
DA:45,37
DA:46,37
DA:47,37
DA:48,37
DA:49,37
DA:50,37
DA:62,77
DA:63,77
DA:64,77
DA:75,142
DA:76,142
DA:77,142
DA:78,142
DA:79,142
DA:80,142
DA:93,985
DA:94,985
DA:95,985
DA:96,985
DA:97,985
DA:98,839
DA:99,146
DA:100,146
DA:101,12
DA:102,12
DA:103,12
DA:104,12
DA:105,12
DA:106,12
DA:107,134
DA:108,134
DA:109,134
DA:110,134
DA:111,134
DA:113,134
DA:114,134
DA:115,134
DA:116,134
DA:117,134
DA:118,134
DA:119,134
DA:120,134
DA:121,134
DA:122,134
DA:123,134
DA:124,134
DA:125,134
DA:140,134
DA:141,134
DA:142,3
DA:143,1
DA:145,130
DA:147,0
DA:155,1
DA:156,1
DA:157,1
DA:158,1
DA:159,1
DA:161,1
DA:162,1
DA:163,1
DA:164,1
DA:165,1
DA:166,1
DA:167,1
DA:168,1
DA:169,1
DA:170,1
DA:171,1
DA:172,0
DA:173,0
DA:174,0
DA:175,0
DA:176,0
DA:177,0
DA:178,0
DA:180,0
DA:181,0
DA:182,0
DA:184,0
DA:188,1
DA:196,3
DA:197,3
DA:198,3
DA:199,0
DA:200,0
DA:201,0
DA:208,0
DA:209,0
DA:210,0
DA:211,0
DA:212,0
DA:213,0
DA:214,0
DA:215,0
DA:216,0
DA:217,0
DA:223,3
DA:224,3
DA:225,3
DA:226,3
DA:227,3
DA:228,3
DA:229,3
DA:230,3
DA:231,3
DA:232,3
DA:239,0
DA:240,0
DA:241,0
DA:242,0
DA:243,0
DA:244,0
DA:245,0
DA:246,0
DA:247,0
DA:248,0
DA:249,0
DA:250,0
DA:251,0
DA:254,121
DA:255,121
DA:256,121
DA:257,121
DA:258,121
DA:259,121
DA:268,121
DA:269,121
DA:270,121
DA:271,121
DA:272,121
DA:273,121
DA:274,121
DA:276,121
DA:277,121
DA:278,121
DA:279,121
DA:280,121
DA:281,121
DA:282,121
DA:283,121
DA:284,121
DA:285,121
DA:286,121
DA:287,121
DA:288,121
DA:289,121
DA:290,121
DA:291,121
DA:292,0
DA:293,0
DA:294,0
DA:295,0
DA:310,130
DA:311,130
DA:312,121
DA:314,130
DA:315,130
DA:316,130
DA:318,0
DA:321,130
DA:322,130
DA:324,121
DA:326,9
DA:329,130
DA:330,121
DA:331,121
DA:332,121
DA:333,121
DA:334,121
DA:335,121
DA:336,121
DA:337,121
DA:338,121
DA:339,121
DA:340,121
DA:341,121
DA:342,0
DA:343,0
DA:344,0
DA:345,0
DA:346,0
DA:347,0
DA:348,0
DA:350,0
DA:351,0
DA:352,0
DA:354,0
DA:356,9
DA:357,9
DA:358,0
DA:359,0
DA:361,0
DA:364,130
DA:375,130
DA:376,130
DA:377,130
DA:378,130
DA:379,130
DA:380,130
DA:381,130
DA:382,130
DA:394,122
DA:395,122
DA:396,122
DA:399,2053
DA:400,2053
DA:407,2172
DA:408,2172
DA:409,2172
DA:410,936
DA:411,1236
DA:412,1236
DA:413,1236
DA:414,1236
DA:415,123
DA:417,1113
DA:426,2
DA:427,2
DA:428,2
DA:429,2
DA:430,2
DA:431,2
DA:432,2
DA:433,2
DA:434,2
DA:435,2
DA:436,2
DA:437,2
DA:438,2
DA:439,2
DA:440,2
DA:441,2
DA:442,2
DA:443,2
DA:444,2
DA:445,2
DA:446,2
DA:447,2
DA:448,2
DA:449,2
DA:450,2
DA:451,2
DA:452,2
DA:453,2
DA:454,2
DA:455,2
DA:456,2
DA:457,2
DA:458,2
DA:460,0
DA:468,1066
DA:469,1066
DA:470,1066
DA:471,1066
DA:472,1066
DA:473,0
DA:493,1066
DA:494,1066
DA:495,1066
DA:496,1066
DA:497,1066
DA:498,1066
DA:499,1066
DA:500,1066
DA:501,1066
DA:549,615
BRF:0
BRH:0
LF:274
LH:215
end_of_record
SF:/Users/mihaieremia/GitHub/rs-lending/lending_pool/src/position.rs
FN:46,_RNvYpNtNtCshiqmisuHlyH_12lending_pool8position14PositionModule11update_debtB7_
FN:104,_RNvYpNtNtCshiqmisuHlyH_12lending_pool8position14PositionModule15update_interestB7_
FN:157,_RNvYpNtNtCshiqmisuHlyH_12lending_pool8position14PositionModule5enterB7_
FN:201,_RNvYpNtNtCshiqmisuHlyH_12lending_pool8position14PositionModule21get_or_create_accountB7_
FN:239,_RNvYpNtNtCshiqmisuHlyH_12lending_pool8position14PositionModule30get_or_create_deposit_positionB7_
FN:285,_RNvYpNtNtCshiqmisuHlyH_12lending_pool8position14PositionModule22update_supply_positionB7_
FN:342,_RNvYpNtNtCshiqmisuHlyH_12lending_pool8position14PositionModule22update_market_positionB7_
FN:374,_RNvYpNtNtCshiqmisuHlyH_12lending_pool8position14PositionModule23increase_vault_positionB7_
FN:375,_RNCNvYpNtNtCshiqmisuHlyH_12lending_pool8position14PositionModule23increase_vault_position0B9_
FN:399,_RNvYpNtNtCshiqmisuHlyH_12lending_pool8position14PositionModule30update_asset_config_for_e_modeB7_
FN:439,_RNvYpNtNtCshiqmisuHlyH_12lending_pool8position14PositionModule9__withdrawB7_
FN:467,_RNCNvYpNtNtCshiqmisuHlyH_12lending_pool8position14PositionModule9__withdraw0B9_
FN:551,_RNvYpNtNtCshiqmisuHlyH_12lending_pool8position14PositionModule25handle_nft_after_withdrawB7_
FN:596,_RNvYpNtNtCshiqmisuHlyH_12lending_pool8position14PositionModule22handle_borrow_positionB7_
FN:660,_RNvYpNtNtCshiqmisuHlyH_12lending_pool8position14PositionModule29get_or_create_borrow_positionB7_
FN:707,_RNvYpNtNtCshiqmisuHlyH_12lending_pool8position14PositionModule21handle_repay_positionB7_
FN:757,_RNvYpNtNtCshiqmisuHlyH_12lending_pool8position14PositionModule21handle_isolated_repayB7_
FN:812,_RNvYpNtNtCshiqmisuHlyH_12lending_pool8position14PositionModule6__repayB7_
FN:873,_RNvYpNtNtCshiqmisuHlyH_12lending_pool8position14PositionModule18handle_liquidationB7_
FN:969,_RNvYpNtNtCshiqmisuHlyH_12lending_pool8position14PositionModule19process_liquidationB7_
FN:17,_RNvYpNtNtCshiqmisuHlyH_12lending_pool8position16EndpointWrappers4callB7_
FN:17,_RNvYpNtNtCshiqmisuHlyH_12lending_pool8position16EndpointWrappers17callback_selectorB7_
FN:17,_RNvYpNtNtCshiqmisuHlyH_12lending_pool8position16EndpointWrappers8callbackB7_
FN:17,_RNvXs1_NtCshiqmisuHlyH_12lending_pool8positionNtB5_11AbiProviderNtNtNtCslPMlHj3qn2H_13multiversx_sc13contract_base21contract_abi_provider19ContractAbiProvider3abi
FN:17,_RNvXININtCshiqmisuHlyH_12lending_pool8positionsh_0pEINtB5_11ContractObjpENtNtNtCslPMlHj3qn2H_13multiversx_sc13contract_base17callable_contract16CallableContract4callB7_
FN:17,_RINvNtCshiqmisuHlyH_12lending_pool8position12contract_objpEB4_
FN:17,_RINvXsi_NtCshiqmisuHlyH_12lending_pool8positionNtB6_15ContractBuilderNtNtNtCslPMlHj3qn2H_13multiversx_sc13contract_base17callable_contract23CallableContractBuilder16new_contract_objpEB8_
FN:46,_RNvYINtCs48qTgYy1n57_12lending_pool11ContractObjINtNtNtNtCs1rODQd5oASQ_22multiversx_sc_scenario3api7impl_vh12vm_hooks_api10VMHooksApiNtNtBP_9debug_api15DebugApiBackendEENtNtB5_8position14PositionModule11update_debtCs8iyf5MSkCde_5tests
FN:104,_RNvYINtCs48qTgYy1n57_12lending_pool11ContractObjINtNtNtNtCs1rODQd5oASQ_22multiversx_sc_scenario3api7impl_vh12vm_hooks_api10VMHooksApiNtNtBP_9debug_api15DebugApiBackendEENtNtB5_8position14PositionModule15update_interestCs8iyf5MSkCde_5tests
FN:873,_RNvYINtCs48qTgYy1n57_12lending_pool11ContractObjINtNtNtNtCs1rODQd5oASQ_22multiversx_sc_scenario3api7impl_vh12vm_hooks_api10VMHooksApiNtNtBP_9debug_api15DebugApiBackendEENtNtB5_8position14PositionModule18handle_liquidationCs8iyf5MSkCde_5tests
FN:969,_RNvYINtCs48qTgYy1n57_12lending_pool11ContractObjINtNtNtNtCs1rODQd5oASQ_22multiversx_sc_scenario3api7impl_vh12vm_hooks_api10VMHooksApiNtNtBP_9debug_api15DebugApiBackendEENtNtB5_8position14PositionModule19process_liquidationCs8iyf5MSkCde_5tests
FN:201,_RNvYINtCs48qTgYy1n57_12lending_pool11ContractObjINtNtNtNtCs1rODQd5oASQ_22multiversx_sc_scenario3api7impl_vh12vm_hooks_api10VMHooksApiNtNtBP_9debug_api15DebugApiBackendEENtNtB5_8position14PositionModule21get_or_create_accountCs8iyf5MSkCde_5tests
FN:757,_RNvYINtCs48qTgYy1n57_12lending_pool11ContractObjINtNtNtNtCs1rODQd5oASQ_22multiversx_sc_scenario3api7impl_vh12vm_hooks_api10VMHooksApiNtNtBP_9debug_api15DebugApiBackendEENtNtB5_8position14PositionModule21handle_isolated_repayCs8iyf5MSkCde_5tests
FN:707,_RNvYINtCs48qTgYy1n57_12lending_pool11ContractObjINtNtNtNtCs1rODQd5oASQ_22multiversx_sc_scenario3api7impl_vh12vm_hooks_api10VMHooksApiNtNtBP_9debug_api15DebugApiBackendEENtNtB5_8position14PositionModule21handle_repay_positionCs8iyf5MSkCde_5tests
FN:596,_RNvYINtCs48qTgYy1n57_12lending_pool11ContractObjINtNtNtNtCs1rODQd5oASQ_22multiversx_sc_scenario3api7impl_vh12vm_hooks_api10VMHooksApiNtNtBP_9debug_api15DebugApiBackendEENtNtB5_8position14PositionModule22handle_borrow_positionCs8iyf5MSkCde_5tests
FN:342,_RNvYINtCs48qTgYy1n57_12lending_pool11ContractObjINtNtNtNtCs1rODQd5oASQ_22multiversx_sc_scenario3api7impl_vh12vm_hooks_api10VMHooksApiNtNtBP_9debug_api15DebugApiBackendEENtNtB5_8position14PositionModule22update_market_positionCs8iyf5MSkCde_5tests
FN:285,_RNvYINtCs48qTgYy1n57_12lending_pool11ContractObjINtNtNtNtCs1rODQd5oASQ_22multiversx_sc_scenario3api7impl_vh12vm_hooks_api10VMHooksApiNtNtBP_9debug_api15DebugApiBackendEENtNtB5_8position14PositionModule22update_supply_positionCs8iyf5MSkCde_5tests
FN:374,_RNvYINtCs48qTgYy1n57_12lending_pool11ContractObjINtNtNtNtCs1rODQd5oASQ_22multiversx_sc_scenario3api7impl_vh12vm_hooks_api10VMHooksApiNtNtBP_9debug_api15DebugApiBackendEENtNtB5_8position14PositionModule23increase_vault_positionCs8iyf5MSkCde_5tests
FN:551,_RNvYINtCs48qTgYy1n57_12lending_pool11ContractObjINtNtNtNtCs1rODQd5oASQ_22multiversx_sc_scenario3api7impl_vh12vm_hooks_api10VMHooksApiNtNtBP_9debug_api15DebugApiBackendEENtNtB5_8position14PositionModule25handle_nft_after_withdrawCs8iyf5MSkCde_5tests
FN:660,_RNvYINtCs48qTgYy1n57_12lending_pool11ContractObjINtNtNtNtCs1rODQd5oASQ_22multiversx_sc_scenario3api7impl_vh12vm_hooks_api10VMHooksApiNtNtBP_9debug_api15DebugApiBackendEENtNtB5_8position14PositionModule29get_or_create_borrow_positionCs8iyf5MSkCde_5tests
FN:239,_RNvYINtCs48qTgYy1n57_12lending_pool11ContractObjINtNtNtNtCs1rODQd5oASQ_22multiversx_sc_scenario3api7impl_vh12vm_hooks_api10VMHooksApiNtNtBP_9debug_api15DebugApiBackendEENtNtB5_8position14PositionModule30get_or_create_deposit_positionCs8iyf5MSkCde_5tests
FN:399,_RNvYINtCs48qTgYy1n57_12lending_pool11ContractObjINtNtNtNtCs1rODQd5oASQ_22multiversx_sc_scenario3api7impl_vh12vm_hooks_api10VMHooksApiNtNtBP_9debug_api15DebugApiBackendEENtNtB5_8position14PositionModule30update_asset_config_for_e_modeCs8iyf5MSkCde_5tests
FN:157,_RNvYINtCs48qTgYy1n57_12lending_pool11ContractObjINtNtNtNtCs1rODQd5oASQ_22multiversx_sc_scenario3api7impl_vh12vm_hooks_api10VMHooksApiNtNtBP_9debug_api15DebugApiBackendEENtNtB5_8position14PositionModule5enterCs8iyf5MSkCde_5tests
FN:812,_RNvYINtCs48qTgYy1n57_12lending_pool11ContractObjINtNtNtNtCs1rODQd5oASQ_22multiversx_sc_scenario3api7impl_vh12vm_hooks_api10VMHooksApiNtNtBP_9debug_api15DebugApiBackendEENtNtB5_8position14PositionModule6__repayCs8iyf5MSkCde_5tests
FN:439,_RNvYINtCs48qTgYy1n57_12lending_pool11ContractObjINtNtNtNtCs1rODQd5oASQ_22multiversx_sc_scenario3api7impl_vh12vm_hooks_api10VMHooksApiNtNtBP_9debug_api15DebugApiBackendEENtNtB5_8position14PositionModule9__withdrawCs8iyf5MSkCde_5tests
FN:17,_RNvYINtCs48qTgYy1n57_12lending_pool11ContractObjINtNtNtNtCs1rODQd5oASQ_22multiversx_sc_scenario3api7impl_vh12vm_hooks_api10VMHooksApiNtNtBP_9debug_api15DebugApiBackendEENtNtB5_8position16EndpointWrappers17callback_selectorCs8iyf5MSkCde_5tests
FN:17,_RNvYINtCs48qTgYy1n57_12lending_pool11ContractObjINtNtNtNtCs1rODQd5oASQ_22multiversx_sc_scenario3api7impl_vh12vm_hooks_api10VMHooksApiNtNtBP_9debug_api15DebugApiBackendEENtNtB5_8position16EndpointWrappers4callCs8iyf5MSkCde_5tests
FN:17,_RNvYINtCs48qTgYy1n57_12lending_pool11ContractObjINtNtNtNtCs1rODQd5oASQ_22multiversx_sc_scenario3api7impl_vh12vm_hooks_api10VMHooksApiNtNtBP_9debug_api15DebugApiBackendEENtNtB5_8position16EndpointWrappers8callbackCs8iyf5MSkCde_5tests
FN:375,_RNCNvYINtCs48qTgYy1n57_12lending_pool11ContractObjINtNtNtNtCs1rODQd5oASQ_22multiversx_sc_scenario3api7impl_vh12vm_hooks_api10VMHooksApiNtNtBR_9debug_api15DebugApiBackendEENtNtB7_8position14PositionModule23increase_vault_position0Cs8iyf5MSkCde_5tests
FN:467,_RNCNvYINtCs48qTgYy1n57_12lending_pool11ContractObjINtNtNtNtCs1rODQd5oASQ_22multiversx_sc_scenario3api7impl_vh12vm_hooks_api10VMHooksApiNtNtBR_9debug_api15DebugApiBackendEENtNtB7_8position14PositionModule9__withdraw0Cs8iyf5MSkCde_5tests
FNDA:0,_RNvYpNtNtCshiqmisuHlyH_12lending_pool8position14PositionModule11update_debtB7_
FNDA:0,_RNvYpNtNtCshiqmisuHlyH_12lending_pool8position14PositionModule15update_interestB7_
FNDA:0,_RNvYpNtNtCshiqmisuHlyH_12lending_pool8position14PositionModule5enterB7_
FNDA:0,_RNvYpNtNtCshiqmisuHlyH_12lending_pool8position14PositionModule21get_or_create_accountB7_
FNDA:0,_RNvYpNtNtCshiqmisuHlyH_12lending_pool8position14PositionModule30get_or_create_deposit_positionB7_
FNDA:0,_RNvYpNtNtCshiqmisuHlyH_12lending_pool8position14PositionModule22update_supply_positionB7_
FNDA:0,_RNvYpNtNtCshiqmisuHlyH_12lending_pool8position14PositionModule22update_market_positionB7_
FNDA:0,_RNvYpNtNtCshiqmisuHlyH_12lending_pool8position14PositionModule23increase_vault_positionB7_
FNDA:0,_RNCNvYpNtNtCshiqmisuHlyH_12lending_pool8position14PositionModule23increase_vault_position0B9_
FNDA:0,_RNvYpNtNtCshiqmisuHlyH_12lending_pool8position14PositionModule30update_asset_config_for_e_modeB7_
FNDA:0,_RNvYpNtNtCshiqmisuHlyH_12lending_pool8position14PositionModule9__withdrawB7_
FNDA:0,_RNCNvYpNtNtCshiqmisuHlyH_12lending_pool8position14PositionModule9__withdraw0B9_
FNDA:0,_RNvYpNtNtCshiqmisuHlyH_12lending_pool8position14PositionModule25handle_nft_after_withdrawB7_
FNDA:0,_RNvYpNtNtCshiqmisuHlyH_12lending_pool8position14PositionModule22handle_borrow_positionB7_
FNDA:0,_RNvYpNtNtCshiqmisuHlyH_12lending_pool8position14PositionModule29get_or_create_borrow_positionB7_
FNDA:0,_RNvYpNtNtCshiqmisuHlyH_12lending_pool8position14PositionModule21handle_repay_positionB7_
FNDA:0,_RNvYpNtNtCshiqmisuHlyH_12lending_pool8position14PositionModule21handle_isolated_repayB7_
FNDA:0,_RNvYpNtNtCshiqmisuHlyH_12lending_pool8position14PositionModule6__repayB7_
FNDA:0,_RNvYpNtNtCshiqmisuHlyH_12lending_pool8position14PositionModule18handle_liquidationB7_
FNDA:0,_RNvYpNtNtCshiqmisuHlyH_12lending_pool8position14PositionModule19process_liquidationB7_
FNDA:0,_RNvYpNtNtCshiqmisuHlyH_12lending_pool8position16EndpointWrappers4callB7_
FNDA:0,_RNvYpNtNtCshiqmisuHlyH_12lending_pool8position16EndpointWrappers17callback_selectorB7_
FNDA:0,_RNvYpNtNtCshiqmisuHlyH_12lending_pool8position16EndpointWrappers8callbackB7_
FNDA:0,_RNvXs1_NtCshiqmisuHlyH_12lending_pool8positionNtB5_11AbiProviderNtNtNtCslPMlHj3qn2H_13multiversx_sc13contract_base21contract_abi_provider19ContractAbiProvider3abi
FNDA:0,_RNvXININtCshiqmisuHlyH_12lending_pool8positionsh_0pEINtB5_11ContractObjpENtNtNtCslPMlHj3qn2H_13multiversx_sc13contract_base17callable_contract16CallableContract4callB7_
FNDA:0,_RINvNtCshiqmisuHlyH_12lending_pool8position12contract_objpEB4_
FNDA:0,_RINvXsi_NtCshiqmisuHlyH_12lending_pool8positionNtB6_15ContractBuilderNtNtNtCslPMlHj3qn2H_13multiversx_sc13contract_base17callable_contract23CallableContractBuilder16new_contract_objpEB8_
FNDA:423,_RNvYINtCs48qTgYy1n57_12lending_pool11ContractObjINtNtNtNtCs1rODQd5oASQ_22multiversx_sc_scenario3api7impl_vh12vm_hooks_api10VMHooksApiNtNtBP_9debug_api15DebugApiBackendEENtNtB5_8position14PositionModule11update_debtCs8iyf5MSkCde_5tests
FNDA:419,_RNvYINtCs48qTgYy1n57_12lending_pool11ContractObjINtNtNtNtCs1rODQd5oASQ_22multiversx_sc_scenario3api7impl_vh12vm_hooks_api10VMHooksApiNtNtBP_9debug_api15DebugApiBackendEENtNtB5_8position14PositionModule15update_interestCs8iyf5MSkCde_5tests
FNDA:5,_RNvYINtCs48qTgYy1n57_12lending_pool11ContractObjINtNtNtNtCs1rODQd5oASQ_22multiversx_sc_scenario3api7impl_vh12vm_hooks_api10VMHooksApiNtNtBP_9debug_api15DebugApiBackendEENtNtB5_8position14PositionModule18handle_liquidationCs8iyf5MSkCde_5tests
FNDA:5,_RNvYINtCs48qTgYy1n57_12lending_pool11ContractObjINtNtNtNtCs1rODQd5oASQ_22multiversx_sc_scenario3api7impl_vh12vm_hooks_api10VMHooksApiNtNtBP_9debug_api15DebugApiBackendEENtNtB5_8position14PositionModule19process_liquidationCs8iyf5MSkCde_5tests
FNDA:87,_RNvYINtCs48qTgYy1n57_12lending_pool11ContractObjINtNtNtNtCs1rODQd5oASQ_22multiversx_sc_scenario3api7impl_vh12vm_hooks_api10VMHooksApiNtNtBP_9debug_api15DebugApiBackendEENtNtB5_8position14PositionModule21get_or_create_accountCs8iyf5MSkCde_5tests
FNDA:11,_RNvYINtCs48qTgYy1n57_12lending_pool11ContractObjINtNtNtNtCs1rODQd5oASQ_22multiversx_sc_scenario3api7impl_vh12vm_hooks_api10VMHooksApiNtNtBP_9debug_api15DebugApiBackendEENtNtB5_8position14PositionModule21handle_isolated_repayCs8iyf5MSkCde_5tests
FNDA:11,_RNvYINtCs48qTgYy1n57_12lending_pool11ContractObjINtNtNtNtCs1rODQd5oASQ_22multiversx_sc_scenario3api7impl_vh12vm_hooks_api10VMHooksApiNtNtBP_9debug_api15DebugApiBackendEENtNtB5_8position14PositionModule21handle_repay_positionCs8iyf5MSkCde_5tests
FNDA:32,_RNvYINtCs48qTgYy1n57_12lending_pool11ContractObjINtNtNtNtCs1rODQd5oASQ_22multiversx_sc_scenario3api7impl_vh12vm_hooks_api10VMHooksApiNtNtBP_9debug_api15DebugApiBackendEENtNtB5_8position14PositionModule22handle_borrow_positionCs8iyf5MSkCde_5tests
FNDA:71,_RNvYINtCs48qTgYy1n57_12lending_pool11ContractObjINtNtNtNtCs1rODQd5oASQ_22multiversx_sc_scenario3api7impl_vh12vm_hooks_api10VMHooksApiNtNtBP_9debug_api15DebugApiBackendEENtNtB5_8position14PositionModule22update_market_positionCs8iyf5MSkCde_5tests
FNDA:80,_RNvYINtCs48qTgYy1n57_12lending_pool11ContractObjINtNtNtNtCs1rODQd5oASQ_22multiversx_sc_scenario3api7impl_vh12vm_hooks_api10VMHooksApiNtNtBP_9debug_api15DebugApiBackendEENtNtB5_8position14PositionModule22update_supply_positionCs8iyf5MSkCde_5tests
FNDA:9,_RNvYINtCs48qTgYy1n57_12lending_pool11ContractObjINtNtNtNtCs1rODQd5oASQ_22multiversx_sc_scenario3api7impl_vh12vm_hooks_api10VMHooksApiNtNtBP_9debug_api15DebugApiBackendEENtNtB5_8position14PositionModule23increase_vault_positionCs8iyf5MSkCde_5tests
FNDA:5,_RNvYINtCs48qTgYy1n57_12lending_pool11ContractObjINtNtNtNtCs1rODQd5oASQ_22multiversx_sc_scenario3api7impl_vh12vm_hooks_api10VMHooksApiNtNtBP_9debug_api15DebugApiBackendEENtNtB5_8position14PositionModule25handle_nft_after_withdrawCs8iyf5MSkCde_5tests
FNDA:32,_RNvYINtCs48qTgYy1n57_12lending_pool11ContractObjINtNtNtNtCs1rODQd5oASQ_22multiversx_sc_scenario3api7impl_vh12vm_hooks_api10VMHooksApiNtNtBP_9debug_api15DebugApiBackendEENtNtB5_8position14PositionModule29get_or_create_borrow_positionCs8iyf5MSkCde_5tests
FNDA:80,_RNvYINtCs48qTgYy1n57_12lending_pool11ContractObjINtNtNtNtCs1rODQd5oASQ_22multiversx_sc_scenario3api7impl_vh12vm_hooks_api10VMHooksApiNtNtBP_9debug_api15DebugApiBackendEENtNtB5_8position14PositionModule30get_or_create_deposit_positionCs8iyf5MSkCde_5tests
FNDA:119,_RNvYINtCs48qTgYy1n57_12lending_pool11ContractObjINtNtNtNtCs1rODQd5oASQ_22multiversx_sc_scenario3api7impl_vh12vm_hooks_api10VMHooksApiNtNtBP_9debug_api15DebugApiBackendEENtNtB5_8position14PositionModule30update_asset_config_for_e_modeCs8iyf5MSkCde_5tests
FNDA:75,_RNvYINtCs48qTgYy1n57_12lending_pool11ContractObjINtNtNtNtCs1rODQd5oASQ_22multiversx_sc_scenario3api7impl_vh12vm_hooks_api10VMHooksApiNtNtBP_9debug_api15DebugApiBackendEENtNtB5_8position14PositionModule5enterCs8iyf5MSkCde_5tests
FNDA:11,_RNvYINtCs48qTgYy1n57_12lending_pool11ContractObjINtNtNtNtCs1rODQd5oASQ_22multiversx_sc_scenario3api7impl_vh12vm_hooks_api10VMHooksApiNtNtBP_9debug_api15DebugApiBackendEENtNtB5_8position14PositionModule6__repayCs8iyf5MSkCde_5tests
FNDA:12,_RNvYINtCs48qTgYy1n57_12lending_pool11ContractObjINtNtNtNtCs1rODQd5oASQ_22multiversx_sc_scenario3api7impl_vh12vm_hooks_api10VMHooksApiNtNtBP_9debug_api15DebugApiBackendEENtNtB5_8position14PositionModule9__withdrawCs8iyf5MSkCde_5tests
FNDA:0,_RNvYINtCs48qTgYy1n57_12lending_pool11ContractObjINtNtNtNtCs1rODQd5oASQ_22multiversx_sc_scenario3api7impl_vh12vm_hooks_api10VMHooksApiNtNtBP_9debug_api15DebugApiBackendEENtNtB5_8position16EndpointWrappers17callback_selectorCs8iyf5MSkCde_5tests
FNDA:57,_RNvYINtCs48qTgYy1n57_12lending_pool11ContractObjINtNtNtNtCs1rODQd5oASQ_22multiversx_sc_scenario3api7impl_vh12vm_hooks_api10VMHooksApiNtNtBP_9debug_api15DebugApiBackendEENtNtB5_8position16EndpointWrappers4callCs8iyf5MSkCde_5tests
FNDA:0,_RNvYINtCs48qTgYy1n57_12lending_pool11ContractObjINtNtNtNtCs1rODQd5oASQ_22multiversx_sc_scenario3api7impl_vh12vm_hooks_api10VMHooksApiNtNtBP_9debug_api15DebugApiBackendEENtNtB5_8position16EndpointWrappers8callbackCs8iyf5MSkCde_5tests
FNDA:9,_RNCNvYINtCs48qTgYy1n57_12lending_pool11ContractObjINtNtNtNtCs1rODQd5oASQ_22multiversx_sc_scenario3api7impl_vh12vm_hooks_api10VMHooksApiNtNtBR_9debug_api15DebugApiBackendEENtNtB7_8position14PositionModule23increase_vault_position0Cs8iyf5MSkCde_5tests
FNDA:2,_RNCNvYINtCs48qTgYy1n57_12lending_pool11ContractObjINtNtNtNtCs1rODQd5oASQ_22multiversx_sc_scenario3api7impl_vh12vm_hooks_api10VMHooksApiNtNtBR_9debug_api15DebugApiBackendEENtNtB7_8position14PositionModule9__withdraw0Cs8iyf5MSkCde_5tests
FNF:21
FNH:21
DA:17,57
DA:46,423
DA:47,423
DA:48,423
DA:49,423
DA:50,423
DA:51,389
DA:52,389
DA:53,389
DA:54,377
DA:55,377
DA:57,12
DA:60,389
DA:61,389
DA:62,389
DA:63,377
DA:64,377
DA:65,377
DA:66,377
DA:67,377
DA:68,377
DA:69,377
DA:70,377
DA:72,389
DA:73,0
DA:74,0
DA:75,0
DA:76,0
DA:77,389
DA:79,389
DA:80,389
DA:81,389
DA:82,389
DA:84,423
DA:104,419
DA:105,419
DA:106,419
DA:107,423
DA:108,423
DA:109,423
DA:110,418
DA:111,374
DA:112,374
DA:114,44
DA:116,418
DA:117,418
DA:118,418
DA:119,374
DA:120,374
DA:121,374
DA:122,374
DA:123,374
DA:124,374
DA:125,374
DA:126,374
DA:127,418
DA:128,418
DA:129,418
DA:130,418
DA:131,5
DA:132,5
DA:133,5
DA:135,419
DA:157,75
DA:158,75
DA:159,75
DA:160,75
DA:161,75
DA:162,7
DA:164,68
DA:166,75
DA:167,75
DA:168,75
DA:169,75
DA:170,75
DA:171,75
DA:172,75
DA:173,75
DA:174,75
DA:175,75
DA:176,75
DA:177,75
DA:201,87
DA:202,87
DA:203,12
DA:204,12
DA:205,12
DA:206,12
DA:207,12
DA:208,12
DA:209,12
DA:210,12
DA:211,12
DA:212,12
DA:213,12
DA:215,75
DA:216,75
DA:239,80
DA:240,80
DA:242,80
DA:243,1
DA:244,1
DA:246,79
DA:247,79
DA:248,79
DA:249,79
DA:250,79
DA:251,79
DA:252,79
DA:253,79
DA:254,79
DA:255,79
DA:256,79
DA:257,79
DA:285,80
DA:286,80
DA:287,80
DA:288,80
DA:289,80
DA:290,80
DA:291,80
DA:292,80
DA:293,80
DA:294,0
DA:295,80
DA:297,80
DA:298,9
DA:299,9
DA:300,9
DA:301,9
DA:302,9
DA:303,71
DA:304,71
DA:305,71
DA:306,71
DA:307,71
DA:308,71
DA:309,71
DA:310,71
DA:312,80
DA:313,80
DA:314,80
DA:315,80
DA:316,80
DA:317,80
DA:318,80
DA:319,80
DA:320,80
DA:321,80
DA:322,80
DA:323,80
DA:324,80
DA:342,71
DA:343,71
DA:344,71
DA:345,71
DA:346,71
DA:347,71
DA:348,71
DA:349,71
DA:350,71
DA:351,71
DA:352,71
DA:353,71
DA:354,71
DA:355,71
DA:356,71
DA:374,9
DA:375,9
DA:376,9
DA:377,9
DA:378,9
DA:379,9
DA:380,9
DA:381,9
DA:399,119
DA:400,119
DA:401,8
DA:402,8
DA:403,8
DA:404,8
DA:405,8
DA:406,8
DA:407,111
DA:439,12
DA:440,12
DA:441,12
DA:442,12
DA:443,12
DA:444,12
DA:445,12
DA:446,12
DA:447,12
DA:448,12
DA:450,11
DA:451,11
DA:452,11
DA:453,11
DA:454,2
DA:455,9
DA:457,11
DA:458,11
DA:459,0
DA:460,0
DA:461,0
DA:463,11
DA:465,11
DA:466,11
DA:467,2
DA:468,2
DA:469,2
DA:470,2
DA:471,2
DA:472,2
DA:473,2
DA:474,2
DA:475,2
DA:476,2
DA:477,1
DA:478,1
DA:479,1
DA:480,1
DA:481,1
DA:482,1
DA:483,1
DA:484,1
DA:485,1
DA:486,1
DA:487,1
DA:488,1
DA:489,1
DA:490,1
DA:491,1
DA:492,1
DA:493,1
DA:494,1
DA:495,1
DA:496,1
DA:497,1
DA:498,1
DA:499,1
DA:500,1
DA:501,1
DA:502,1
DA:504,2
DA:506,9
DA:507,9
DA:508,9
DA:509,9
DA:510,9
DA:511,9
DA:512,9
DA:513,9
DA:514,9
DA:515,9
DA:516,9
DA:517,9
DA:518,9
DA:521,11
DA:522,11
DA:523,11
DA:524,11
DA:525,11
DA:526,11
DA:527,11
DA:528,11
DA:529,11
DA:530,7
DA:531,7
DA:532,4
DA:533,4
DA:535,11
DA:551,5
DA:552,5
DA:553,5
DA:554,5
DA:555,5
DA:556,3
DA:557,3
DA:558,3
DA:559,3
DA:560,3
DA:561,3
DA:562,2
DA:563,2
DA:596,32
DA:597,32
DA:598,32
DA:599,32
DA:600,32
DA:601,32
DA:602,32
DA:603,32
DA:604,32
DA:605,32
DA:606,32
DA:607,32
DA:608,32
DA:609,32
DA:610,32
DA:611,32
DA:612,32
DA:613,32
DA:614,32
DA:615,32
DA:616,32
DA:617,32
DA:618,5
DA:619,5
DA:620,5
DA:621,5
DA:622,5
DA:623,5
DA:624,5
DA:625,5
DA:626,5
DA:627,5
DA:628,5
DA:629,5
DA:630,5
DA:631,27
DA:634,32
DA:635,32
DA:636,32
DA:637,32
DA:660,32
DA:661,32
DA:663,32
DA:664,1
DA:665,1
DA:667,31
DA:668,31
DA:669,31
DA:670,31
DA:671,31
DA:672,31
DA:673,31
DA:674,31
DA:675,31
DA:676,31
DA:677,31
DA:678,31
DA:707,11
DA:708,11
DA:709,11
DA:710,11
DA:711,11
DA:712,11
DA:713,11
DA:714,11
DA:715,11
DA:716,11
DA:717,11
DA:718,11
DA:719,11
DA:720,11
DA:721,11
DA:722,11
DA:723,11
DA:724,11
DA:725,11
DA:726,11
DA:727,11
DA:728,11
DA:729,11
DA:730,11
DA:731,11
DA:732,11
DA:733,11
DA:734,7
DA:735,7
DA:736,4
DA:737,4
DA:757,11
DA:758,11
DA:759,4
DA:760,4
DA:761,4
DA:762,4
DA:763,4
DA:764,4
DA:765,4
DA:766,4
DA:767,4
DA:768,4
DA:769,4
DA:770,4
DA:771,4
DA:772,4
DA:773,4
DA:774,4
DA:775,4
DA:776,4
DA:777,4
DA:778,4
DA:779,4
DA:780,4
DA:781,4
DA:782,7
DA:812,11
DA:813,11
DA:814,11
DA:815,11
DA:816,11
DA:817,11
DA:818,11
DA:819,11
DA:820,11
DA:821,11
DA:822,11
DA:823,11
DA:824,11
DA:825,11
DA:826,11
DA:827,11
DA:828,11
DA:829,11
DA:830,11
DA:831,11
DA:832,11
DA:833,11
DA:834,11
DA:835,11
DA:873,5
DA:874,5
DA:875,5
DA:876,5
DA:877,5
DA:878,5
DA:879,5
DA:880,5
DA:881,5
DA:882,5
DA:883,5
DA:884,5
DA:885,5
DA:886,5
DA:887,5
DA:888,5
DA:889,5
DA:890,5
DA:891,5
DA:892,5
DA:893,5
DA:894,5
DA:895,5
DA:896,5
DA:897,5
DA:898,5
DA:899,5
DA:900,5
DA:901,5
DA:904,5
DA:905,5
DA:906,3
DA:907,3
DA:908,3
DA:909,3
DA:910,3
DA:911,3
DA:912,3
DA:913,3
DA:915,2
DA:919,5
DA:920,3
DA:921,3
DA:922,3
DA:923,3
DA:924,3
DA:925,3
DA:926,3
DA:927,3
DA:928,3
DA:931,5
DA:932,5
DA:933,5
DA:934,5
DA:935,5
DA:936,5
DA:937,5
DA:938,5
DA:939,5
DA:940,5
DA:941,5
DA:942,5
DA:943,5
DA:944,5
DA:945,5
DA:946,5
DA:969,5
DA:970,5
DA:971,5
DA:972,5
DA:973,5
DA:974,5
DA:975,5
DA:976,5
DA:977,5
DA:978,5
DA:979,5
DA:980,5
DA:981,5
DA:982,5
DA:983,5
DA:984,5
DA:985,5
DA:986,5
DA:987,5
DA:988,5
DA:989,5
DA:990,5
DA:991,5
DA:992,5
DA:993,5
DA:994,5
DA:995,5
DA:996,5
DA:997,5
DA:998,5
DA:999,5
DA:1000,5
DA:1001,5
DA:1002,5
DA:1003,5
DA:1004,5
DA:1005,5
DA:1006,5
DA:1007,5
DA:1008,5
DA:1009,5
DA:1010,5
DA:1011,5
DA:1012,5
DA:1013,5
DA:1014,5
DA:1015,5
DA:1016,5
DA:1017,5
DA:1018,5
DA:1019,5
DA:1020,5
DA:1021,5
DA:1022,5
BRF:0
BRH:0
LF:547
LH:539
end_of_record
SF:/Users/mihaieremia/GitHub/rs-lending/lending_pool/src/proxies/lxoxno_proxy.rs
FN:23,_RNvXININtNtCshiqmisuHlyH_12lending_pool7proxies12lxoxno_proxy0ppppENtB5_18RsLiquidXoxnoProxyINtNtNtNtCslPMlHj3qn2H_13multiversx_sc5types11interaction8tx_proxy12TxProxyTraitppppE13proxy_methodsB9_
FN:46,_RINvMs_NtNtCshiqmisuHlyH_12lending_pool7proxies12lxoxno_proxyINtB5_25RsLiquidXoxnoProxyMethodsppupE4initpEB9_
FN:69,_RNvMs0_NtNtCshiqmisuHlyH_12lending_pool7proxies12lxoxno_proxyINtB5_25RsLiquidXoxnoProxyMethodsppppE7upgradeB9_
FN:88,_RINvMs1_NtNtCshiqmisuHlyH_12lending_pool7proxies12lxoxno_proxyINtB6_25RsLiquidXoxnoProxyMethodsppppE8delegatepEBa_
FN:100,_RNvMs1_NtNtCshiqmisuHlyH_12lending_pool7proxies12lxoxno_proxyINtB5_25RsLiquidXoxnoProxyMethodsppppE11un_delegateB9_
FN:108,_RNvMs1_NtNtCshiqmisuHlyH_12lending_pool7proxies12lxoxno_proxyINtB5_25RsLiquidXoxnoProxyMethodsppppE8withdrawB9_
FN:116,_RNvMs1_NtNtCshiqmisuHlyH_12lending_pool7proxies12lxoxno_proxyINtB5_25RsLiquidXoxnoProxyMethodsppppE11add_rewardsB9_
FN:124,_RINvMs1_NtNtCshiqmisuHlyH_12lending_pool7proxies12lxoxno_proxyINtB6_25RsLiquidXoxnoProxyMethodsppppE25get_ls_value_for_positionpEBa_
FN:137,_RINvMs1_NtNtCshiqmisuHlyH_12lending_pool7proxies12lxoxno_proxyINtB6_25RsLiquidXoxnoProxyMethodsppppE26get_ls_amount_for_positionpEBa_
FN:150,_RNvMs1_NtNtCshiqmisuHlyH_12lending_pool7proxies12lxoxno_proxyINtB5_25RsLiquidXoxnoProxyMethodsppppE17get_exchange_rateB9_
FN:159,_RINvMs1_NtNtCshiqmisuHlyH_12lending_pool7proxies12lxoxno_proxyINtB6_25RsLiquidXoxnoProxyMethodsppppE17register_ls_tokenpppEBa_
FN:177,_RINvMs1_NtNtCshiqmisuHlyH_12lending_pool7proxies12lxoxno_proxyINtB6_25RsLiquidXoxnoProxyMethodsppppE22register_unstake_tokenpppEBa_
FN:195,_RNvMs1_NtNtCshiqmisuHlyH_12lending_pool7proxies12lxoxno_proxyINtB5_25RsLiquidXoxnoProxyMethodsppppE16set_state_activeB9_
FN:204,_RNvMs1_NtNtCshiqmisuHlyH_12lending_pool7proxies12lxoxno_proxyINtB5_25RsLiquidXoxnoProxyMethodsppppE18set_state_inactiveB9_
FN:213,_RNvMs1_NtNtCshiqmisuHlyH_12lending_pool7proxies12lxoxno_proxyINtB5_25RsLiquidXoxnoProxyMethodsppppE5stateB9_
FN:222,_RNvMs1_NtNtCshiqmisuHlyH_12lending_pool7proxies12lxoxno_proxyINtB5_25RsLiquidXoxnoProxyMethodsppppE8ls_tokenB9_
FN:231,_RNvMs1_NtNtCshiqmisuHlyH_12lending_pool7proxies12lxoxno_proxyINtB5_25RsLiquidXoxnoProxyMethodsppppE10main_tokenB9_
FN:240,_RNvMs1_NtNtCshiqmisuHlyH_12lending_pool7proxies12lxoxno_proxyINtB5_25RsLiquidXoxnoProxyMethodsppppE15ls_token_supplyB9_
FN:249,_RNvMs1_NtNtCshiqmisuHlyH_12lending_pool7proxies12lxoxno_proxyINtB5_25RsLiquidXoxnoProxyMethodsppppE21virtual_xoxno_reserveB9_
FN:258,_RNvMs1_NtNtCshiqmisuHlyH_12lending_pool7proxies12lxoxno_proxyINtB5_25RsLiquidXoxnoProxyMethodsppppE13unstake_tokenB9_
FN:267,_RNvMs1_NtNtCshiqmisuHlyH_12lending_pool7proxies12lxoxno_proxyINtB5_25RsLiquidXoxnoProxyMethodsppppE20unstake_token_supplyB9_
FN:278,_RINvXs5_NtNtCshiqmisuHlyH_12lending_pool7proxies12lxoxno_proxyNtB6_5StateNtNtNtCs5SUGlJDgeoS_19multiversx_sc_codec6single6top_en9TopEncode24top_encode_or_handle_errppEBa_
FN:278,_RINvXs6_NtNtCshiqmisuHlyH_12lending_pool7proxies12lxoxno_proxyNtB6_5StateNtNtNtCs5SUGlJDgeoS_19multiversx_sc_codec6single6top_de9TopDecode24top_decode_or_handle_errppEBa_
FN:277,_RNvXs4_NtNtCshiqmisuHlyH_12lending_pool7proxies12lxoxno_proxyNtB5_5StateNtNtNtCslPMlHj3qn2H_13multiversx_sc3abi8type_abi7TypeAbi9type_name
FN:277,_RINvXs4_NtNtCshiqmisuHlyH_12lending_pool7proxies12lxoxno_proxyNtB6_5StateNtNtNtCslPMlHj3qn2H_13multiversx_sc3abi8type_abi7TypeAbi25provide_type_descriptionspEBa_
FN:285,_RINvXININtNtCshiqmisuHlyH_12lending_pool7proxies12lxoxno_proxysa_0pEINtB6_17AddLiquidityEventpENtNtNtCs5SUGlJDgeoS_19multiversx_sc_codec6single6top_en9TopEncode24top_encode_or_handle_errppEBa_
FN:284,_RNvXININtNtCshiqmisuHlyH_12lending_pool7proxies12lxoxno_proxys9_0pEINtB5_17AddLiquidityEventpENtNtNtCslPMlHj3qn2H_13multiversx_sc3abi8type_abi7TypeAbi9type_nameB9_
FN:284,_RINvXININtNtCshiqmisuHlyH_12lending_pool7proxies12lxoxno_proxys9_0pEINtB6_17AddLiquidityEventpENtNtNtCslPMlHj3qn2H_13multiversx_sc3abi8type_abi7TypeAbi25provide_type_descriptionspEBa_
FN:301,_RINvXININtNtCshiqmisuHlyH_12lending_pool7proxies12lxoxno_proxyse_0pEINtB6_20RemoveLiquidityEventpENtNtNtCs5SUGlJDgeoS_19multiversx_sc_codec6single6top_en9TopEncode24top_encode_or_handle_errppEBa_
FN:300,_RNvXININtNtCshiqmisuHlyH_12lending_pool7proxies12lxoxno_proxysd_0pEINtB5_20RemoveLiquidityEventpENtNtNtCslPMlHj3qn2H_13multiversx_sc3abi8type_abi7TypeAbi9type_nameB9_
FN:300,_RINvXININtNtCshiqmisuHlyH_12lending_pool7proxies12lxoxno_proxysd_0pEINtB6_20RemoveLiquidityEventpENtNtNtCslPMlHj3qn2H_13multiversx_sc3abi8type_abi7TypeAbi25provide_type_descriptionspEBa_
FN:319,_RINvXININtNtCshiqmisuHlyH_12lending_pool7proxies12lxoxno_proxysi_0pEINtB6_15AddRewardsEventpENtNtNtCs5SUGlJDgeoS_19multiversx_sc_codec6single6top_en9TopEncode24top_encode_or_handle_errppEBa_
FN:318,_RNvXININtNtCshiqmisuHlyH_12lending_pool7proxies12lxoxno_proxysh_0pEINtB5_15AddRewardsEventpENtNtNtCslPMlHj3qn2H_13multiversx_sc3abi8type_abi7TypeAbi9type_nameB9_
FN:318,_RINvXININtNtCshiqmisuHlyH_12lending_pool7proxies12lxoxno_proxysh_0pEINtB6_15AddRewardsEventpENtNtNtCslPMlHj3qn2H_13multiversx_sc3abi8type_abi7TypeAbi25provide_type_descriptionspEBa_
FN:46,_RINvMs_NtNtCs48qTgYy1n57_12lending_pool7proxies12lxoxno_proxyINtB5_25RsLiquidXoxnoProxyMethodsNtNtNtNtCs1rODQd5oASQ_22multiversx_sc_scenario6facade8world_tx18scenario_exec_call15ScenarioEnvExecNtNtNtNtNtCslPMlHj3qn2H_13multiversx_sc5types11interaction4expr12test_address11TestAddressuuE4initNtNtB39_21test_token_identifier19TestTokenIdentifierECs8iyf5MSkCde_5tests
FN:231,_RNvMs1_NtNtCs48qTgYy1n57_12lending_pool7proxies12lxoxno_proxyINtB5_25RsLiquidXoxnoProxyMethodsINtNtNtNtNtCslPMlHj3qn2H_13multiversx_sc5types11interaction7tx_exec9tx_env_sc7TxScEnvINtNtNtNtCs1rODQd5oASQ_22multiversx_sc_scenario3api7impl_vh12vm_hooks_api10VMHooksApiNtNtB2W_9debug_api15DebugApiBackendEEuRINtNtNtNtB1D_7managed7wrapped15managed_address14ManagedAddressB2R_EuE10main_tokenCs8iyf5MSkCde_5tests
FN:150,_RNvMs1_NtNtCs48qTgYy1n57_12lending_pool7proxies12lxoxno_proxyINtB5_25RsLiquidXoxnoProxyMethodsINtNtNtNtNtCslPMlHj3qn2H_13multiversx_sc5types11interaction7tx_exec9tx_env_sc7TxScEnvINtNtNtNtCs1rODQd5oASQ_22multiversx_sc_scenario3api7impl_vh12vm_hooks_api10VMHooksApiNtNtB2W_9debug_api15DebugApiBackendEEuRINtNtNtNtB1D_7managed7wrapped15managed_address14ManagedAddressB2R_EuE17get_exchange_rateCs8iyf5MSkCde_5tests
FN:23,_RNvXNtNtCs48qTgYy1n57_12lending_pool7proxies12lxoxno_proxyNtB2_18RsLiquidXoxnoProxyINtNtNtNtCslPMlHj3qn2H_13multiversx_sc5types11interaction8tx_proxy12TxProxyTraitINtNtNtB1o_7tx_exec9tx_env_sc7TxScEnvINtNtNtNtCs1rODQd5oASQ_22multiversx_sc_scenario3api7impl_vh12vm_hooks_api10VMHooksApiNtNtB3h_9debug_api15DebugApiBackendEEuRINtNtNtNtB1q_7managed7wrapped15managed_address14ManagedAddressB3c_EuE13proxy_methodsCs8iyf5MSkCde_5tests
FN:23,_RNvXNtNtCs48qTgYy1n57_12lending_pool7proxies12lxoxno_proxyNtB2_18RsLiquidXoxnoProxyINtNtNtNtCslPMlHj3qn2H_13multiversx_sc5types11interaction8tx_proxy12TxProxyTraitNtNtNtNtCs1rODQd5oASQ_22multiversx_sc_scenario6facade8world_tx18scenario_exec_call15ScenarioEnvExecNtNtNtB1o_4expr12test_address11TestAddressuuE13proxy_methodsCs8iyf5MSkCde_5tests
FNDA:0,_RNvXININtNtCshiqmisuHlyH_12lending_pool7proxies12lxoxno_proxy0ppppENtB5_18RsLiquidXoxnoProxyINtNtNtNtCslPMlHj3qn2H_13multiversx_sc5types11interaction8tx_proxy12TxProxyTraitppppE13proxy_methodsB9_
FNDA:0,_RINvMs_NtNtCshiqmisuHlyH_12lending_pool7proxies12lxoxno_proxyINtB5_25RsLiquidXoxnoProxyMethodsppupE4initpEB9_
FNDA:0,_RNvMs0_NtNtCshiqmisuHlyH_12lending_pool7proxies12lxoxno_proxyINtB5_25RsLiquidXoxnoProxyMethodsppppE7upgradeB9_
FNDA:0,_RINvMs1_NtNtCshiqmisuHlyH_12lending_pool7proxies12lxoxno_proxyINtB6_25RsLiquidXoxnoProxyMethodsppppE8delegatepEBa_
FNDA:0,_RNvMs1_NtNtCshiqmisuHlyH_12lending_pool7proxies12lxoxno_proxyINtB5_25RsLiquidXoxnoProxyMethodsppppE11un_delegateB9_
FNDA:0,_RNvMs1_NtNtCshiqmisuHlyH_12lending_pool7proxies12lxoxno_proxyINtB5_25RsLiquidXoxnoProxyMethodsppppE8withdrawB9_
FNDA:0,_RNvMs1_NtNtCshiqmisuHlyH_12lending_pool7proxies12lxoxno_proxyINtB5_25RsLiquidXoxnoProxyMethodsppppE11add_rewardsB9_
FNDA:0,_RINvMs1_NtNtCshiqmisuHlyH_12lending_pool7proxies12lxoxno_proxyINtB6_25RsLiquidXoxnoProxyMethodsppppE25get_ls_value_for_positionpEBa_
FNDA:0,_RINvMs1_NtNtCshiqmisuHlyH_12lending_pool7proxies12lxoxno_proxyINtB6_25RsLiquidXoxnoProxyMethodsppppE26get_ls_amount_for_positionpEBa_
FNDA:0,_RNvMs1_NtNtCshiqmisuHlyH_12lending_pool7proxies12lxoxno_proxyINtB5_25RsLiquidXoxnoProxyMethodsppppE17get_exchange_rateB9_
FNDA:0,_RINvMs1_NtNtCshiqmisuHlyH_12lending_pool7proxies12lxoxno_proxyINtB6_25RsLiquidXoxnoProxyMethodsppppE17register_ls_tokenpppEBa_
FNDA:0,_RINvMs1_NtNtCshiqmisuHlyH_12lending_pool7proxies12lxoxno_proxyINtB6_25RsLiquidXoxnoProxyMethodsppppE22register_unstake_tokenpppEBa_
FNDA:0,_RNvMs1_NtNtCshiqmisuHlyH_12lending_pool7proxies12lxoxno_proxyINtB5_25RsLiquidXoxnoProxyMethodsppppE16set_state_activeB9_
FNDA:0,_RNvMs1_NtNtCshiqmisuHlyH_12lending_pool7proxies12lxoxno_proxyINtB5_25RsLiquidXoxnoProxyMethodsppppE18set_state_inactiveB9_
FNDA:0,_RNvMs1_NtNtCshiqmisuHlyH_12lending_pool7proxies12lxoxno_proxyINtB5_25RsLiquidXoxnoProxyMethodsppppE5stateB9_
FNDA:0,_RNvMs1_NtNtCshiqmisuHlyH_12lending_pool7proxies12lxoxno_proxyINtB5_25RsLiquidXoxnoProxyMethodsppppE8ls_tokenB9_
FNDA:0,_RNvMs1_NtNtCshiqmisuHlyH_12lending_pool7proxies12lxoxno_proxyINtB5_25RsLiquidXoxnoProxyMethodsppppE10main_tokenB9_
FNDA:0,_RNvMs1_NtNtCshiqmisuHlyH_12lending_pool7proxies12lxoxno_proxyINtB5_25RsLiquidXoxnoProxyMethodsppppE15ls_token_supplyB9_
FNDA:0,_RNvMs1_NtNtCshiqmisuHlyH_12lending_pool7proxies12lxoxno_proxyINtB5_25RsLiquidXoxnoProxyMethodsppppE21virtual_xoxno_reserveB9_
FNDA:0,_RNvMs1_NtNtCshiqmisuHlyH_12lending_pool7proxies12lxoxno_proxyINtB5_25RsLiquidXoxnoProxyMethodsppppE13unstake_tokenB9_
FNDA:0,_RNvMs1_NtNtCshiqmisuHlyH_12lending_pool7proxies12lxoxno_proxyINtB5_25RsLiquidXoxnoProxyMethodsppppE20unstake_token_supplyB9_
FNDA:0,_RINvXs5_NtNtCshiqmisuHlyH_12lending_pool7proxies12lxoxno_proxyNtB6_5StateNtNtNtCs5SUGlJDgeoS_19multiversx_sc_codec6single6top_en9TopEncode24top_encode_or_handle_errppEBa_
FNDA:0,_RINvXs6_NtNtCshiqmisuHlyH_12lending_pool7proxies12lxoxno_proxyNtB6_5StateNtNtNtCs5SUGlJDgeoS_19multiversx_sc_codec6single6top_de9TopDecode24top_decode_or_handle_errppEBa_
FNDA:0,_RNvXs4_NtNtCshiqmisuHlyH_12lending_pool7proxies12lxoxno_proxyNtB5_5StateNtNtNtCslPMlHj3qn2H_13multiversx_sc3abi8type_abi7TypeAbi9type_name
FNDA:0,_RINvXs4_NtNtCshiqmisuHlyH_12lending_pool7proxies12lxoxno_proxyNtB6_5StateNtNtNtCslPMlHj3qn2H_13multiversx_sc3abi8type_abi7TypeAbi25provide_type_descriptionspEBa_
FNDA:0,_RINvXININtNtCshiqmisuHlyH_12lending_pool7proxies12lxoxno_proxysa_0pEINtB6_17AddLiquidityEventpENtNtNtCs5SUGlJDgeoS_19multiversx_sc_codec6single6top_en9TopEncode24top_encode_or_handle_errppEBa_
FNDA:0,_RNvXININtNtCshiqmisuHlyH_12lending_pool7proxies12lxoxno_proxys9_0pEINtB5_17AddLiquidityEventpENtNtNtCslPMlHj3qn2H_13multiversx_sc3abi8type_abi7TypeAbi9type_nameB9_
FNDA:0,_RINvXININtNtCshiqmisuHlyH_12lending_pool7proxies12lxoxno_proxys9_0pEINtB6_17AddLiquidityEventpENtNtNtCslPMlHj3qn2H_13multiversx_sc3abi8type_abi7TypeAbi25provide_type_descriptionspEBa_
FNDA:0,_RINvXININtNtCshiqmisuHlyH_12lending_pool7proxies12lxoxno_proxyse_0pEINtB6_20RemoveLiquidityEventpENtNtNtCs5SUGlJDgeoS_19multiversx_sc_codec6single6top_en9TopEncode24top_encode_or_handle_errppEBa_
FNDA:0,_RNvXININtNtCshiqmisuHlyH_12lending_pool7proxies12lxoxno_proxysd_0pEINtB5_20RemoveLiquidityEventpENtNtNtCslPMlHj3qn2H_13multiversx_sc3abi8type_abi7TypeAbi9type_nameB9_
FNDA:0,_RINvXININtNtCshiqmisuHlyH_12lending_pool7proxies12lxoxno_proxysd_0pEINtB6_20RemoveLiquidityEventpENtNtNtCslPMlHj3qn2H_13multiversx_sc3abi8type_abi7TypeAbi25provide_type_descriptionspEBa_
FNDA:0,_RINvXININtNtCshiqmisuHlyH_12lending_pool7proxies12lxoxno_proxysi_0pEINtB6_15AddRewardsEventpENtNtNtCs5SUGlJDgeoS_19multiversx_sc_codec6single6top_en9TopEncode24top_encode_or_handle_errppEBa_
FNDA:0,_RNvXININtNtCshiqmisuHlyH_12lending_pool7proxies12lxoxno_proxysh_0pEINtB5_15AddRewardsEventpENtNtNtCslPMlHj3qn2H_13multiversx_sc3abi8type_abi7TypeAbi9type_nameB9_
FNDA:0,_RINvXININtNtCshiqmisuHlyH_12lending_pool7proxies12lxoxno_proxysh_0pEINtB6_15AddRewardsEventpENtNtNtCslPMlHj3qn2H_13multiversx_sc3abi8type_abi7TypeAbi25provide_type_descriptionspEBa_
FNDA:48,_RINvMs_NtNtCs48qTgYy1n57_12lending_pool7proxies12lxoxno_proxyINtB5_25RsLiquidXoxnoProxyMethodsNtNtNtNtCs1rODQd5oASQ_22multiversx_sc_scenario6facade8world_tx18scenario_exec_call15ScenarioEnvExecNtNtNtNtNtCslPMlHj3qn2H_13multiversx_sc5types11interaction4expr12test_address11TestAddressuuE4initNtNtB39_21test_token_identifier19TestTokenIdentifierECs8iyf5MSkCde_5tests
FNDA:48,_RNvMs1_NtNtCs48qTgYy1n57_12lending_pool7proxies12lxoxno_proxyINtB5_25RsLiquidXoxnoProxyMethodsINtNtNtNtNtCslPMlHj3qn2H_13multiversx_sc5types11interaction7tx_exec9tx_env_sc7TxScEnvINtNtNtNtCs1rODQd5oASQ_22multiversx_sc_scenario3api7impl_vh12vm_hooks_api10VMHooksApiNtNtB2W_9debug_api15DebugApiBackendEEuRINtNtNtNtB1D_7managed7wrapped15managed_address14ManagedAddressB2R_EuE10main_tokenCs8iyf5MSkCde_5tests
FNDA:0,_RNvMs1_NtNtCs48qTgYy1n57_12lending_pool7proxies12lxoxno_proxyINtB5_25RsLiquidXoxnoProxyMethodsINtNtNtNtNtCslPMlHj3qn2H_13multiversx_sc5types11interaction7tx_exec9tx_env_sc7TxScEnvINtNtNtNtCs1rODQd5oASQ_22multiversx_sc_scenario3api7impl_vh12vm_hooks_api10VMHooksApiNtNtB2W_9debug_api15DebugApiBackendEEuRINtNtNtNtB1D_7managed7wrapped15managed_address14ManagedAddressB2R_EuE17get_exchange_rateCs8iyf5MSkCde_5tests
FNDA:48,_RNvXNtNtCs48qTgYy1n57_12lending_pool7proxies12lxoxno_proxyNtB2_18RsLiquidXoxnoProxyINtNtNtNtCslPMlHj3qn2H_13multiversx_sc5types11interaction8tx_proxy12TxProxyTraitINtNtNtB1o_7tx_exec9tx_env_sc7TxScEnvINtNtNtNtCs1rODQd5oASQ_22multiversx_sc_scenario3api7impl_vh12vm_hooks_api10VMHooksApiNtNtB3h_9debug_api15DebugApiBackendEEuRINtNtNtNtB1q_7managed7wrapped15managed_address14ManagedAddressB3c_EuE13proxy_methodsCs8iyf5MSkCde_5tests
FNDA:48,_RNvXNtNtCs48qTgYy1n57_12lending_pool7proxies12lxoxno_proxyNtB2_18RsLiquidXoxnoProxyINtNtNtNtCslPMlHj3qn2H_13multiversx_sc5types11interaction8tx_proxy12TxProxyTraitNtNtNtNtCs1rODQd5oASQ_22multiversx_sc_scenario6facade8world_tx18scenario_exec_call15ScenarioEnvExecNtNtNtB1o_4expr12test_address11TestAddressuuE13proxy_methodsCs8iyf5MSkCde_5tests
FNF:30
FNH:3
DA:23,96
DA:24,96
DA:25,96
DA:46,48
DA:47,48
DA:48,48
DA:49,48
DA:50,48
DA:51,48
DA:52,48
DA:53,48
DA:54,48
DA:55,48
DA:56,48
DA:57,48
DA:69,0
DA:70,0
DA:71,0
DA:72,0
DA:73,0
DA:74,0
DA:75,0
DA:76,0
DA:88,0
DA:89,0
DA:90,0
DA:91,0
DA:92,0
DA:93,0
DA:94,0
DA:95,0
DA:96,0
DA:97,0
DA:98,0
DA:100,0
DA:101,0
DA:102,0
DA:103,0
DA:104,0
DA:105,0
DA:106,0
DA:108,0
DA:109,0
DA:110,0
DA:111,0
DA:112,0
DA:113,0
DA:114,0
DA:116,0
DA:117,0
DA:118,0
DA:119,0
DA:120,0
DA:121,0
DA:122,0
DA:124,0
DA:125,0
DA:126,0
DA:127,0
DA:128,0
DA:129,0
DA:130,0
DA:131,0
DA:132,0
DA:133,0
DA:134,0
DA:135,0
DA:137,0
DA:138,0
DA:139,0
DA:140,0
DA:141,0
DA:142,0
DA:143,0
DA:144,0
DA:145,0
DA:146,0
DA:147,0
DA:148,0
DA:150,0
DA:151,0
DA:152,0
DA:153,0
DA:154,0
DA:155,0
DA:156,0
DA:157,0
DA:159,0
DA:160,0
DA:161,0
DA:162,0
DA:163,0
DA:164,0
DA:165,0
DA:166,0
DA:167,0
DA:168,0
DA:169,0
DA:170,0
DA:171,0
DA:172,0
DA:173,0
DA:174,0
DA:175,0
DA:177,0
DA:178,0
DA:179,0
DA:180,0
DA:181,0
DA:182,0
DA:183,0
DA:184,0
DA:185,0
DA:186,0
DA:187,0
DA:188,0
DA:189,0
DA:190,0
DA:191,0
DA:192,0
DA:193,0
DA:195,0
DA:196,0
DA:197,0
DA:198,0
DA:199,0
DA:200,0
DA:201,0
DA:202,0
DA:204,0
DA:205,0
DA:206,0
DA:207,0
DA:208,0
DA:209,0
DA:210,0
DA:211,0
DA:213,0
DA:214,0
DA:215,0
DA:216,0
DA:217,0
DA:218,0
DA:219,0
DA:220,0
DA:222,0
DA:223,0
DA:224,0
DA:225,0
DA:226,0
DA:227,0
DA:228,0
DA:229,0
DA:231,48
DA:232,48
DA:233,48
DA:234,48
DA:235,48
DA:236,48
DA:237,48
DA:238,48
DA:240,0
DA:241,0
DA:242,0
DA:243,0
DA:244,0
DA:245,0
DA:246,0
DA:247,0
DA:249,0
DA:250,0
DA:251,0
DA:252,0
DA:253,0
DA:254,0
DA:255,0
DA:256,0
DA:258,0
DA:259,0
DA:260,0
DA:261,0
DA:262,0
DA:263,0
DA:264,0
DA:265,0
DA:267,0
DA:268,0
DA:269,0
DA:270,0
DA:271,0
DA:272,0
DA:273,0
DA:274,0
DA:277,0
DA:278,0
DA:284,0
DA:285,0
DA:300,0
DA:301,0
DA:318,0
DA:319,0
BRF:0
BRH:0
LF:202
LH:23
end_of_record
SF:/Users/mihaieremia/GitHub/rs-lending/lending_pool/src/proxies/proxy_accumulator.rs
FN:23,_RNvXININtNtCshiqmisuHlyH_12lending_pool7proxies17proxy_accumulator0ppppENtB5_16AccumulatorProxyINtNtNtNtCslPMlHj3qn2H_13multiversx_sc5types11interaction8tx_proxy12TxProxyTraitppppE13proxy_methodsB9_
FN:46,_RINvMs_NtNtCshiqmisuHlyH_12lending_pool7proxies17proxy_accumulatorINtB5_23AccumulatorProxyMethodsppupE4initppppppEB9_
FN:84,_RINvMs0_NtNtCshiqmisuHlyH_12lending_pool7proxies17proxy_accumulatorINtB6_23AccumulatorProxyMethodsppppE7upgradeppppppEBa_
FN:122,_RNvMs1_NtNtCshiqmisuHlyH_12lending_pool7proxies17proxy_accumulatorINtB5_23AccumulatorProxyMethodsppppE7depositB9_
FN:130,_RINvMs1_NtNtCshiqmisuHlyH_12lending_pool7proxies17proxy_accumulatorINtB6_23AccumulatorProxyMethodsppppE17deposit_royaltiespEBa_
FN:142,_RINvMs1_NtNtCshiqmisuHlyH_12lending_pool7proxies17proxy_accumulatorINtB6_23AccumulatorProxyMethodsppppE10distributeppppEBa_
FN:164,_RINvMs1_NtNtCshiqmisuHlyH_12lending_pool7proxies17proxy_accumulatorINtB6_23AccumulatorProxyMethodsppppE20distribute_royaltiespppppEBa_
FN:189,_RNvMs1_NtNtCshiqmisuHlyH_12lending_pool7proxies17proxy_accumulatorINtB5_23AccumulatorProxyMethodsppppE23claim_protocol_reservesB9_
FN:198,_RNvMs1_NtNtCshiqmisuHlyH_12lending_pool7proxies17proxy_accumulatorINtB5_23AccumulatorProxyMethodsppppE7reserveB9_
FN:207,_RNvMs1_NtNtCshiqmisuHlyH_12lending_pool7proxies17proxy_accumulatorINtB5_23AccumulatorProxyMethodsppppE12reward_tokenB9_
FN:216,_RNvMs1_NtNtCshiqmisuHlyH_12lending_pool7proxies17proxy_accumulatorINtB5_23AccumulatorProxyMethodsppppE19liquid_reward_tokenB9_
FN:225,_RNvMs1_NtNtCshiqmisuHlyH_12lending_pool7proxies17proxy_accumulatorINtB5_23AccumulatorProxyMethodsppppE9burn_rateB9_
FN:234,_RNvMs1_NtNtCshiqmisuHlyH_12lending_pool7proxies17proxy_accumulatorINtB5_23AccumulatorProxyMethodsppppE10share_rateB9_
FN:243,_RNvMs1_NtNtCshiqmisuHlyH_12lending_pool7proxies17proxy_accumulatorINtB5_23AccumulatorProxyMethodsppppE6tokensB9_
FN:252,_RINvMs1_NtNtCshiqmisuHlyH_12lending_pool7proxies17proxy_accumulatorINtB6_23AccumulatorProxyMethodsppppE13token_balancepEBa_
FN:265,_RNvMs1_NtNtCshiqmisuHlyH_12lending_pool7proxies17proxy_accumulatorINtB5_23AccumulatorProxyMethodsppppE8creatorsB9_
FN:274,_RINvMs1_NtNtCshiqmisuHlyH_12lending_pool7proxies17proxy_accumulatorINtB6_23AccumulatorProxyMethodsppppE14creator_tokenspEBa_
FN:287,_RINvMs1_NtNtCshiqmisuHlyH_12lending_pool7proxies17proxy_accumulatorINtB6_23AccumulatorProxyMethodsppppE17creator_royaltiesppEBa_
FN:303,_RNvMs1_NtNtCshiqmisuHlyH_12lending_pool7proxies17proxy_accumulatorINtB5_23AccumulatorProxyMethodsppppE15xoxno_liquid_scB9_
FN:312,_RNvMs1_NtNtCshiqmisuHlyH_12lending_pool7proxies17proxy_accumulatorINtB5_23AccumulatorProxyMethodsppppE6ash_scB9_
FN:321,_RINvMs1_NtNtCshiqmisuHlyH_12lending_pool7proxies17proxy_accumulatorINtB6_23AccumulatorProxyMethodsppppE21get_creator_royaltiespEBa_
FN:334,_RNvMs1_NtNtCshiqmisuHlyH_12lending_pool7proxies17proxy_accumulatorINtB5_23AccumulatorProxyMethodsppppE25get_all_creator_royaltiesB9_
FN:343,_RNvMs1_NtNtCshiqmisuHlyH_12lending_pool7proxies17proxy_accumulatorINtB5_23AccumulatorProxyMethodsppppE22get_real_yield_pendingB9_
FN:354,_RINvXININtNtCshiqmisuHlyH_12lending_pool7proxies17proxy_accumulators5_0pEINtB6_14AggregatorSteppENtNtNtCs5SUGlJDgeoS_19multiversx_sc_codec6single6top_en9TopEncode24top_encode_or_handle_errppEBa_
FN:354,_RINvXININtNtCshiqmisuHlyH_12lending_pool7proxies17proxy_accumulators6_0pEINtB6_14AggregatorSteppENtNtNtCs5SUGlJDgeoS_19multiversx_sc_codec6single6top_de9TopDecode24top_decode_or_handle_errppEBa_
FN:354,_RINvXININtNtCshiqmisuHlyH_12lending_pool7proxies17proxy_accumulators7_0pEINtB6_14AggregatorSteppENtNtNtCs5SUGlJDgeoS_19multiversx_sc_codec6single9nested_en12NestedEncode24dep_encode_or_handle_errppEBa_
FN:354,_RINvXININtNtCshiqmisuHlyH_12lending_pool7proxies17proxy_accumulators8_0pEINtB6_14AggregatorSteppENtNtNtCs5SUGlJDgeoS_19multiversx_sc_codec6single9nested_de12NestedDecode24dep_decode_or_handle_errppEBa_
FN:354,_RINvXININtNtCshiqmisuHlyH_12lending_pool7proxies17proxy_accumulatorsc_0pEINtB6_14AggregatorSteppENtNtNtNtNtCslPMlHj3qn2H_13multiversx_sc5types7managed7wrapped16managed_vec_item14ManagedVecItem16from_byte_readerpEBa_
FN:354,_RNCINvXININtNtCshiqmisuHlyH_12lending_pool7proxies17proxy_accumulatorsc_0pEINtB8_14AggregatorSteppENtNtNtNtNtCslPMlHj3qn2H_13multiversx_sc5types7managed7wrapped16managed_vec_item14ManagedVecItem16from_byte_readerpE0Bc_
FN:354,_RNCINvXININtNtCshiqmisuHlyH_12lending_pool7proxies17proxy_accumulatorsc_0pEINtB8_14AggregatorSteppENtNtNtNtNtCslPMlHj3qn2H_13multiversx_sc5types7managed7wrapped16managed_vec_item14ManagedVecItem16from_byte_readerpEs_0Bc_
FN:354,_RNCINvXININtNtCshiqmisuHlyH_12lending_pool7proxies17proxy_accumulatorsc_0pEINtB8_14AggregatorSteppENtNtNtNtNtCslPMlHj3qn2H_13multiversx_sc5types7managed7wrapped16managed_vec_item14ManagedVecItem16from_byte_readerpEs0_0Bc_
FN:354,_RNCINvXININtNtCshiqmisuHlyH_12lending_pool7proxies17proxy_accumulatorsc_0pEINtB8_14AggregatorSteppENtNtNtNtNtCslPMlHj3qn2H_13multiversx_sc5types7managed7wrapped16managed_vec_item14ManagedVecItem16from_byte_readerpEs1_0Bc_
FN:354,_RNCINvXININtNtCshiqmisuHlyH_12lending_pool7proxies17proxy_accumulatorsc_0pEINtB8_14AggregatorSteppENtNtNtNtNtCslPMlHj3qn2H_13multiversx_sc5types7managed7wrapped16managed_vec_item14ManagedVecItem16from_byte_readerpEs2_0Bc_
FN:354,_RNCINvXININtNtCshiqmisuHlyH_12lending_pool7proxies17proxy_accumulatorsc_0pEINtB8_14AggregatorSteppENtNtNtNtNtCslPMlHj3qn2H_13multiversx_sc5types7managed7wrapped16managed_vec_item14ManagedVecItem16from_byte_readerpEs3_0Bc_
FN:354,_RINvXININtNtCshiqmisuHlyH_12lending_pool7proxies17proxy_accumulatorsc_0pEINtB6_14AggregatorSteppENtNtNtNtNtCslPMlHj3qn2H_13multiversx_sc5types7managed7wrapped16managed_vec_item14ManagedVecItem26from_byte_reader_as_borrowpEBa_
FN:354,_RINvXININtNtCshiqmisuHlyH_12lending_pool7proxies17proxy_accumulatorsc_0pEINtB6_14AggregatorSteppENtNtNtNtNtCslPMlHj3qn2H_13multiversx_sc5types7managed7wrapped16managed_vec_item14ManagedVecItem16into_byte_writerppEBa_
FN:354,_RNCINvXININtNtCshiqmisuHlyH_12lending_pool7proxies17proxy_accumulatorsc_0pEINtB8_14AggregatorSteppENtNtNtNtNtCslPMlHj3qn2H_13multiversx_sc5types7managed7wrapped16managed_vec_item14ManagedVecItem16into_byte_writerppE0Bc_
FN:354,_RNCINvXININtNtCshiqmisuHlyH_12lending_pool7proxies17proxy_accumulatorsc_0pEINtB8_14AggregatorSteppENtNtNtNtNtCslPMlHj3qn2H_13multiversx_sc5types7managed7wrapped16managed_vec_item14ManagedVecItem16into_byte_writerppEs_0Bc_
FN:354,_RNCINvXININtNtCshiqmisuHlyH_12lending_pool7proxies17proxy_accumulatorsc_0pEINtB8_14AggregatorSteppENtNtNtNtNtCslPMlHj3qn2H_13multiversx_sc5types7managed7wrapped16managed_vec_item14ManagedVecItem16into_byte_writerppEs0_0Bc_
FN:354,_RNCINvXININtNtCshiqmisuHlyH_12lending_pool7proxies17proxy_accumulatorsc_0pEINtB8_14AggregatorSteppENtNtNtNtNtCslPMlHj3qn2H_13multiversx_sc5types7managed7wrapped16managed_vec_item14ManagedVecItem16into_byte_writerppEs1_0Bc_
FN:354,_RNCINvXININtNtCshiqmisuHlyH_12lending_pool7proxies17proxy_accumulatorsc_0pEINtB8_14AggregatorSteppENtNtNtNtNtCslPMlHj3qn2H_13multiversx_sc5types7managed7wrapped16managed_vec_item14ManagedVecItem16into_byte_writerppEs2_0Bc_
FN:354,_RNCINvXININtNtCshiqmisuHlyH_12lending_pool7proxies17proxy_accumulatorsc_0pEINtB8_14AggregatorSteppENtNtNtNtNtCslPMlHj3qn2H_13multiversx_sc5types7managed7wrapped16managed_vec_item14ManagedVecItem16into_byte_writerppEs3_0Bc_
FN:353,_RNvXININtNtCshiqmisuHlyH_12lending_pool7proxies17proxy_accumulators4_0pEINtB5_14AggregatorSteppENtNtNtCslPMlHj3qn2H_13multiversx_sc3abi8type_abi7TypeAbi9type_nameB9_
FN:353,_RINvXININtNtCshiqmisuHlyH_12lending_pool7proxies17proxy_accumulators4_0pEINtB6_14AggregatorSteppENtNtNtCslPMlHj3qn2H_13multiversx_sc3abi8type_abi7TypeAbi25provide_type_descriptionspEBa_
FN:368,_RINvXININtNtCshiqmisuHlyH_12lending_pool7proxies17proxy_accumulatorsg_0pEINtB6_11TokenAmountpENtNtNtCs5SUGlJDgeoS_19multiversx_sc_codec6single6top_en9TopEncode24top_encode_or_handle_errppEBa_
FN:368,_RINvXININtNtCshiqmisuHlyH_12lending_pool7proxies17proxy_accumulatorsh_0pEINtB6_11TokenAmountpENtNtNtCs5SUGlJDgeoS_19multiversx_sc_codec6single6top_de9TopDecode24top_decode_or_handle_errppEBa_
FN:368,_RINvXININtNtCshiqmisuHlyH_12lending_pool7proxies17proxy_accumulatorsi_0pEINtB6_11TokenAmountpENtNtNtCs5SUGlJDgeoS_19multiversx_sc_codec6single9nested_en12NestedEncode24dep_encode_or_handle_errppEBa_
FN:368,_RINvXININtNtCshiqmisuHlyH_12lending_pool7proxies17proxy_accumulatorsj_0pEINtB6_11TokenAmountpENtNtNtCs5SUGlJDgeoS_19multiversx_sc_codec6single9nested_de12NestedDecode24dep_decode_or_handle_errppEBa_
FN:368,_RINvXININtNtCshiqmisuHlyH_12lending_pool7proxies17proxy_accumulatorsn_0pEINtB6_11TokenAmountpENtNtNtNtNtCslPMlHj3qn2H_13multiversx_sc5types7managed7wrapped16managed_vec_item14ManagedVecItem16from_byte_readerpEBa_
FN:368,_RNCINvXININtNtCshiqmisuHlyH_12lending_pool7proxies17proxy_accumulatorsn_0pEINtB8_11TokenAmountpENtNtNtNtNtCslPMlHj3qn2H_13multiversx_sc5types7managed7wrapped16managed_vec_item14ManagedVecItem16from_byte_readerpE0Bc_
FN:368,_RNCINvXININtNtCshiqmisuHlyH_12lending_pool7proxies17proxy_accumulatorsn_0pEINtB8_11TokenAmountpENtNtNtNtNtCslPMlHj3qn2H_13multiversx_sc5types7managed7wrapped16managed_vec_item14ManagedVecItem16from_byte_readerpEs_0Bc_
FN:368,_RINvXININtNtCshiqmisuHlyH_12lending_pool7proxies17proxy_accumulatorsn_0pEINtB6_11TokenAmountpENtNtNtNtNtCslPMlHj3qn2H_13multiversx_sc5types7managed7wrapped16managed_vec_item14ManagedVecItem26from_byte_reader_as_borrowpEBa_
FN:368,_RINvXININtNtCshiqmisuHlyH_12lending_pool7proxies17proxy_accumulatorsn_0pEINtB6_11TokenAmountpENtNtNtNtNtCslPMlHj3qn2H_13multiversx_sc5types7managed7wrapped16managed_vec_item14ManagedVecItem16into_byte_writerppEBa_
FN:368,_RNCINvXININtNtCshiqmisuHlyH_12lending_pool7proxies17proxy_accumulatorsn_0pEINtB8_11TokenAmountpENtNtNtNtNtCslPMlHj3qn2H_13multiversx_sc5types7managed7wrapped16managed_vec_item14ManagedVecItem16into_byte_writerppE0Bc_
FN:368,_RNCINvXININtNtCshiqmisuHlyH_12lending_pool7proxies17proxy_accumulatorsn_0pEINtB8_11TokenAmountpENtNtNtNtNtCslPMlHj3qn2H_13multiversx_sc5types7managed7wrapped16managed_vec_item14ManagedVecItem16into_byte_writerppEs_0Bc_
FN:367,_RNvXININtNtCshiqmisuHlyH_12lending_pool7proxies17proxy_accumulatorsf_0pEINtB5_11TokenAmountpENtNtNtCslPMlHj3qn2H_13multiversx_sc3abi8type_abi7TypeAbi9type_nameB9_
FN:367,_RINvXININtNtCshiqmisuHlyH_12lending_pool7proxies17proxy_accumulatorsf_0pEINtB6_11TokenAmountpENtNtNtCslPMlHj3qn2H_13multiversx_sc3abi8type_abi7TypeAbi25provide_type_descriptionspEBa_
FN:378,_RINvXININtNtCshiqmisuHlyH_12lending_pool7proxies17proxy_accumulatorsr_0pEINtB6_16CreatorRoyaltiespENtNtNtCs5SUGlJDgeoS_19multiversx_sc_codec6single6top_en9TopEncode24top_encode_or_handle_errppEBa_
FN:378,_RINvXININtNtCshiqmisuHlyH_12lending_pool7proxies17proxy_accumulatorss_0pEINtB6_16CreatorRoyaltiespENtNtNtCs5SUGlJDgeoS_19multiversx_sc_codec6single6top_de9TopDecode24top_decode_or_handle_errppEBa_
FN:378,_RINvXININtNtCshiqmisuHlyH_12lending_pool7proxies17proxy_accumulatorst_0pEINtB6_16CreatorRoyaltiespENtNtNtCs5SUGlJDgeoS_19multiversx_sc_codec6single9nested_en12NestedEncode24dep_encode_or_handle_errppEBa_
FN:378,_RINvXININtNtCshiqmisuHlyH_12lending_pool7proxies17proxy_accumulatorsu_0pEINtB6_16CreatorRoyaltiespENtNtNtCs5SUGlJDgeoS_19multiversx_sc_codec6single9nested_de12NestedDecode24dep_decode_or_handle_errppEBa_
FN:378,_RINvXININtNtCshiqmisuHlyH_12lending_pool7proxies17proxy_accumulatorsy_0pEINtB6_16CreatorRoyaltiespENtNtNtNtNtCslPMlHj3qn2H_13multiversx_sc5types7managed7wrapped16managed_vec_item14ManagedVecItem16from_byte_readerpEBa_
FN:378,_RNCINvXININtNtCshiqmisuHlyH_12lending_pool7proxies17proxy_accumulatorsy_0pEINtB8_16CreatorRoyaltiespENtNtNtNtNtCslPMlHj3qn2H_13multiversx_sc5types7managed7wrapped16managed_vec_item14ManagedVecItem16from_byte_readerpE0Bc_
FN:378,_RNCINvXININtNtCshiqmisuHlyH_12lending_pool7proxies17proxy_accumulatorsy_0pEINtB8_16CreatorRoyaltiespENtNtNtNtNtCslPMlHj3qn2H_13multiversx_sc5types7managed7wrapped16managed_vec_item14ManagedVecItem16from_byte_readerpEs_0Bc_
FN:378,_RINvXININtNtCshiqmisuHlyH_12lending_pool7proxies17proxy_accumulatorsy_0pEINtB6_16CreatorRoyaltiespENtNtNtNtNtCslPMlHj3qn2H_13multiversx_sc5types7managed7wrapped16managed_vec_item14ManagedVecItem26from_byte_reader_as_borrowpEBa_
FN:378,_RINvXININtNtCshiqmisuHlyH_12lending_pool7proxies17proxy_accumulatorsy_0pEINtB6_16CreatorRoyaltiespENtNtNtNtNtCslPMlHj3qn2H_13multiversx_sc5types7managed7wrapped16managed_vec_item14ManagedVecItem16into_byte_writerppEBa_
FN:378,_RNCINvXININtNtCshiqmisuHlyH_12lending_pool7proxies17proxy_accumulatorsy_0pEINtB8_16CreatorRoyaltiespENtNtNtNtNtCslPMlHj3qn2H_13multiversx_sc5types7managed7wrapped16managed_vec_item14ManagedVecItem16into_byte_writerppE0Bc_
FN:378,_RNCINvXININtNtCshiqmisuHlyH_12lending_pool7proxies17proxy_accumulatorsy_0pEINtB8_16CreatorRoyaltiespENtNtNtNtNtCslPMlHj3qn2H_13multiversx_sc5types7managed7wrapped16managed_vec_item14ManagedVecItem16into_byte_writerppEs_0Bc_
FN:377,_RNvXININtNtCshiqmisuHlyH_12lending_pool7proxies17proxy_accumulatorsq_0pEINtB5_16CreatorRoyaltiespENtNtNtCslPMlHj3qn2H_13multiversx_sc3abi8type_abi7TypeAbi9type_nameB9_
FN:377,_RINvXININtNtCshiqmisuHlyH_12lending_pool7proxies17proxy_accumulatorsq_0pEINtB6_16CreatorRoyaltiespENtNtNtCslPMlHj3qn2H_13multiversx_sc3abi8type_abi7TypeAbi25provide_type_descriptionspEBa_
FN:122,_RNvMs1_NtNtCs48qTgYy1n57_12lending_pool7proxies17proxy_accumulatorINtB5_23AccumulatorProxyMethodsINtNtNtNtNtCslPMlHj3qn2H_13multiversx_sc5types11interaction7tx_exec9tx_env_sc7TxScEnvINtNtNtNtCs1rODQd5oASQ_22multiversx_sc_scenario3api7impl_vh12vm_hooks_api10VMHooksApiNtNtB2Z_9debug_api15DebugApiBackendEEuRINtNtNtNtB1G_7managed7wrapped15managed_address14ManagedAddressB2U_EuE7depositCs8iyf5MSkCde_5tests
FN:23,_RNvXNtNtCs48qTgYy1n57_12lending_pool7proxies17proxy_accumulatorNtB2_16AccumulatorProxyINtNtNtNtCslPMlHj3qn2H_13multiversx_sc5types11interaction8tx_proxy12TxProxyTraitINtNtNtB1r_7tx_exec9tx_env_sc7TxScEnvINtNtNtNtCs1rODQd5oASQ_22multiversx_sc_scenario3api7impl_vh12vm_hooks_api10VMHooksApiNtNtB3k_9debug_api15DebugApiBackendEEuRINtNtNtNtB1t_7managed7wrapped15managed_address14ManagedAddressB3f_EuE13proxy_methodsCs8iyf5MSkCde_5tests
FNDA:0,_RNvXININtNtCshiqmisuHlyH_12lending_pool7proxies17proxy_accumulator0ppppENtB5_16AccumulatorProxyINtNtNtNtCslPMlHj3qn2H_13multiversx_sc5types11interaction8tx_proxy12TxProxyTraitppppE13proxy_methodsB9_
FNDA:0,_RINvMs_NtNtCshiqmisuHlyH_12lending_pool7proxies17proxy_accumulatorINtB5_23AccumulatorProxyMethodsppupE4initppppppEB9_
FNDA:0,_RINvMs0_NtNtCshiqmisuHlyH_12lending_pool7proxies17proxy_accumulatorINtB6_23AccumulatorProxyMethodsppppE7upgradeppppppEBa_
FNDA:0,_RNvMs1_NtNtCshiqmisuHlyH_12lending_pool7proxies17proxy_accumulatorINtB5_23AccumulatorProxyMethodsppppE7depositB9_
FNDA:0,_RINvMs1_NtNtCshiqmisuHlyH_12lending_pool7proxies17proxy_accumulatorINtB6_23AccumulatorProxyMethodsppppE17deposit_royaltiespEBa_
FNDA:0,_RINvMs1_NtNtCshiqmisuHlyH_12lending_pool7proxies17proxy_accumulatorINtB6_23AccumulatorProxyMethodsppppE10distributeppppEBa_
FNDA:0,_RINvMs1_NtNtCshiqmisuHlyH_12lending_pool7proxies17proxy_accumulatorINtB6_23AccumulatorProxyMethodsppppE20distribute_royaltiespppppEBa_
FNDA:0,_RNvMs1_NtNtCshiqmisuHlyH_12lending_pool7proxies17proxy_accumulatorINtB5_23AccumulatorProxyMethodsppppE23claim_protocol_reservesB9_
FNDA:0,_RNvMs1_NtNtCshiqmisuHlyH_12lending_pool7proxies17proxy_accumulatorINtB5_23AccumulatorProxyMethodsppppE7reserveB9_
FNDA:0,_RNvMs1_NtNtCshiqmisuHlyH_12lending_pool7proxies17proxy_accumulatorINtB5_23AccumulatorProxyMethodsppppE12reward_tokenB9_
FNDA:0,_RNvMs1_NtNtCshiqmisuHlyH_12lending_pool7proxies17proxy_accumulatorINtB5_23AccumulatorProxyMethodsppppE19liquid_reward_tokenB9_
FNDA:0,_RNvMs1_NtNtCshiqmisuHlyH_12lending_pool7proxies17proxy_accumulatorINtB5_23AccumulatorProxyMethodsppppE9burn_rateB9_
FNDA:0,_RNvMs1_NtNtCshiqmisuHlyH_12lending_pool7proxies17proxy_accumulatorINtB5_23AccumulatorProxyMethodsppppE10share_rateB9_
FNDA:0,_RNvMs1_NtNtCshiqmisuHlyH_12lending_pool7proxies17proxy_accumulatorINtB5_23AccumulatorProxyMethodsppppE6tokensB9_
FNDA:0,_RINvMs1_NtNtCshiqmisuHlyH_12lending_pool7proxies17proxy_accumulatorINtB6_23AccumulatorProxyMethodsppppE13token_balancepEBa_
FNDA:0,_RNvMs1_NtNtCshiqmisuHlyH_12lending_pool7proxies17proxy_accumulatorINtB5_23AccumulatorProxyMethodsppppE8creatorsB9_
FNDA:0,_RINvMs1_NtNtCshiqmisuHlyH_12lending_pool7proxies17proxy_accumulatorINtB6_23AccumulatorProxyMethodsppppE14creator_tokenspEBa_
FNDA:0,_RINvMs1_NtNtCshiqmisuHlyH_12lending_pool7proxies17proxy_accumulatorINtB6_23AccumulatorProxyMethodsppppE17creator_royaltiesppEBa_
FNDA:0,_RNvMs1_NtNtCshiqmisuHlyH_12lending_pool7proxies17proxy_accumulatorINtB5_23AccumulatorProxyMethodsppppE15xoxno_liquid_scB9_
FNDA:0,_RNvMs1_NtNtCshiqmisuHlyH_12lending_pool7proxies17proxy_accumulatorINtB5_23AccumulatorProxyMethodsppppE6ash_scB9_
FNDA:0,_RINvMs1_NtNtCshiqmisuHlyH_12lending_pool7proxies17proxy_accumulatorINtB6_23AccumulatorProxyMethodsppppE21get_creator_royaltiespEBa_
FNDA:0,_RNvMs1_NtNtCshiqmisuHlyH_12lending_pool7proxies17proxy_accumulatorINtB5_23AccumulatorProxyMethodsppppE25get_all_creator_royaltiesB9_
FNDA:0,_RNvMs1_NtNtCshiqmisuHlyH_12lending_pool7proxies17proxy_accumulatorINtB5_23AccumulatorProxyMethodsppppE22get_real_yield_pendingB9_
FNDA:0,_RINvXININtNtCshiqmisuHlyH_12lending_pool7proxies17proxy_accumulators5_0pEINtB6_14AggregatorSteppENtNtNtCs5SUGlJDgeoS_19multiversx_sc_codec6single6top_en9TopEncode24top_encode_or_handle_errppEBa_
FNDA:0,_RINvXININtNtCshiqmisuHlyH_12lending_pool7proxies17proxy_accumulators6_0pEINtB6_14AggregatorSteppENtNtNtCs5SUGlJDgeoS_19multiversx_sc_codec6single6top_de9TopDecode24top_decode_or_handle_errppEBa_
FNDA:0,_RINvXININtNtCshiqmisuHlyH_12lending_pool7proxies17proxy_accumulators7_0pEINtB6_14AggregatorSteppENtNtNtCs5SUGlJDgeoS_19multiversx_sc_codec6single9nested_en12NestedEncode24dep_encode_or_handle_errppEBa_
FNDA:0,_RINvXININtNtCshiqmisuHlyH_12lending_pool7proxies17proxy_accumulators8_0pEINtB6_14AggregatorSteppENtNtNtCs5SUGlJDgeoS_19multiversx_sc_codec6single9nested_de12NestedDecode24dep_decode_or_handle_errppEBa_
FNDA:0,_RINvXININtNtCshiqmisuHlyH_12lending_pool7proxies17proxy_accumulatorsc_0pEINtB6_14AggregatorSteppENtNtNtNtNtCslPMlHj3qn2H_13multiversx_sc5types7managed7wrapped16managed_vec_item14ManagedVecItem16from_byte_readerpEBa_
FNDA:0,_RNCINvXININtNtCshiqmisuHlyH_12lending_pool7proxies17proxy_accumulatorsc_0pEINtB8_14AggregatorSteppENtNtNtNtNtCslPMlHj3qn2H_13multiversx_sc5types7managed7wrapped16managed_vec_item14ManagedVecItem16from_byte_readerpE0Bc_
FNDA:0,_RNCINvXININtNtCshiqmisuHlyH_12lending_pool7proxies17proxy_accumulatorsc_0pEINtB8_14AggregatorSteppENtNtNtNtNtCslPMlHj3qn2H_13multiversx_sc5types7managed7wrapped16managed_vec_item14ManagedVecItem16from_byte_readerpEs_0Bc_
FNDA:0,_RNCINvXININtNtCshiqmisuHlyH_12lending_pool7proxies17proxy_accumulatorsc_0pEINtB8_14AggregatorSteppENtNtNtNtNtCslPMlHj3qn2H_13multiversx_sc5types7managed7wrapped16managed_vec_item14ManagedVecItem16from_byte_readerpEs0_0Bc_
FNDA:0,_RNCINvXININtNtCshiqmisuHlyH_12lending_pool7proxies17proxy_accumulatorsc_0pEINtB8_14AggregatorSteppENtNtNtNtNtCslPMlHj3qn2H_13multiversx_sc5types7managed7wrapped16managed_vec_item14ManagedVecItem16from_byte_readerpEs1_0Bc_
FNDA:0,_RNCINvXININtNtCshiqmisuHlyH_12lending_pool7proxies17proxy_accumulatorsc_0pEINtB8_14AggregatorSteppENtNtNtNtNtCslPMlHj3qn2H_13multiversx_sc5types7managed7wrapped16managed_vec_item14ManagedVecItem16from_byte_readerpEs2_0Bc_
FNDA:0,_RNCINvXININtNtCshiqmisuHlyH_12lending_pool7proxies17proxy_accumulatorsc_0pEINtB8_14AggregatorSteppENtNtNtNtNtCslPMlHj3qn2H_13multiversx_sc5types7managed7wrapped16managed_vec_item14ManagedVecItem16from_byte_readerpEs3_0Bc_
FNDA:0,_RINvXININtNtCshiqmisuHlyH_12lending_pool7proxies17proxy_accumulatorsc_0pEINtB6_14AggregatorSteppENtNtNtNtNtCslPMlHj3qn2H_13multiversx_sc5types7managed7wrapped16managed_vec_item14ManagedVecItem26from_byte_reader_as_borrowpEBa_
FNDA:0,_RINvXININtNtCshiqmisuHlyH_12lending_pool7proxies17proxy_accumulatorsc_0pEINtB6_14AggregatorSteppENtNtNtNtNtCslPMlHj3qn2H_13multiversx_sc5types7managed7wrapped16managed_vec_item14ManagedVecItem16into_byte_writerppEBa_
FNDA:0,_RNCINvXININtNtCshiqmisuHlyH_12lending_pool7proxies17proxy_accumulatorsc_0pEINtB8_14AggregatorSteppENtNtNtNtNtCslPMlHj3qn2H_13multiversx_sc5types7managed7wrapped16managed_vec_item14ManagedVecItem16into_byte_writerppE0Bc_
FNDA:0,_RNCINvXININtNtCshiqmisuHlyH_12lending_pool7proxies17proxy_accumulatorsc_0pEINtB8_14AggregatorSteppENtNtNtNtNtCslPMlHj3qn2H_13multiversx_sc5types7managed7wrapped16managed_vec_item14ManagedVecItem16into_byte_writerppEs_0Bc_
FNDA:0,_RNCINvXININtNtCshiqmisuHlyH_12lending_pool7proxies17proxy_accumulatorsc_0pEINtB8_14AggregatorSteppENtNtNtNtNtCslPMlHj3qn2H_13multiversx_sc5types7managed7wrapped16managed_vec_item14ManagedVecItem16into_byte_writerppEs0_0Bc_
FNDA:0,_RNCINvXININtNtCshiqmisuHlyH_12lending_pool7proxies17proxy_accumulatorsc_0pEINtB8_14AggregatorSteppENtNtNtNtNtCslPMlHj3qn2H_13multiversx_sc5types7managed7wrapped16managed_vec_item14ManagedVecItem16into_byte_writerppEs1_0Bc_
FNDA:0,_RNCINvXININtNtCshiqmisuHlyH_12lending_pool7proxies17proxy_accumulatorsc_0pEINtB8_14AggregatorSteppENtNtNtNtNtCslPMlHj3qn2H_13multiversx_sc5types7managed7wrapped16managed_vec_item14ManagedVecItem16into_byte_writerppEs2_0Bc_
FNDA:0,_RNCINvXININtNtCshiqmisuHlyH_12lending_pool7proxies17proxy_accumulatorsc_0pEINtB8_14AggregatorSteppENtNtNtNtNtCslPMlHj3qn2H_13multiversx_sc5types7managed7wrapped16managed_vec_item14ManagedVecItem16into_byte_writerppEs3_0Bc_
FNDA:0,_RNvXININtNtCshiqmisuHlyH_12lending_pool7proxies17proxy_accumulators4_0pEINtB5_14AggregatorSteppENtNtNtCslPMlHj3qn2H_13multiversx_sc3abi8type_abi7TypeAbi9type_nameB9_
FNDA:0,_RINvXININtNtCshiqmisuHlyH_12lending_pool7proxies17proxy_accumulators4_0pEINtB6_14AggregatorSteppENtNtNtCslPMlHj3qn2H_13multiversx_sc3abi8type_abi7TypeAbi25provide_type_descriptionspEBa_
FNDA:0,_RINvXININtNtCshiqmisuHlyH_12lending_pool7proxies17proxy_accumulatorsg_0pEINtB6_11TokenAmountpENtNtNtCs5SUGlJDgeoS_19multiversx_sc_codec6single6top_en9TopEncode24top_encode_or_handle_errppEBa_
FNDA:0,_RINvXININtNtCshiqmisuHlyH_12lending_pool7proxies17proxy_accumulatorsh_0pEINtB6_11TokenAmountpENtNtNtCs5SUGlJDgeoS_19multiversx_sc_codec6single6top_de9TopDecode24top_decode_or_handle_errppEBa_
FNDA:0,_RINvXININtNtCshiqmisuHlyH_12lending_pool7proxies17proxy_accumulatorsi_0pEINtB6_11TokenAmountpENtNtNtCs5SUGlJDgeoS_19multiversx_sc_codec6single9nested_en12NestedEncode24dep_encode_or_handle_errppEBa_
FNDA:0,_RINvXININtNtCshiqmisuHlyH_12lending_pool7proxies17proxy_accumulatorsj_0pEINtB6_11TokenAmountpENtNtNtCs5SUGlJDgeoS_19multiversx_sc_codec6single9nested_de12NestedDecode24dep_decode_or_handle_errppEBa_
FNDA:0,_RINvXININtNtCshiqmisuHlyH_12lending_pool7proxies17proxy_accumulatorsn_0pEINtB6_11TokenAmountpENtNtNtNtNtCslPMlHj3qn2H_13multiversx_sc5types7managed7wrapped16managed_vec_item14ManagedVecItem16from_byte_readerpEBa_
FNDA:0,_RNCINvXININtNtCshiqmisuHlyH_12lending_pool7proxies17proxy_accumulatorsn_0pEINtB8_11TokenAmountpENtNtNtNtNtCslPMlHj3qn2H_13multiversx_sc5types7managed7wrapped16managed_vec_item14ManagedVecItem16from_byte_readerpE0Bc_
FNDA:0,_RNCINvXININtNtCshiqmisuHlyH_12lending_pool7proxies17proxy_accumulatorsn_0pEINtB8_11TokenAmountpENtNtNtNtNtCslPMlHj3qn2H_13multiversx_sc5types7managed7wrapped16managed_vec_item14ManagedVecItem16from_byte_readerpEs_0Bc_
FNDA:0,_RINvXININtNtCshiqmisuHlyH_12lending_pool7proxies17proxy_accumulatorsn_0pEINtB6_11TokenAmountpENtNtNtNtNtCslPMlHj3qn2H_13multiversx_sc5types7managed7wrapped16managed_vec_item14ManagedVecItem26from_byte_reader_as_borrowpEBa_
FNDA:0,_RINvXININtNtCshiqmisuHlyH_12lending_pool7proxies17proxy_accumulatorsn_0pEINtB6_11TokenAmountpENtNtNtNtNtCslPMlHj3qn2H_13multiversx_sc5types7managed7wrapped16managed_vec_item14ManagedVecItem16into_byte_writerppEBa_
FNDA:0,_RNCINvXININtNtCshiqmisuHlyH_12lending_pool7proxies17proxy_accumulatorsn_0pEINtB8_11TokenAmountpENtNtNtNtNtCslPMlHj3qn2H_13multiversx_sc5types7managed7wrapped16managed_vec_item14ManagedVecItem16into_byte_writerppE0Bc_
FNDA:0,_RNCINvXININtNtCshiqmisuHlyH_12lending_pool7proxies17proxy_accumulatorsn_0pEINtB8_11TokenAmountpENtNtNtNtNtCslPMlHj3qn2H_13multiversx_sc5types7managed7wrapped16managed_vec_item14ManagedVecItem16into_byte_writerppEs_0Bc_
FNDA:0,_RNvXININtNtCshiqmisuHlyH_12lending_pool7proxies17proxy_accumulatorsf_0pEINtB5_11TokenAmountpENtNtNtCslPMlHj3qn2H_13multiversx_sc3abi8type_abi7TypeAbi9type_nameB9_
FNDA:0,_RINvXININtNtCshiqmisuHlyH_12lending_pool7proxies17proxy_accumulatorsf_0pEINtB6_11TokenAmountpENtNtNtCslPMlHj3qn2H_13multiversx_sc3abi8type_abi7TypeAbi25provide_type_descriptionspEBa_
FNDA:0,_RINvXININtNtCshiqmisuHlyH_12lending_pool7proxies17proxy_accumulatorsr_0pEINtB6_16CreatorRoyaltiespENtNtNtCs5SUGlJDgeoS_19multiversx_sc_codec6single6top_en9TopEncode24top_encode_or_handle_errppEBa_
FNDA:0,_RINvXININtNtCshiqmisuHlyH_12lending_pool7proxies17proxy_accumulatorss_0pEINtB6_16CreatorRoyaltiespENtNtNtCs5SUGlJDgeoS_19multiversx_sc_codec6single6top_de9TopDecode24top_decode_or_handle_errppEBa_
FNDA:0,_RINvXININtNtCshiqmisuHlyH_12lending_pool7proxies17proxy_accumulatorst_0pEINtB6_16CreatorRoyaltiespENtNtNtCs5SUGlJDgeoS_19multiversx_sc_codec6single9nested_en12NestedEncode24dep_encode_or_handle_errppEBa_
FNDA:0,_RINvXININtNtCshiqmisuHlyH_12lending_pool7proxies17proxy_accumulatorsu_0pEINtB6_16CreatorRoyaltiespENtNtNtCs5SUGlJDgeoS_19multiversx_sc_codec6single9nested_de12NestedDecode24dep_decode_or_handle_errppEBa_
FNDA:0,_RINvXININtNtCshiqmisuHlyH_12lending_pool7proxies17proxy_accumulatorsy_0pEINtB6_16CreatorRoyaltiespENtNtNtNtNtCslPMlHj3qn2H_13multiversx_sc5types7managed7wrapped16managed_vec_item14ManagedVecItem16from_byte_readerpEBa_
FNDA:0,_RNCINvXININtNtCshiqmisuHlyH_12lending_pool7proxies17proxy_accumulatorsy_0pEINtB8_16CreatorRoyaltiespENtNtNtNtNtCslPMlHj3qn2H_13multiversx_sc5types7managed7wrapped16managed_vec_item14ManagedVecItem16from_byte_readerpE0Bc_
FNDA:0,_RNCINvXININtNtCshiqmisuHlyH_12lending_pool7proxies17proxy_accumulatorsy_0pEINtB8_16CreatorRoyaltiespENtNtNtNtNtCslPMlHj3qn2H_13multiversx_sc5types7managed7wrapped16managed_vec_item14ManagedVecItem16from_byte_readerpEs_0Bc_
FNDA:0,_RINvXININtNtCshiqmisuHlyH_12lending_pool7proxies17proxy_accumulatorsy_0pEINtB6_16CreatorRoyaltiespENtNtNtNtNtCslPMlHj3qn2H_13multiversx_sc5types7managed7wrapped16managed_vec_item14ManagedVecItem26from_byte_reader_as_borrowpEBa_
FNDA:0,_RINvXININtNtCshiqmisuHlyH_12lending_pool7proxies17proxy_accumulatorsy_0pEINtB6_16CreatorRoyaltiespENtNtNtNtNtCslPMlHj3qn2H_13multiversx_sc5types7managed7wrapped16managed_vec_item14ManagedVecItem16into_byte_writerppEBa_
FNDA:0,_RNCINvXININtNtCshiqmisuHlyH_12lending_pool7proxies17proxy_accumulatorsy_0pEINtB8_16CreatorRoyaltiespENtNtNtNtNtCslPMlHj3qn2H_13multiversx_sc5types7managed7wrapped16managed_vec_item14ManagedVecItem16into_byte_writerppE0Bc_
FNDA:0,_RNCINvXININtNtCshiqmisuHlyH_12lending_pool7proxies17proxy_accumulatorsy_0pEINtB8_16CreatorRoyaltiespENtNtNtNtNtCslPMlHj3qn2H_13multiversx_sc5types7managed7wrapped16managed_vec_item14ManagedVecItem16into_byte_writerppEs_0Bc_
FNDA:0,_RNvXININtNtCshiqmisuHlyH_12lending_pool7proxies17proxy_accumulatorsq_0pEINtB5_16CreatorRoyaltiespENtNtNtCslPMlHj3qn2H_13multiversx_sc3abi8type_abi7TypeAbi9type_nameB9_
FNDA:0,_RINvXININtNtCshiqmisuHlyH_12lending_pool7proxies17proxy_accumulatorsq_0pEINtB6_16CreatorRoyaltiespENtNtNtCslPMlHj3qn2H_13multiversx_sc3abi8type_abi7TypeAbi25provide_type_descriptionspEBa_
FNDA:0,_RNvMs1_NtNtCs48qTgYy1n57_12lending_pool7proxies17proxy_accumulatorINtB5_23AccumulatorProxyMethodsINtNtNtNtNtCslPMlHj3qn2H_13multiversx_sc5types11interaction7tx_exec9tx_env_sc7TxScEnvINtNtNtNtCs1rODQd5oASQ_22multiversx_sc_scenario3api7impl_vh12vm_hooks_api10VMHooksApiNtNtB2Z_9debug_api15DebugApiBackendEEuRINtNtNtNtB1G_7managed7wrapped15managed_address14ManagedAddressB2U_EuE7depositCs8iyf5MSkCde_5tests
FNDA:0,_RNvXNtNtCs48qTgYy1n57_12lending_pool7proxies17proxy_accumulatorNtB2_16AccumulatorProxyINtNtNtNtCslPMlHj3qn2H_13multiversx_sc5types11interaction8tx_proxy12TxProxyTraitINtNtNtB1r_7tx_exec9tx_env_sc7TxScEnvINtNtNtNtCs1rODQd5oASQ_22multiversx_sc_scenario3api7impl_vh12vm_hooks_api10VMHooksApiNtNtB3k_9debug_api15DebugApiBackendEEuRINtNtNtNtB1t_7managed7wrapped15managed_address14ManagedAddressB3f_EuE13proxy_methodsCs8iyf5MSkCde_5tests
FNF:41
FNH:0
DA:23,0
DA:24,0
DA:25,0
DA:46,0
DA:47,0
DA:48,0
DA:49,0
DA:50,0
DA:51,0
DA:52,0
DA:53,0
DA:54,0
DA:55,0
DA:56,0
DA:57,0
DA:58,0
DA:59,0
DA:60,0
DA:61,0
DA:62,0
DA:63,0
DA:64,0
DA:65,0
DA:66,0
DA:67,0
DA:68,0
DA:69,0
DA:70,0
DA:71,0
DA:72,0
DA:84,0
DA:85,0
DA:86,0
DA:87,0
DA:88,0
DA:89,0
DA:90,0
DA:91,0
DA:92,0
DA:93,0
DA:94,0
DA:95,0
DA:96,0
DA:97,0
DA:98,0
DA:99,0
DA:100,0
DA:101,0
DA:102,0
DA:103,0
DA:104,0
DA:105,0
DA:106,0
DA:107,0
DA:108,0
DA:109,0
DA:110,0
DA:122,0
DA:123,0
DA:124,0
DA:125,0
DA:126,0
DA:127,0
DA:128,0
DA:130,0
DA:131,0
DA:132,0
DA:133,0
DA:134,0
DA:135,0
DA:136,0
DA:137,0
DA:138,0
DA:139,0
DA:140,0
DA:142,0
DA:143,0
DA:144,0
DA:145,0
DA:146,0
DA:147,0
DA:148,0
DA:149,0
DA:150,0
DA:151,0
DA:152,0
DA:153,0
DA:154,0
DA:155,0
DA:156,0
DA:157,0
DA:158,0
DA:159,0
DA:160,0
DA:161,0
DA:162,0
DA:164,0
DA:165,0
DA:166,0
DA:167,0
DA:168,0
DA:169,0
DA:170,0
DA:171,0
DA:172,0
DA:173,0
DA:174,0
DA:175,0
DA:176,0
DA:177,0
DA:178,0
DA:179,0
DA:180,0
DA:181,0
DA:182,0
DA:183,0
DA:184,0
DA:185,0
DA:186,0
DA:187,0
DA:189,0
DA:190,0
DA:191,0
DA:192,0
DA:193,0
DA:194,0
DA:195,0
DA:196,0
DA:198,0
DA:199,0
DA:200,0
DA:201,0
DA:202,0
DA:203,0
DA:204,0
DA:205,0
DA:207,0
DA:208,0
DA:209,0
DA:210,0
DA:211,0
DA:212,0
DA:213,0
DA:214,0
DA:216,0
DA:217,0
DA:218,0
DA:219,0
DA:220,0
DA:221,0
DA:222,0
DA:223,0
DA:225,0
DA:226,0
DA:227,0
DA:228,0
DA:229,0
DA:230,0
DA:231,0
DA:232,0
DA:234,0
DA:235,0
DA:236,0
DA:237,0
DA:238,0
DA:239,0
DA:240,0
DA:241,0
DA:243,0
DA:244,0
DA:245,0
DA:246,0
DA:247,0
DA:248,0
DA:249,0
DA:250,0
DA:252,0
DA:253,0
DA:254,0
DA:255,0
DA:256,0
DA:257,0
DA:258,0
DA:259,0
DA:260,0
DA:261,0
DA:262,0
DA:263,0
DA:265,0
DA:266,0
DA:267,0
DA:268,0
DA:269,0
DA:270,0
DA:271,0
DA:272,0
DA:274,0
DA:275,0
DA:276,0
DA:277,0
DA:278,0
DA:279,0
DA:280,0
DA:281,0
DA:282,0
DA:283,0
DA:284,0
DA:285,0
DA:287,0
DA:288,0
DA:289,0
DA:290,0
DA:291,0
DA:292,0
DA:293,0
DA:294,0
DA:295,0
DA:296,0
DA:297,0
DA:298,0
DA:299,0
DA:300,0
DA:301,0
DA:303,0
DA:304,0
DA:305,0
DA:306,0
DA:307,0
DA:308,0
DA:309,0
DA:310,0
DA:312,0
DA:313,0
DA:314,0
DA:315,0
DA:316,0
DA:317,0
DA:318,0
DA:319,0
DA:321,0
DA:322,0
DA:323,0
DA:324,0
DA:325,0
DA:326,0
DA:327,0
DA:328,0
DA:329,0
DA:330,0
DA:331,0
DA:332,0
DA:334,0
DA:335,0
DA:336,0
DA:337,0
DA:338,0
DA:339,0
DA:340,0
DA:341,0
DA:343,0
DA:344,0
DA:345,0
DA:346,0
DA:347,0
DA:348,0
DA:349,0
DA:350,0
DA:353,0
DA:354,0
DA:367,0
DA:368,0
DA:377,0
DA:378,0
BRF:0
BRH:0
LF:285
LH:0
end_of_record
SF:/Users/mihaieremia/GitHub/rs-lending/lending_pool/src/proxies/proxy_legld.rs
FN:23,_RNvXININtNtCshiqmisuHlyH_12lending_pool7proxies11proxy_legld0ppppENtB5_18SalsaContractProxyINtNtNtNtCslPMlHj3qn2H_13multiversx_sc5types11interaction8tx_proxy12TxProxyTraitppppE13proxy_methodsB9_
FN:46,_RNvMs_NtNtCshiqmisuHlyH_12lending_pool7proxies11proxy_legldINtB4_25SalsaContractProxyMethodsppupE4initB8_
FN:65,_RNvMs0_NtNtCshiqmisuHlyH_12lending_pool7proxies11proxy_legldINtB5_25SalsaContractProxyMethodsppppE7upgradeB9_
FN:85,_RINvMs1_NtNtCshiqmisuHlyH_12lending_pool7proxies11proxy_legldINtB6_25SalsaContractProxyMethodsppppE8delegateppEBa_
FN:101,_RINvMs1_NtNtCshiqmisuHlyH_12lending_pool7proxies11proxy_legldINtB6_25SalsaContractProxyMethodsppppE10undelegateppEBa_
FN:117,_RNvMs1_NtNtCshiqmisuHlyH_12lending_pool7proxies11proxy_legldINtB5_25SalsaContractProxyMethodsppppE8withdrawB9_
FN:127,_RINvMs1_NtNtCshiqmisuHlyH_12lending_pool7proxies11proxy_legldINtB6_25SalsaContractProxyMethodsppppE14add_to_custodypEBa_
FN:140,_RINvMs1_NtNtCshiqmisuHlyH_12lending_pool7proxies11proxy_legldINtB6_25SalsaContractProxyMethodsppppE19remove_from_custodyppEBa_
FN:157,_RINvMs1_NtNtCshiqmisuHlyH_12lending_pool7proxies11proxy_legldINtB6_25SalsaContractProxyMethodsppppE11add_reservepEBa_
FN:170,_RINvMs1_NtNtCshiqmisuHlyH_12lending_pool7proxies11proxy_legldINtB6_25SalsaContractProxyMethodsppppE14remove_reserveppEBa_
FN:187,_RINvMs1_NtNtCshiqmisuHlyH_12lending_pool7proxies11proxy_legldINtB6_25SalsaContractProxyMethodsppppE14undelegate_nowpppEBa_
FN:205,_RINvMs1_NtNtCshiqmisuHlyH_12lending_pool7proxies11proxy_legldINtB6_25SalsaContractProxyMethodsppppE17undelegate_knightpppEBa_
FN:225,_RINvMs1_NtNtCshiqmisuHlyH_12lending_pool7proxies11proxy_legldINtB6_25SalsaContractProxyMethodsppppE21undelegate_now_knightppppEBa_
FN:248,_RINvMs1_NtNtCshiqmisuHlyH_12lending_pool7proxies11proxy_legldINtB6_25SalsaContractProxyMethodsppppE15withdraw_knightpEBa_
FN:262,_RINvMs1_NtNtCshiqmisuHlyH_12lending_pool7proxies11proxy_legldINtB6_25SalsaContractProxyMethodsppppE21remove_reserve_knightpppEBa_
FN:282,_RINvMs1_NtNtCshiqmisuHlyH_12lending_pool7proxies11proxy_legldINtB6_25SalsaContractProxyMethodsppppE15undelegate_heirpppEBa_
FN:302,_RINvMs1_NtNtCshiqmisuHlyH_12lending_pool7proxies11proxy_legldINtB6_25SalsaContractProxyMethodsppppE19undelegate_now_heirppppEBa_
FN:325,_RINvMs1_NtNtCshiqmisuHlyH_12lending_pool7proxies11proxy_legldINtB6_25SalsaContractProxyMethodsppppE13withdraw_heirpEBa_
FN:339,_RINvMs1_NtNtCshiqmisuHlyH_12lending_pool7proxies11proxy_legldINtB6_25SalsaContractProxyMethodsppppE19remove_reserve_heirpppEBa_
FN:359,_RNvMs1_NtNtCshiqmisuHlyH_12lending_pool7proxies11proxy_legldINtB5_25SalsaContractProxyMethodsppppE39call_reduce_egld_to_delegate_undelegateB9_
FN:368,_RINvMs1_NtNtCshiqmisuHlyH_12lending_pool7proxies11proxy_legldINtB6_25SalsaContractProxyMethodsppppE21register_liquid_tokenpppEBa_
FN:386,_RNvMs1_NtNtCshiqmisuHlyH_12lending_pool7proxies11proxy_legldINtB5_25SalsaContractProxyMethodsppppE15liquid_token_idB9_
FN:395,_RNvMs1_NtNtCshiqmisuHlyH_12lending_pool7proxies11proxy_legldINtB5_25SalsaContractProxyMethodsppppE19liquid_token_supplyB9_
FN:404,_RNvMs1_NtNtCshiqmisuHlyH_12lending_pool7proxies11proxy_legldINtB5_25SalsaContractProxyMethodsppppE16set_state_activeB9_
FN:413,_RNvMs1_NtNtCshiqmisuHlyH_12lending_pool7proxies11proxy_legldINtB5_25SalsaContractProxyMethodsppppE18set_state_inactiveB9_
FN:422,_RNvMs1_NtNtCshiqmisuHlyH_12lending_pool7proxies11proxy_legldINtB5_25SalsaContractProxyMethodsppppE5stateB9_
FN:431,_RNvMs1_NtNtCshiqmisuHlyH_12lending_pool7proxies11proxy_legldINtB5_25SalsaContractProxyMethodsppppE13unbond_periodB9_
FN:440,_RINvMs1_NtNtCshiqmisuHlyH_12lending_pool7proxies11proxy_legldINtB6_25SalsaContractProxyMethodsppppE17set_unbond_periodpEBa_
FN:453,_RNvMs1_NtNtCshiqmisuHlyH_12lending_pool7proxies11proxy_legldINtB5_25SalsaContractProxyMethodsppppE11service_feeB9_
FN:462,_RINvMs1_NtNtCshiqmisuHlyH_12lending_pool7proxies11proxy_legldINtB6_25SalsaContractProxyMethodsppppE15set_service_feepEBa_
FN:475,_RNvMs1_NtNtCshiqmisuHlyH_12lending_pool7proxies11proxy_legldINtB5_25SalsaContractProxyMethodsppppE16max_provider_feeB9_
FN:484,_RINvMs1_NtNtCshiqmisuHlyH_12lending_pool7proxies11proxy_legldINtB6_25SalsaContractProxyMethodsppppE20set_max_provider_feepEBa_
FN:497,_RINvMs1_NtNtCshiqmisuHlyH_12lending_pool7proxies11proxy_legldINtB6_25SalsaContractProxyMethodsppppE19luser_undelegationspEBa_
FN:510,_RNvMs1_NtNtCshiqmisuHlyH_12lending_pool7proxies11proxy_legldINtB5_25SalsaContractProxyMethodsppppE17total_egld_stakedB9_
FN:519,_RNvMs1_NtNtCshiqmisuHlyH_12lending_pool7proxies11proxy_legldINtB5_25SalsaContractProxyMethodsppppE19user_withdrawn_egldB9_
FN:528,_RNvMs1_NtNtCshiqmisuHlyH_12lending_pool7proxies11proxy_legldINtB5_25SalsaContractProxyMethodsppppE20total_withdrawn_egldB9_
FN:537,_RNvMs1_NtNtCshiqmisuHlyH_12lending_pool7proxies11proxy_legldINtB5_25SalsaContractProxyMethodsppppE25ltotal_user_undelegationsB9_
FN:546,_RNvMs1_NtNtCshiqmisuHlyH_12lending_pool7proxies11proxy_legldINtB5_25SalsaContractProxyMethodsppppE12egld_reserveB9_
FN:555,_RNvMs1_NtNtCshiqmisuHlyH_12lending_pool7proxies11proxy_legldINtB5_25SalsaContractProxyMethodsppppE14reserve_pointsB9_
FN:564,_RNvMs1_NtNtCshiqmisuHlyH_12lending_pool7proxies11proxy_legldINtB5_25SalsaContractProxyMethodsppppE22available_egld_reserveB9_
FN:573,_RNvMs1_NtNtCshiqmisuHlyH_12lending_pool7proxies11proxy_legldINtB5_25SalsaContractProxyMethodsppppE22lreserve_undelegationsB9_
FN:582,_RINvMs1_NtNtCshiqmisuHlyH_12lending_pool7proxies11proxy_legldINtB6_25SalsaContractProxyMethodsppppE20users_reserve_pointspEBa_
FN:595,_RINvMs1_NtNtCshiqmisuHlyH_12lending_pool7proxies11proxy_legldINtB6_25SalsaContractProxyMethodsppppE22set_undelegate_now_feepEBa_
FN:608,_RNvMs1_NtNtCshiqmisuHlyH_12lending_pool7proxies11proxy_legldINtB5_25SalsaContractProxyMethodsppppE18undelegate_now_feeB9_
FN:617,_RINvMs1_NtNtCshiqmisuHlyH_12lending_pool7proxies11proxy_legldINtB6_25SalsaContractProxyMethodsppppE25get_reserve_points_amountpEBa_
FN:630,_RINvMs1_NtNtCshiqmisuHlyH_12lending_pool7proxies11proxy_legldINtB6_25SalsaContractProxyMethodsppppE23get_reserve_egld_amountpEBa_
FN:643,_RINvMs1_NtNtCshiqmisuHlyH_12lending_pool7proxies11proxy_legldINtB6_25SalsaContractProxyMethodsppppE16get_user_reservepEBa_
FN:656,_RNvMs1_NtNtCshiqmisuHlyH_12lending_pool7proxies11proxy_legldINtB5_25SalsaContractProxyMethodsppppE11token_priceB9_
FN:665,_RINvMs1_NtNtCshiqmisuHlyH_12lending_pool7proxies11proxy_legldINtB6_25SalsaContractProxyMethodsppppE21view_provider_updatedpEBa_
FN:678,_RNvMs1_NtNtCshiqmisuHlyH_12lending_pool7proxies11proxy_legldINtB5_25SalsaContractProxyMethodsppppE22view_providers_updatedB9_
FN:687,_RINvMs1_NtNtCshiqmisuHlyH_12lending_pool7proxies11proxy_legldINtB6_25SalsaContractProxyMethodsppppE11set_wrap_scpEBa_
FN:700,_RNvMs1_NtNtCshiqmisuHlyH_12lending_pool7proxies11proxy_legldINtB5_25SalsaContractProxyMethodsppppE16legld_in_custodyB9_
FN:709,_RINvMs1_NtNtCshiqmisuHlyH_12lending_pool7proxies11proxy_legldINtB6_25SalsaContractProxyMethodsppppE15user_delegationpEBa_
FN:722,_RINvMs1_NtNtCshiqmisuHlyH_12lending_pool7proxies11proxy_legldINtB6_25SalsaContractProxyMethodsppppE12knight_userspEBa_
FN:735,_RINvMs1_NtNtCshiqmisuHlyH_12lending_pool7proxies11proxy_legldINtB6_25SalsaContractProxyMethodsppppE9user_heirpEBa_
FN:748,_RINvMs1_NtNtCshiqmisuHlyH_12lending_pool7proxies11proxy_legldINtB6_25SalsaContractProxyMethodsppppE10heir_userspEBa_
FN:761,_RNvMs1_NtNtCshiqmisuHlyH_12lending_pool7proxies11proxy_legldINtB5_25SalsaContractProxyMethodsppppE12delegate_allB9_
FN:770,_RNvMs1_NtNtCshiqmisuHlyH_12lending_pool7proxies11proxy_legldINtB5_25SalsaContractProxyMethodsppppE14undelegate_allB9_
FN:779,_RNvMs1_NtNtCshiqmisuHlyH_12lending_pool7proxies11proxy_legldINtB5_25SalsaContractProxyMethodsppppE13claim_rewardsB9_
FN:788,_RINvMs1_NtNtCshiqmisuHlyH_12lending_pool7proxies11proxy_legldINtB6_25SalsaContractProxyMethodsppppE12withdraw_allppEBa_
FN:804,_RNvMs1_NtNtCshiqmisuHlyH_12lending_pool7proxies11proxy_legldINtB5_25SalsaContractProxyMethodsppppE17compute_withdrawnB9_
FN:813,_RNvMs1_NtNtCshiqmisuHlyH_12lending_pool7proxies11proxy_legldINtB5_25SalsaContractProxyMethodsppppE20set_arbitrage_activeB9_
FN:822,_RNvMs1_NtNtCshiqmisuHlyH_12lending_pool7proxies11proxy_legldINtB5_25SalsaContractProxyMethodsppppE22set_arbitrage_inactiveB9_
FN:831,_RNvMs1_NtNtCshiqmisuHlyH_12lending_pool7proxies11proxy_legldINtB5_25SalsaContractProxyMethodsppppE9arbitrageB9_
FN:841,_RNvMs1_NtNtCshiqmisuHlyH_12lending_pool7proxies11proxy_legldINtB5_25SalsaContractProxyMethodsppppE17trigger_arbitrageB9_
FN:850,_RNvMs1_NtNtCshiqmisuHlyH_12lending_pool7proxies11proxy_legldINtB5_25SalsaContractProxyMethodsppppE27set_onedex_arbitrage_activeB9_
FN:859,_RNvMs1_NtNtCshiqmisuHlyH_12lending_pool7proxies11proxy_legldINtB5_25SalsaContractProxyMethodsppppE29set_onedex_arbitrage_inactiveB9_
FN:868,_RNvMs1_NtNtCshiqmisuHlyH_12lending_pool7proxies11proxy_legldINtB5_25SalsaContractProxyMethodsppppE16onedex_arbitrageB9_
FN:877,_RINvMs1_NtNtCshiqmisuHlyH_12lending_pool7proxies11proxy_legldINtB6_25SalsaContractProxyMethodsppppE13set_onedex_scpEBa_
FN:890,_RINvMs1_NtNtCshiqmisuHlyH_12lending_pool7proxies11proxy_legldINtB6_25SalsaContractProxyMethodsppppE18set_onedex_pair_idpEBa_
FN:903,_RNvMs1_NtNtCshiqmisuHlyH_12lending_pool7proxies11proxy_legldINtB5_25SalsaContractProxyMethodsppppE30set_xexchange_arbitrage_activeB9_
FN:912,_RNvMs1_NtNtCshiqmisuHlyH_12lending_pool7proxies11proxy_legldINtB5_25SalsaContractProxyMethodsppppE32set_xexchange_arbitrage_inactiveB9_
FN:921,_RNvMs1_NtNtCshiqmisuHlyH_12lending_pool7proxies11proxy_legldINtB5_25SalsaContractProxyMethodsppppE19xexchange_arbitrageB9_
FN:930,_RINvMs1_NtNtCshiqmisuHlyH_12lending_pool7proxies11proxy_legldINtB6_25SalsaContractProxyMethodsppppE16set_xexchange_scpEBa_
FN:943,_RINvMs1_NtNtCshiqmisuHlyH_12lending_pool7proxies11proxy_legldINtB6_25SalsaContractProxyMethodsppppE10set_knightpEBa_
FN:956,_RNvMs1_NtNtCshiqmisuHlyH_12lending_pool7proxies11proxy_legldINtB5_25SalsaContractProxyMethodsppppE13cancel_knightB9_
FN:965,_RNvMs1_NtNtCshiqmisuHlyH_12lending_pool7proxies11proxy_legldINtB5_25SalsaContractProxyMethodsppppE15activate_knightB9_
FN:974,_RINvMs1_NtNtCshiqmisuHlyH_12lending_pool7proxies11proxy_legldINtB6_25SalsaContractProxyMethodsppppE17deactivate_knightpEBa_
FN:987,_RINvMs1_NtNtCshiqmisuHlyH_12lending_pool7proxies11proxy_legldINtB6_25SalsaContractProxyMethodsppppE14confirm_knightpEBa_
FN:1000,_RINvMs1_NtNtCshiqmisuHlyH_12lending_pool7proxies11proxy_legldINtB6_25SalsaContractProxyMethodsppppE13remove_knightpEBa_
FN:1013,_RINvMs1_NtNtCshiqmisuHlyH_12lending_pool7proxies11proxy_legldINtB6_25SalsaContractProxyMethodsppppE8set_heirppEBa_
FN:1029,_RNvMs1_NtNtCshiqmisuHlyH_12lending_pool7proxies11proxy_legldINtB5_25SalsaContractProxyMethodsppppE11cancel_heirB9_
FN:1038,_RINvMs1_NtNtCshiqmisuHlyH_12lending_pool7proxies11proxy_legldINtB6_25SalsaContractProxyMethodsppppE11remove_heirpEBa_
FN:1051,_RNvMs1_NtNtCshiqmisuHlyH_12lending_pool7proxies11proxy_legldINtB5_25SalsaContractProxyMethodsppppE20update_last_accessedB9_
FN:1060,_RINvMs1_NtNtCshiqmisuHlyH_12lending_pool7proxies11proxy_legldINtB6_25SalsaContractProxyMethodsppppE12add_providerpEBa_
FN:1073,_RINvMs1_NtNtCshiqmisuHlyH_12lending_pool7proxies11proxy_legldINtB6_25SalsaContractProxyMethodsppppE16refresh_providerpEBa_
FN:1086,_RINvMs1_NtNtCshiqmisuHlyH_12lending_pool7proxies11proxy_legldINtB6_25SalsaContractProxyMethodsppppE15remove_providerpEBa_
FN:1099,_RINvMs1_NtNtCshiqmisuHlyH_12lending_pool7proxies11proxy_legldINtB6_25SalsaContractProxyMethodsppppE18set_provider_stateppEBa_
FN:1116,_RNvMs1_NtNtCshiqmisuHlyH_12lending_pool7proxies11proxy_legldINtB5_25SalsaContractProxyMethodsppppE17refresh_providersB9_
FN:1127,_RINvXs5_NtNtCshiqmisuHlyH_12lending_pool7proxies11proxy_legldNtB6_5StateNtNtNtCs5SUGlJDgeoS_19multiversx_sc_codec6single6top_en9TopEncode24top_encode_or_handle_errppEBa_
FN:1127,_RINvXs6_NtNtCshiqmisuHlyH_12lending_pool7proxies11proxy_legldNtB6_5StateNtNtNtCs5SUGlJDgeoS_19multiversx_sc_codec6single6top_de9TopDecode24top_decode_or_handle_errppEBa_
FN:1126,_RNvXs4_NtNtCshiqmisuHlyH_12lending_pool7proxies11proxy_legldNtB5_5StateNtNtNtCslPMlHj3qn2H_13multiversx_sc3abi8type_abi7TypeAbi9type_name
FN:1126,_RINvXs4_NtNtCshiqmisuHlyH_12lending_pool7proxies11proxy_legldNtB6_5StateNtNtNtCslPMlHj3qn2H_13multiversx_sc3abi8type_abi7TypeAbi25provide_type_descriptionspEBa_
FN:1135,_RINvXININtNtCshiqmisuHlyH_12lending_pool7proxies11proxy_legldsa_0pEINtB6_12UndelegationpENtNtNtCs5SUGlJDgeoS_19multiversx_sc_codec6single6top_en9TopEncode24top_encode_or_handle_errppEBa_
FN:1135,_RINvXININtNtCshiqmisuHlyH_12lending_pool7proxies11proxy_legldsb_0pEINtB6_12UndelegationpENtNtNtCs5SUGlJDgeoS_19multiversx_sc_codec6single6top_de9TopDecode24top_decode_or_handle_errppEBa_
FN:1134,_RNvXININtNtCshiqmisuHlyH_12lending_pool7proxies11proxy_leglds9_0pEINtB5_12UndelegationpENtNtNtCslPMlHj3qn2H_13multiversx_sc3abi8type_abi7TypeAbi9type_nameB9_
FN:1134,_RINvXININtNtCshiqmisuHlyH_12lending_pool7proxies11proxy_leglds9_0pEINtB6_12UndelegationpENtNtNtCslPMlHj3qn2H_13multiversx_sc3abi8type_abi7TypeAbi25provide_type_descriptionspEBa_
FN:1146,_RINvXsf_NtNtCshiqmisuHlyH_12lending_pool7proxies11proxy_legldNtB6_11KnightStateNtNtNtCs5SUGlJDgeoS_19multiversx_sc_codec6single6top_en9TopEncode24top_encode_or_handle_errppEBa_
FN:1146,_RINvXsg_NtNtCshiqmisuHlyH_12lending_pool7proxies11proxy_legldNtB6_11KnightStateNtNtNtCs5SUGlJDgeoS_19multiversx_sc_codec6single6top_de9TopDecode24top_decode_or_handle_errppEBa_
FN:1145,_RNvXse_NtNtCshiqmisuHlyH_12lending_pool7proxies11proxy_legldNtB5_11KnightStateNtNtNtCslPMlHj3qn2H_13multiversx_sc3abi8type_abi7TypeAbi9type_name
FN:1145,_RINvXse_NtNtCshiqmisuHlyH_12lending_pool7proxies11proxy_legldNtB6_11KnightStateNtNtNtCslPMlHj3qn2H_13multiversx_sc3abi8type_abi7TypeAbi25provide_type_descriptionspEBa_
FN:1155,_RINvXININtNtCshiqmisuHlyH_12lending_pool7proxies11proxy_legldsk_0pEINtB6_4HeirpENtNtNtCs5SUGlJDgeoS_19multiversx_sc_codec6single6top_en9TopEncode24top_encode_or_handle_errppEBa_
FN:1155,_RINvXININtNtCshiqmisuHlyH_12lending_pool7proxies11proxy_legldsl_0pEINtB6_4HeirpENtNtNtCs5SUGlJDgeoS_19multiversx_sc_codec6single6top_de9TopDecode24top_decode_or_handle_errppEBa_
FN:1154,_RNvXININtNtCshiqmisuHlyH_12lending_pool7proxies11proxy_legldsj_0pEINtB5_4HeirpENtNtNtCslPMlHj3qn2H_13multiversx_sc3abi8type_abi7TypeAbi9type_nameB9_
FN:1154,_RINvXININtNtCshiqmisuHlyH_12lending_pool7proxies11proxy_legldsj_0pEINtB6_4HeirpENtNtNtCslPMlHj3qn2H_13multiversx_sc3abi8type_abi7TypeAbi25provide_type_descriptionspEBa_
FN:656,_RNvMs1_NtNtCs48qTgYy1n57_12lending_pool7proxies11proxy_legldINtB5_25SalsaContractProxyMethodsINtNtNtNtNtCslPMlHj3qn2H_13multiversx_sc5types11interaction7tx_exec9tx_env_sc7TxScEnvINtNtNtNtCs1rODQd5oASQ_22multiversx_sc_scenario3api7impl_vh12vm_hooks_api10VMHooksApiNtNtB2V_9debug_api15DebugApiBackendEEuRINtNtNtNtB1C_7managed7wrapped15managed_address14ManagedAddressB2Q_EuE11token_priceCs8iyf5MSkCde_5tests
FN:23,_RNvXNtNtCs48qTgYy1n57_12lending_pool7proxies11proxy_legldNtB2_18SalsaContractProxyINtNtNtNtCslPMlHj3qn2H_13multiversx_sc5types11interaction8tx_proxy12TxProxyTraitINtNtNtB1n_7tx_exec9tx_env_sc7TxScEnvINtNtNtNtCs1rODQd5oASQ_22multiversx_sc_scenario3api7impl_vh12vm_hooks_api10VMHooksApiNtNtB3g_9debug_api15DebugApiBackendEEuRINtNtNtNtB1p_7managed7wrapped15managed_address14ManagedAddressB3b_EuE13proxy_methodsCs8iyf5MSkCde_5tests
FNDA:0,_RNvXININtNtCshiqmisuHlyH_12lending_pool7proxies11proxy_legld0ppppENtB5_18SalsaContractProxyINtNtNtNtCslPMlHj3qn2H_13multiversx_sc5types11interaction8tx_proxy12TxProxyTraitppppE13proxy_methodsB9_
FNDA:0,_RNvMs_NtNtCshiqmisuHlyH_12lending_pool7proxies11proxy_legldINtB4_25SalsaContractProxyMethodsppupE4initB8_
FNDA:0,_RNvMs0_NtNtCshiqmisuHlyH_12lending_pool7proxies11proxy_legldINtB5_25SalsaContractProxyMethodsppppE7upgradeB9_
FNDA:0,_RINvMs1_NtNtCshiqmisuHlyH_12lending_pool7proxies11proxy_legldINtB6_25SalsaContractProxyMethodsppppE8delegateppEBa_
FNDA:0,_RINvMs1_NtNtCshiqmisuHlyH_12lending_pool7proxies11proxy_legldINtB6_25SalsaContractProxyMethodsppppE10undelegateppEBa_
FNDA:0,_RNvMs1_NtNtCshiqmisuHlyH_12lending_pool7proxies11proxy_legldINtB5_25SalsaContractProxyMethodsppppE8withdrawB9_
FNDA:0,_RINvMs1_NtNtCshiqmisuHlyH_12lending_pool7proxies11proxy_legldINtB6_25SalsaContractProxyMethodsppppE14add_to_custodypEBa_
FNDA:0,_RINvMs1_NtNtCshiqmisuHlyH_12lending_pool7proxies11proxy_legldINtB6_25SalsaContractProxyMethodsppppE19remove_from_custodyppEBa_
FNDA:0,_RINvMs1_NtNtCshiqmisuHlyH_12lending_pool7proxies11proxy_legldINtB6_25SalsaContractProxyMethodsppppE11add_reservepEBa_
FNDA:0,_RINvMs1_NtNtCshiqmisuHlyH_12lending_pool7proxies11proxy_legldINtB6_25SalsaContractProxyMethodsppppE14remove_reserveppEBa_
FNDA:0,_RINvMs1_NtNtCshiqmisuHlyH_12lending_pool7proxies11proxy_legldINtB6_25SalsaContractProxyMethodsppppE14undelegate_nowpppEBa_
FNDA:0,_RINvMs1_NtNtCshiqmisuHlyH_12lending_pool7proxies11proxy_legldINtB6_25SalsaContractProxyMethodsppppE17undelegate_knightpppEBa_
FNDA:0,_RINvMs1_NtNtCshiqmisuHlyH_12lending_pool7proxies11proxy_legldINtB6_25SalsaContractProxyMethodsppppE21undelegate_now_knightppppEBa_
FNDA:0,_RINvMs1_NtNtCshiqmisuHlyH_12lending_pool7proxies11proxy_legldINtB6_25SalsaContractProxyMethodsppppE15withdraw_knightpEBa_
FNDA:0,_RINvMs1_NtNtCshiqmisuHlyH_12lending_pool7proxies11proxy_legldINtB6_25SalsaContractProxyMethodsppppE21remove_reserve_knightpppEBa_
FNDA:0,_RINvMs1_NtNtCshiqmisuHlyH_12lending_pool7proxies11proxy_legldINtB6_25SalsaContractProxyMethodsppppE15undelegate_heirpppEBa_
FNDA:0,_RINvMs1_NtNtCshiqmisuHlyH_12lending_pool7proxies11proxy_legldINtB6_25SalsaContractProxyMethodsppppE19undelegate_now_heirppppEBa_
FNDA:0,_RINvMs1_NtNtCshiqmisuHlyH_12lending_pool7proxies11proxy_legldINtB6_25SalsaContractProxyMethodsppppE13withdraw_heirpEBa_
FNDA:0,_RINvMs1_NtNtCshiqmisuHlyH_12lending_pool7proxies11proxy_legldINtB6_25SalsaContractProxyMethodsppppE19remove_reserve_heirpppEBa_
FNDA:0,_RNvMs1_NtNtCshiqmisuHlyH_12lending_pool7proxies11proxy_legldINtB5_25SalsaContractProxyMethodsppppE39call_reduce_egld_to_delegate_undelegateB9_
FNDA:0,_RINvMs1_NtNtCshiqmisuHlyH_12lending_pool7proxies11proxy_legldINtB6_25SalsaContractProxyMethodsppppE21register_liquid_tokenpppEBa_
FNDA:0,_RNvMs1_NtNtCshiqmisuHlyH_12lending_pool7proxies11proxy_legldINtB5_25SalsaContractProxyMethodsppppE15liquid_token_idB9_
FNDA:0,_RNvMs1_NtNtCshiqmisuHlyH_12lending_pool7proxies11proxy_legldINtB5_25SalsaContractProxyMethodsppppE19liquid_token_supplyB9_
FNDA:0,_RNvMs1_NtNtCshiqmisuHlyH_12lending_pool7proxies11proxy_legldINtB5_25SalsaContractProxyMethodsppppE16set_state_activeB9_
FNDA:0,_RNvMs1_NtNtCshiqmisuHlyH_12lending_pool7proxies11proxy_legldINtB5_25SalsaContractProxyMethodsppppE18set_state_inactiveB9_
FNDA:0,_RNvMs1_NtNtCshiqmisuHlyH_12lending_pool7proxies11proxy_legldINtB5_25SalsaContractProxyMethodsppppE5stateB9_
FNDA:0,_RNvMs1_NtNtCshiqmisuHlyH_12lending_pool7proxies11proxy_legldINtB5_25SalsaContractProxyMethodsppppE13unbond_periodB9_
FNDA:0,_RINvMs1_NtNtCshiqmisuHlyH_12lending_pool7proxies11proxy_legldINtB6_25SalsaContractProxyMethodsppppE17set_unbond_periodpEBa_
FNDA:0,_RNvMs1_NtNtCshiqmisuHlyH_12lending_pool7proxies11proxy_legldINtB5_25SalsaContractProxyMethodsppppE11service_feeB9_
FNDA:0,_RINvMs1_NtNtCshiqmisuHlyH_12lending_pool7proxies11proxy_legldINtB6_25SalsaContractProxyMethodsppppE15set_service_feepEBa_
FNDA:0,_RNvMs1_NtNtCshiqmisuHlyH_12lending_pool7proxies11proxy_legldINtB5_25SalsaContractProxyMethodsppppE16max_provider_feeB9_
FNDA:0,_RINvMs1_NtNtCshiqmisuHlyH_12lending_pool7proxies11proxy_legldINtB6_25SalsaContractProxyMethodsppppE20set_max_provider_feepEBa_
FNDA:0,_RINvMs1_NtNtCshiqmisuHlyH_12lending_pool7proxies11proxy_legldINtB6_25SalsaContractProxyMethodsppppE19luser_undelegationspEBa_
FNDA:0,_RNvMs1_NtNtCshiqmisuHlyH_12lending_pool7proxies11proxy_legldINtB5_25SalsaContractProxyMethodsppppE17total_egld_stakedB9_
FNDA:0,_RNvMs1_NtNtCshiqmisuHlyH_12lending_pool7proxies11proxy_legldINtB5_25SalsaContractProxyMethodsppppE19user_withdrawn_egldB9_
FNDA:0,_RNvMs1_NtNtCshiqmisuHlyH_12lending_pool7proxies11proxy_legldINtB5_25SalsaContractProxyMethodsppppE20total_withdrawn_egldB9_
FNDA:0,_RNvMs1_NtNtCshiqmisuHlyH_12lending_pool7proxies11proxy_legldINtB5_25SalsaContractProxyMethodsppppE25ltotal_user_undelegationsB9_
FNDA:0,_RNvMs1_NtNtCshiqmisuHlyH_12lending_pool7proxies11proxy_legldINtB5_25SalsaContractProxyMethodsppppE12egld_reserveB9_
FNDA:0,_RNvMs1_NtNtCshiqmisuHlyH_12lending_pool7proxies11proxy_legldINtB5_25SalsaContractProxyMethodsppppE14reserve_pointsB9_
FNDA:0,_RNvMs1_NtNtCshiqmisuHlyH_12lending_pool7proxies11proxy_legldINtB5_25SalsaContractProxyMethodsppppE22available_egld_reserveB9_
FNDA:0,_RNvMs1_NtNtCshiqmisuHlyH_12lending_pool7proxies11proxy_legldINtB5_25SalsaContractProxyMethodsppppE22lreserve_undelegationsB9_
FNDA:0,_RINvMs1_NtNtCshiqmisuHlyH_12lending_pool7proxies11proxy_legldINtB6_25SalsaContractProxyMethodsppppE20users_reserve_pointspEBa_
FNDA:0,_RINvMs1_NtNtCshiqmisuHlyH_12lending_pool7proxies11proxy_legldINtB6_25SalsaContractProxyMethodsppppE22set_undelegate_now_feepEBa_
FNDA:0,_RNvMs1_NtNtCshiqmisuHlyH_12lending_pool7proxies11proxy_legldINtB5_25SalsaContractProxyMethodsppppE18undelegate_now_feeB9_
FNDA:0,_RINvMs1_NtNtCshiqmisuHlyH_12lending_pool7proxies11proxy_legldINtB6_25SalsaContractProxyMethodsppppE25get_reserve_points_amountpEBa_
FNDA:0,_RINvMs1_NtNtCshiqmisuHlyH_12lending_pool7proxies11proxy_legldINtB6_25SalsaContractProxyMethodsppppE23get_reserve_egld_amountpEBa_
FNDA:0,_RINvMs1_NtNtCshiqmisuHlyH_12lending_pool7proxies11proxy_legldINtB6_25SalsaContractProxyMethodsppppE16get_user_reservepEBa_
FNDA:0,_RNvMs1_NtNtCshiqmisuHlyH_12lending_pool7proxies11proxy_legldINtB5_25SalsaContractProxyMethodsppppE11token_priceB9_
FNDA:0,_RINvMs1_NtNtCshiqmisuHlyH_12lending_pool7proxies11proxy_legldINtB6_25SalsaContractProxyMethodsppppE21view_provider_updatedpEBa_
FNDA:0,_RNvMs1_NtNtCshiqmisuHlyH_12lending_pool7proxies11proxy_legldINtB5_25SalsaContractProxyMethodsppppE22view_providers_updatedB9_
FNDA:0,_RINvMs1_NtNtCshiqmisuHlyH_12lending_pool7proxies11proxy_legldINtB6_25SalsaContractProxyMethodsppppE11set_wrap_scpEBa_
FNDA:0,_RNvMs1_NtNtCshiqmisuHlyH_12lending_pool7proxies11proxy_legldINtB5_25SalsaContractProxyMethodsppppE16legld_in_custodyB9_
FNDA:0,_RINvMs1_NtNtCshiqmisuHlyH_12lending_pool7proxies11proxy_legldINtB6_25SalsaContractProxyMethodsppppE15user_delegationpEBa_
FNDA:0,_RINvMs1_NtNtCshiqmisuHlyH_12lending_pool7proxies11proxy_legldINtB6_25SalsaContractProxyMethodsppppE12knight_userspEBa_
FNDA:0,_RINvMs1_NtNtCshiqmisuHlyH_12lending_pool7proxies11proxy_legldINtB6_25SalsaContractProxyMethodsppppE9user_heirpEBa_
FNDA:0,_RINvMs1_NtNtCshiqmisuHlyH_12lending_pool7proxies11proxy_legldINtB6_25SalsaContractProxyMethodsppppE10heir_userspEBa_
FNDA:0,_RNvMs1_NtNtCshiqmisuHlyH_12lending_pool7proxies11proxy_legldINtB5_25SalsaContractProxyMethodsppppE12delegate_allB9_
FNDA:0,_RNvMs1_NtNtCshiqmisuHlyH_12lending_pool7proxies11proxy_legldINtB5_25SalsaContractProxyMethodsppppE14undelegate_allB9_
FNDA:0,_RNvMs1_NtNtCshiqmisuHlyH_12lending_pool7proxies11proxy_legldINtB5_25SalsaContractProxyMethodsppppE13claim_rewardsB9_
FNDA:0,_RINvMs1_NtNtCshiqmisuHlyH_12lending_pool7proxies11proxy_legldINtB6_25SalsaContractProxyMethodsppppE12withdraw_allppEBa_
FNDA:0,_RNvMs1_NtNtCshiqmisuHlyH_12lending_pool7proxies11proxy_legldINtB5_25SalsaContractProxyMethodsppppE17compute_withdrawnB9_
FNDA:0,_RNvMs1_NtNtCshiqmisuHlyH_12lending_pool7proxies11proxy_legldINtB5_25SalsaContractProxyMethodsppppE20set_arbitrage_activeB9_
FNDA:0,_RNvMs1_NtNtCshiqmisuHlyH_12lending_pool7proxies11proxy_legldINtB5_25SalsaContractProxyMethodsppppE22set_arbitrage_inactiveB9_
FNDA:0,_RNvMs1_NtNtCshiqmisuHlyH_12lending_pool7proxies11proxy_legldINtB5_25SalsaContractProxyMethodsppppE9arbitrageB9_
FNDA:0,_RNvMs1_NtNtCshiqmisuHlyH_12lending_pool7proxies11proxy_legldINtB5_25SalsaContractProxyMethodsppppE17trigger_arbitrageB9_
FNDA:0,_RNvMs1_NtNtCshiqmisuHlyH_12lending_pool7proxies11proxy_legldINtB5_25SalsaContractProxyMethodsppppE27set_onedex_arbitrage_activeB9_
FNDA:0,_RNvMs1_NtNtCshiqmisuHlyH_12lending_pool7proxies11proxy_legldINtB5_25SalsaContractProxyMethodsppppE29set_onedex_arbitrage_inactiveB9_
FNDA:0,_RNvMs1_NtNtCshiqmisuHlyH_12lending_pool7proxies11proxy_legldINtB5_25SalsaContractProxyMethodsppppE16onedex_arbitrageB9_
FNDA:0,_RINvMs1_NtNtCshiqmisuHlyH_12lending_pool7proxies11proxy_legldINtB6_25SalsaContractProxyMethodsppppE13set_onedex_scpEBa_
FNDA:0,_RINvMs1_NtNtCshiqmisuHlyH_12lending_pool7proxies11proxy_legldINtB6_25SalsaContractProxyMethodsppppE18set_onedex_pair_idpEBa_
FNDA:0,_RNvMs1_NtNtCshiqmisuHlyH_12lending_pool7proxies11proxy_legldINtB5_25SalsaContractProxyMethodsppppE30set_xexchange_arbitrage_activeB9_
FNDA:0,_RNvMs1_NtNtCshiqmisuHlyH_12lending_pool7proxies11proxy_legldINtB5_25SalsaContractProxyMethodsppppE32set_xexchange_arbitrage_inactiveB9_
FNDA:0,_RNvMs1_NtNtCshiqmisuHlyH_12lending_pool7proxies11proxy_legldINtB5_25SalsaContractProxyMethodsppppE19xexchange_arbitrageB9_
FNDA:0,_RINvMs1_NtNtCshiqmisuHlyH_12lending_pool7proxies11proxy_legldINtB6_25SalsaContractProxyMethodsppppE16set_xexchange_scpEBa_
FNDA:0,_RINvMs1_NtNtCshiqmisuHlyH_12lending_pool7proxies11proxy_legldINtB6_25SalsaContractProxyMethodsppppE10set_knightpEBa_
FNDA:0,_RNvMs1_NtNtCshiqmisuHlyH_12lending_pool7proxies11proxy_legldINtB5_25SalsaContractProxyMethodsppppE13cancel_knightB9_
FNDA:0,_RNvMs1_NtNtCshiqmisuHlyH_12lending_pool7proxies11proxy_legldINtB5_25SalsaContractProxyMethodsppppE15activate_knightB9_
FNDA:0,_RINvMs1_NtNtCshiqmisuHlyH_12lending_pool7proxies11proxy_legldINtB6_25SalsaContractProxyMethodsppppE17deactivate_knightpEBa_
FNDA:0,_RINvMs1_NtNtCshiqmisuHlyH_12lending_pool7proxies11proxy_legldINtB6_25SalsaContractProxyMethodsppppE14confirm_knightpEBa_
FNDA:0,_RINvMs1_NtNtCshiqmisuHlyH_12lending_pool7proxies11proxy_legldINtB6_25SalsaContractProxyMethodsppppE13remove_knightpEBa_
FNDA:0,_RINvMs1_NtNtCshiqmisuHlyH_12lending_pool7proxies11proxy_legldINtB6_25SalsaContractProxyMethodsppppE8set_heirppEBa_
FNDA:0,_RNvMs1_NtNtCshiqmisuHlyH_12lending_pool7proxies11proxy_legldINtB5_25SalsaContractProxyMethodsppppE11cancel_heirB9_
FNDA:0,_RINvMs1_NtNtCshiqmisuHlyH_12lending_pool7proxies11proxy_legldINtB6_25SalsaContractProxyMethodsppppE11remove_heirpEBa_
FNDA:0,_RNvMs1_NtNtCshiqmisuHlyH_12lending_pool7proxies11proxy_legldINtB5_25SalsaContractProxyMethodsppppE20update_last_accessedB9_
FNDA:0,_RINvMs1_NtNtCshiqmisuHlyH_12lending_pool7proxies11proxy_legldINtB6_25SalsaContractProxyMethodsppppE12add_providerpEBa_
FNDA:0,_RINvMs1_NtNtCshiqmisuHlyH_12lending_pool7proxies11proxy_legldINtB6_25SalsaContractProxyMethodsppppE16refresh_providerpEBa_
FNDA:0,_RINvMs1_NtNtCshiqmisuHlyH_12lending_pool7proxies11proxy_legldINtB6_25SalsaContractProxyMethodsppppE15remove_providerpEBa_
FNDA:0,_RINvMs1_NtNtCshiqmisuHlyH_12lending_pool7proxies11proxy_legldINtB6_25SalsaContractProxyMethodsppppE18set_provider_stateppEBa_
FNDA:0,_RNvMs1_NtNtCshiqmisuHlyH_12lending_pool7proxies11proxy_legldINtB5_25SalsaContractProxyMethodsppppE17refresh_providersB9_
FNDA:0,_RINvXs5_NtNtCshiqmisuHlyH_12lending_pool7proxies11proxy_legldNtB6_5StateNtNtNtCs5SUGlJDgeoS_19multiversx_sc_codec6single6top_en9TopEncode24top_encode_or_handle_errppEBa_
FNDA:0,_RINvXs6_NtNtCshiqmisuHlyH_12lending_pool7proxies11proxy_legldNtB6_5StateNtNtNtCs5SUGlJDgeoS_19multiversx_sc_codec6single6top_de9TopDecode24top_decode_or_handle_errppEBa_
FNDA:0,_RNvXs4_NtNtCshiqmisuHlyH_12lending_pool7proxies11proxy_legldNtB5_5StateNtNtNtCslPMlHj3qn2H_13multiversx_sc3abi8type_abi7TypeAbi9type_name
FNDA:0,_RINvXs4_NtNtCshiqmisuHlyH_12lending_pool7proxies11proxy_legldNtB6_5StateNtNtNtCslPMlHj3qn2H_13multiversx_sc3abi8type_abi7TypeAbi25provide_type_descriptionspEBa_
FNDA:0,_RINvXININtNtCshiqmisuHlyH_12lending_pool7proxies11proxy_legldsa_0pEINtB6_12UndelegationpENtNtNtCs5SUGlJDgeoS_19multiversx_sc_codec6single6top_en9TopEncode24top_encode_or_handle_errppEBa_
FNDA:0,_RINvXININtNtCshiqmisuHlyH_12lending_pool7proxies11proxy_legldsb_0pEINtB6_12UndelegationpENtNtNtCs5SUGlJDgeoS_19multiversx_sc_codec6single6top_de9TopDecode24top_decode_or_handle_errppEBa_
FNDA:0,_RNvXININtNtCshiqmisuHlyH_12lending_pool7proxies11proxy_leglds9_0pEINtB5_12UndelegationpENtNtNtCslPMlHj3qn2H_13multiversx_sc3abi8type_abi7TypeAbi9type_nameB9_
FNDA:0,_RINvXININtNtCshiqmisuHlyH_12lending_pool7proxies11proxy_leglds9_0pEINtB6_12UndelegationpENtNtNtCslPMlHj3qn2H_13multiversx_sc3abi8type_abi7TypeAbi25provide_type_descriptionspEBa_
FNDA:0,_RINvXsf_NtNtCshiqmisuHlyH_12lending_pool7proxies11proxy_legldNtB6_11KnightStateNtNtNtCs5SUGlJDgeoS_19multiversx_sc_codec6single6top_en9TopEncode24top_encode_or_handle_errppEBa_
FNDA:0,_RINvXsg_NtNtCshiqmisuHlyH_12lending_pool7proxies11proxy_legldNtB6_11KnightStateNtNtNtCs5SUGlJDgeoS_19multiversx_sc_codec6single6top_de9TopDecode24top_decode_or_handle_errppEBa_
FNDA:0,_RNvXse_NtNtCshiqmisuHlyH_12lending_pool7proxies11proxy_legldNtB5_11KnightStateNtNtNtCslPMlHj3qn2H_13multiversx_sc3abi8type_abi7TypeAbi9type_name
FNDA:0,_RINvXse_NtNtCshiqmisuHlyH_12lending_pool7proxies11proxy_legldNtB6_11KnightStateNtNtNtCslPMlHj3qn2H_13multiversx_sc3abi8type_abi7TypeAbi25provide_type_descriptionspEBa_
FNDA:0,_RINvXININtNtCshiqmisuHlyH_12lending_pool7proxies11proxy_legldsk_0pEINtB6_4HeirpENtNtNtCs5SUGlJDgeoS_19multiversx_sc_codec6single6top_en9TopEncode24top_encode_or_handle_errppEBa_
FNDA:0,_RINvXININtNtCshiqmisuHlyH_12lending_pool7proxies11proxy_legldsl_0pEINtB6_4HeirpENtNtNtCs5SUGlJDgeoS_19multiversx_sc_codec6single6top_de9TopDecode24top_decode_or_handle_errppEBa_
FNDA:0,_RNvXININtNtCshiqmisuHlyH_12lending_pool7proxies11proxy_legldsj_0pEINtB5_4HeirpENtNtNtCslPMlHj3qn2H_13multiversx_sc3abi8type_abi7TypeAbi9type_nameB9_
FNDA:0,_RINvXININtNtCshiqmisuHlyH_12lending_pool7proxies11proxy_legldsj_0pEINtB6_4HeirpENtNtNtCslPMlHj3qn2H_13multiversx_sc3abi8type_abi7TypeAbi25provide_type_descriptionspEBa_
FNDA:0,_RNvMs1_NtNtCs48qTgYy1n57_12lending_pool7proxies11proxy_legldINtB5_25SalsaContractProxyMethodsINtNtNtNtNtCslPMlHj3qn2H_13multiversx_sc5types11interaction7tx_exec9tx_env_sc7TxScEnvINtNtNtNtCs1rODQd5oASQ_22multiversx_sc_scenario3api7impl_vh12vm_hooks_api10VMHooksApiNtNtB2V_9debug_api15DebugApiBackendEEuRINtNtNtNtB1C_7managed7wrapped15managed_address14ManagedAddressB2Q_EuE11token_priceCs8iyf5MSkCde_5tests
FNDA:0,_RNvXNtNtCs48qTgYy1n57_12lending_pool7proxies11proxy_legldNtB2_18SalsaContractProxyINtNtNtNtCslPMlHj3qn2H_13multiversx_sc5types11interaction8tx_proxy12TxProxyTraitINtNtNtB1n_7tx_exec9tx_env_sc7TxScEnvINtNtNtNtCs1rODQd5oASQ_22multiversx_sc_scenario3api7impl_vh12vm_hooks_api10VMHooksApiNtNtB3g_9debug_api15DebugApiBackendEEuRINtNtNtNtB1p_7managed7wrapped15managed_address14ManagedAddressB3b_EuE13proxy_methodsCs8iyf5MSkCde_5tests
FNF:101
FNH:0
DA:23,0
DA:24,0
DA:25,0
DA:46,0
DA:47,0
DA:48,0
DA:49,0
DA:50,0
DA:51,0
DA:52,0
DA:53,0
DA:65,0
DA:66,0
DA:67,0
DA:68,0
DA:69,0
DA:70,0
DA:71,0
DA:72,0
DA:85,0
DA:86,0
DA:87,0
DA:88,0
DA:89,0
DA:90,0
DA:91,0
DA:92,0
DA:93,0
DA:94,0
DA:95,0
DA:96,0
DA:97,0
DA:98,0
DA:101,0
DA:102,0
DA:103,0
DA:104,0
DA:105,0
DA:106,0
DA:107,0
DA:108,0
DA:109,0
DA:110,0
DA:111,0
DA:112,0
DA:113,0
DA:114,0
DA:117,0
DA:118,0
DA:119,0
DA:120,0
DA:121,0
DA:122,0
DA:123,0
DA:124,0
DA:127,0
DA:128,0
DA:129,0
DA:130,0
DA:131,0
DA:132,0
DA:133,0
DA:134,0
DA:135,0
DA:136,0
DA:137,0
DA:140,0
DA:141,0
DA:142,0
DA:143,0
DA:144,0
DA:145,0
DA:146,0
DA:147,0
DA:148,0
DA:149,0
DA:150,0
DA:151,0
DA:152,0
DA:153,0
DA:154,0
DA:157,0
DA:158,0
DA:159,0
DA:160,0
DA:161,0
DA:162,0
DA:163,0
DA:164,0
DA:165,0
DA:166,0
DA:167,0
DA:170,0
DA:171,0
DA:172,0
DA:173,0
DA:174,0
DA:175,0
DA:176,0
DA:177,0
DA:178,0
DA:179,0
DA:180,0
DA:181,0
DA:182,0
DA:183,0
DA:184,0
DA:187,0
DA:188,0
DA:189,0
DA:190,0
DA:191,0
DA:192,0
DA:193,0
DA:194,0
DA:195,0
DA:196,0
DA:197,0
DA:198,0
DA:199,0
DA:200,0
DA:201,0
DA:202,0
DA:203,0
DA:205,0
DA:206,0
DA:207,0
DA:208,0
DA:209,0
DA:210,0
DA:211,0
DA:212,0
DA:213,0
DA:214,0
DA:215,0
DA:216,0
DA:217,0
DA:218,0
DA:219,0
DA:220,0
DA:221,0
DA:222,0
DA:225,0
DA:226,0
DA:227,0
DA:228,0
DA:229,0
DA:230,0
DA:231,0
DA:232,0
DA:233,0
DA:234,0
DA:235,0
DA:236,0
DA:237,0
DA:238,0
DA:239,0
DA:240,0
DA:241,0
DA:242,0
DA:243,0
DA:244,0
DA:245,0
DA:248,0
DA:249,0
DA:250,0
DA:251,0
DA:252,0
DA:253,0
DA:254,0
DA:255,0
DA:256,0
DA:257,0
DA:258,0
DA:259,0
DA:262,0
DA:263,0
DA:264,0
DA:265,0
DA:266,0
DA:267,0
DA:268,0
DA:269,0
DA:270,0
DA:271,0
DA:272,0
DA:273,0
DA:274,0
DA:275,0
DA:276,0
DA:277,0
DA:278,0
DA:279,0
DA:282,0
DA:283,0
DA:284,0
DA:285,0
DA:286,0
DA:287,0
DA:288,0
DA:289,0
DA:290,0
DA:291,0
DA:292,0
DA:293,0
DA:294,0
DA:295,0
DA:296,0
DA:297,0
DA:298,0
DA:299,0
DA:302,0
DA:303,0
DA:304,0
DA:305,0
DA:306,0
DA:307,0
DA:308,0
DA:309,0
DA:310,0
DA:311,0
DA:312,0
DA:313,0
DA:314,0
DA:315,0
DA:316,0
DA:317,0
DA:318,0
DA:319,0
DA:320,0
DA:321,0
DA:322,0
DA:325,0
DA:326,0
DA:327,0
DA:328,0
DA:329,0
DA:330,0
DA:331,0
DA:332,0
DA:333,0
DA:334,0
DA:335,0
DA:336,0
DA:339,0
DA:340,0
DA:341,0
DA:342,0
DA:343,0
DA:344,0
DA:345,0
DA:346,0
DA:347,0
DA:348,0
DA:349,0
DA:350,0
DA:351,0
DA:352,0
DA:353,0
DA:354,0
DA:355,0
DA:356,0
DA:359,0
DA:360,0
DA:361,0
DA:362,0
DA:363,0
DA:364,0
DA:365,0
DA:366,0
DA:368,0
DA:369,0
DA:370,0
DA:371,0
DA:372,0
DA:373,0
DA:374,0
DA:375,0
DA:376,0
DA:377,0
DA:378,0
DA:379,0
DA:380,0
DA:381,0
DA:382,0
DA:383,0
DA:384,0
DA:386,0
DA:387,0
DA:388,0
DA:389,0
DA:390,0
DA:391,0
DA:392,0
DA:393,0
DA:395,0
DA:396,0
DA:397,0
DA:398,0
DA:399,0
DA:400,0
DA:401,0
DA:402,0
DA:404,0
DA:405,0
DA:406,0
DA:407,0
DA:408,0
DA:409,0
DA:410,0
DA:411,0
DA:413,0
DA:414,0
DA:415,0
DA:416,0
DA:417,0
DA:418,0
DA:419,0
DA:420,0
DA:422,0
DA:423,0
DA:424,0
DA:425,0
DA:426,0
DA:427,0
DA:428,0
DA:429,0
DA:431,0
DA:432,0
DA:433,0
DA:434,0
DA:435,0
DA:436,0
DA:437,0
DA:438,0
DA:440,0
DA:441,0
DA:442,0
DA:443,0
DA:444,0
DA:445,0
DA:446,0
DA:447,0
DA:448,0
DA:449,0
DA:450,0
DA:451,0
DA:453,0
DA:454,0
DA:455,0
DA:456,0
DA:457,0
DA:458,0
DA:459,0
DA:460,0
DA:462,0
DA:463,0
DA:464,0
DA:465,0
DA:466,0
DA:467,0
DA:468,0
DA:469,0
DA:470,0
DA:471,0
DA:472,0
DA:473,0
DA:475,0
DA:476,0
DA:477,0
DA:478,0
DA:479,0
DA:480,0
DA:481,0
DA:482,0
DA:484,0
DA:485,0
DA:486,0
DA:487,0
DA:488,0
DA:489,0
DA:490,0
DA:491,0
DA:492,0
DA:493,0
DA:494,0
DA:495,0
DA:497,0
DA:498,0
DA:499,0
DA:500,0
DA:501,0
DA:502,0
DA:503,0
DA:504,0
DA:505,0
DA:506,0
DA:507,0
DA:508,0
DA:510,0
DA:511,0
DA:512,0
DA:513,0
DA:514,0
DA:515,0
DA:516,0
DA:517,0
DA:519,0
DA:520,0
DA:521,0
DA:522,0
DA:523,0
DA:524,0
DA:525,0
DA:526,0
DA:528,0
DA:529,0
DA:530,0
DA:531,0
DA:532,0
DA:533,0
DA:534,0
DA:535,0
DA:537,0
DA:538,0
DA:539,0
DA:540,0
DA:541,0
DA:542,0
DA:543,0
DA:544,0
DA:546,0
DA:547,0
DA:548,0
DA:549,0
DA:550,0
DA:551,0
DA:552,0
DA:553,0
DA:555,0
DA:556,0
DA:557,0
DA:558,0
DA:559,0
DA:560,0
DA:561,0
DA:562,0
DA:564,0
DA:565,0
DA:566,0
DA:567,0
DA:568,0
DA:569,0
DA:570,0
DA:571,0
DA:573,0
DA:574,0
DA:575,0
DA:576,0
DA:577,0
DA:578,0
DA:579,0
DA:580,0
DA:582,0
DA:583,0
DA:584,0
DA:585,0
DA:586,0
DA:587,0
DA:588,0
DA:589,0
DA:590,0
DA:591,0
DA:592,0
DA:593,0
DA:595,0
DA:596,0
DA:597,0
DA:598,0
DA:599,0
DA:600,0
DA:601,0
DA:602,0
DA:603,0
DA:604,0
DA:605,0
DA:606,0
DA:608,0
DA:609,0
DA:610,0
DA:611,0
DA:612,0
DA:613,0
DA:614,0
DA:615,0
DA:617,0
DA:618,0
DA:619,0
DA:620,0
DA:621,0
DA:622,0
DA:623,0
DA:624,0
DA:625,0
DA:626,0
DA:627,0
DA:628,0
DA:630,0
DA:631,0
DA:632,0
DA:633,0
DA:634,0
DA:635,0
DA:636,0
DA:637,0
DA:638,0
DA:639,0
DA:640,0
DA:641,0
DA:643,0
DA:644,0
DA:645,0
DA:646,0
DA:647,0
DA:648,0
DA:649,0
DA:650,0
DA:651,0
DA:652,0
DA:653,0
DA:654,0
DA:656,0
DA:657,0
DA:658,0
DA:659,0
DA:660,0
DA:661,0
DA:662,0
DA:663,0
DA:665,0
DA:666,0
DA:667,0
DA:668,0
DA:669,0
DA:670,0
DA:671,0
DA:672,0
DA:673,0
DA:674,0
DA:675,0
DA:676,0
DA:678,0
DA:679,0
DA:680,0
DA:681,0
DA:682,0
DA:683,0
DA:684,0
DA:685,0
DA:687,0
DA:688,0
DA:689,0
DA:690,0
DA:691,0
DA:692,0
DA:693,0
DA:694,0
DA:695,0
DA:696,0
DA:697,0
DA:698,0
DA:700,0
DA:701,0
DA:702,0
DA:703,0
DA:704,0
DA:705,0
DA:706,0
DA:707,0
DA:709,0
DA:710,0
DA:711,0
DA:712,0
DA:713,0
DA:714,0
DA:715,0
DA:716,0
DA:717,0
DA:718,0
DA:719,0
DA:720,0
DA:722,0
DA:723,0
DA:724,0
DA:725,0
DA:726,0
DA:727,0
DA:728,0
DA:729,0
DA:730,0
DA:731,0
DA:732,0
DA:733,0
DA:735,0
DA:736,0
DA:737,0
DA:738,0
DA:739,0
DA:740,0
DA:741,0
DA:742,0
DA:743,0
DA:744,0
DA:745,0
DA:746,0
DA:748,0
DA:749,0
DA:750,0
DA:751,0
DA:752,0
DA:753,0
DA:754,0
DA:755,0
DA:756,0
DA:757,0
DA:758,0
DA:759,0
DA:761,0
DA:762,0
DA:763,0
DA:764,0
DA:765,0
DA:766,0
DA:767,0
DA:768,0
DA:770,0
DA:771,0
DA:772,0
DA:773,0
DA:774,0
DA:775,0
DA:776,0
DA:777,0
DA:779,0
DA:780,0
DA:781,0
DA:782,0
DA:783,0
DA:784,0
DA:785,0
DA:786,0
DA:788,0
DA:789,0
DA:790,0
DA:791,0
DA:792,0
DA:793,0
DA:794,0
DA:795,0
DA:796,0
DA:797,0
DA:798,0
DA:799,0
DA:800,0
DA:801,0
DA:802,0
DA:804,0
DA:805,0
DA:806,0
DA:807,0
DA:808,0
DA:809,0
DA:810,0
DA:811,0
DA:813,0
DA:814,0
DA:815,0
DA:816,0
DA:817,0
DA:818,0
DA:819,0
DA:820,0
DA:822,0
DA:823,0
DA:824,0
DA:825,0
DA:826,0
DA:827,0
DA:828,0
DA:829,0
DA:831,0
DA:832,0
DA:833,0
DA:834,0
DA:835,0
DA:836,0
DA:837,0
DA:838,0
DA:841,0
DA:842,0
DA:843,0
DA:844,0
DA:845,0
DA:846,0
DA:847,0
DA:848,0
DA:850,0
DA:851,0
DA:852,0
DA:853,0
DA:854,0
DA:855,0
DA:856,0
DA:857,0
DA:859,0
DA:860,0
DA:861,0
DA:862,0
DA:863,0
DA:864,0
DA:865,0
DA:866,0
DA:868,0
DA:869,0
DA:870,0
DA:871,0
DA:872,0
DA:873,0
DA:874,0
DA:875,0
DA:877,0
DA:878,0
DA:879,0
DA:880,0
DA:881,0
DA:882,0
DA:883,0
DA:884,0
DA:885,0
DA:886,0
DA:887,0
DA:888,0
DA:890,0
DA:891,0
DA:892,0
DA:893,0
DA:894,0
DA:895,0
DA:896,0
DA:897,0
DA:898,0
DA:899,0
DA:900,0
DA:901,0
DA:903,0
DA:904,0
DA:905,0
DA:906,0
DA:907,0
DA:908,0
DA:909,0
DA:910,0
DA:912,0
DA:913,0
DA:914,0
DA:915,0
DA:916,0
DA:917,0
DA:918,0
DA:919,0
DA:921,0
DA:922,0
DA:923,0
DA:924,0
DA:925,0
DA:926,0
DA:927,0
DA:928,0
DA:930,0
DA:931,0
DA:932,0
DA:933,0
DA:934,0
DA:935,0
DA:936,0
DA:937,0
DA:938,0
DA:939,0
DA:940,0
DA:941,0
DA:943,0
DA:944,0
DA:945,0
DA:946,0
DA:947,0
DA:948,0
DA:949,0
DA:950,0
DA:951,0
DA:952,0
DA:953,0
DA:954,0
DA:956,0
DA:957,0
DA:958,0
DA:959,0
DA:960,0
DA:961,0
DA:962,0
DA:963,0
DA:965,0
DA:966,0
DA:967,0
DA:968,0
DA:969,0
DA:970,0
DA:971,0
DA:972,0
DA:974,0
DA:975,0
DA:976,0
DA:977,0
DA:978,0
DA:979,0
DA:980,0
DA:981,0
DA:982,0
DA:983,0
DA:984,0
DA:985,0
DA:987,0
DA:988,0
DA:989,0
DA:990,0
DA:991,0
DA:992,0
DA:993,0
DA:994,0
DA:995,0
DA:996,0
DA:997,0
DA:998,0
DA:1000,0
DA:1001,0
DA:1002,0
DA:1003,0
DA:1004,0
DA:1005,0
DA:1006,0
DA:1007,0
DA:1008,0
DA:1009,0
DA:1010,0
DA:1011,0
DA:1013,0
DA:1014,0
DA:1015,0
DA:1016,0
DA:1017,0
DA:1018,0
DA:1019,0
DA:1020,0
DA:1021,0
DA:1022,0
DA:1023,0
DA:1024,0
DA:1025,0
DA:1026,0
DA:1027,0
DA:1029,0
DA:1030,0
DA:1031,0
DA:1032,0
DA:1033,0
DA:1034,0
DA:1035,0
DA:1036,0
DA:1038,0
DA:1039,0
DA:1040,0
DA:1041,0
DA:1042,0
DA:1043,0
DA:1044,0
DA:1045,0
DA:1046,0
DA:1047,0
DA:1048,0
DA:1049,0
DA:1051,0
DA:1052,0
DA:1053,0
DA:1054,0
DA:1055,0
DA:1056,0
DA:1057,0
DA:1058,0
DA:1060,0
DA:1061,0
DA:1062,0
DA:1063,0
DA:1064,0
DA:1065,0
DA:1066,0
DA:1067,0
DA:1068,0
DA:1069,0
DA:1070,0
DA:1071,0
DA:1073,0
DA:1074,0
DA:1075,0
DA:1076,0
DA:1077,0
DA:1078,0
DA:1079,0
DA:1080,0
DA:1081,0
DA:1082,0
DA:1083,0
DA:1084,0
DA:1086,0
DA:1087,0
DA:1088,0
DA:1089,0
DA:1090,0
DA:1091,0
DA:1092,0
DA:1093,0
DA:1094,0
DA:1095,0
DA:1096,0
DA:1097,0
DA:1099,0
DA:1100,0
DA:1101,0
DA:1102,0
DA:1103,0
DA:1104,0
DA:1105,0
DA:1106,0
DA:1107,0
DA:1108,0
DA:1109,0
DA:1110,0
DA:1111,0
DA:1112,0
DA:1113,0
DA:1116,0
DA:1117,0
DA:1118,0
DA:1119,0
DA:1120,0
DA:1121,0
DA:1122,0
DA:1123,0
DA:1126,0
DA:1127,0
DA:1134,0
DA:1135,0
DA:1145,0
DA:1146,0
DA:1154,0
DA:1155,0
BRF:0
BRH:0
LF:968
LH:0
end_of_record
SF:/Users/mihaieremia/GitHub/rs-lending/lending_pool/src/proxies/proxy_pool.rs
FN:23,_RNvXININtNtCshiqmisuHlyH_12lending_pool7proxies10proxy_pool0ppppENtB5_18LiquidityPoolProxyINtNtNtNtCslPMlHj3qn2H_13multiversx_sc5types11interaction8tx_proxy12TxProxyTraitppppE13proxy_methodsB9_
FN:46,_RINvMs_NtNtCshiqmisuHlyH_12lending_pool7proxies10proxy_poolINtB5_25LiquidityPoolProxyMethodsppupE4initppppppppEB9_
FN:90,_RINvMs0_NtNtCshiqmisuHlyH_12lending_pool7proxies10proxy_poolINtB6_25LiquidityPoolProxyMethodsppppE7upgradeppppppEBa_
FN:132,_RNvMs1_NtNtCshiqmisuHlyH_12lending_pool7proxies10proxy_poolINtB5_25LiquidityPoolProxyMethodsppppE10pool_assetB9_
FN:146,_RNvMs1_NtNtCshiqmisuHlyH_12lending_pool7proxies10proxy_poolINtB5_25LiquidityPoolProxyMethodsppppE8reservesB9_
FN:160,_RNvMs1_NtNtCshiqmisuHlyH_12lending_pool7proxies10proxy_poolINtB5_25LiquidityPoolProxyMethodsppppE15supplied_amountB9_
FN:174,_RNvMs1_NtNtCshiqmisuHlyH_12lending_pool7proxies10proxy_poolINtB5_25LiquidityPoolProxyMethodsppppE16protocol_revenueB9_
FN:188,_RNvMs1_NtNtCshiqmisuHlyH_12lending_pool7proxies10proxy_poolINtB5_25LiquidityPoolProxyMethodsppppE15borrowed_amountB9_
FN:202,_RNvMs1_NtNtCshiqmisuHlyH_12lending_pool7proxies10proxy_poolINtB5_25LiquidityPoolProxyMethodsppppE11pool_paramsB9_
FN:217,_RNvMs1_NtNtCshiqmisuHlyH_12lending_pool7proxies10proxy_poolINtB5_25LiquidityPoolProxyMethodsppppE12borrow_indexB9_
FN:232,_RNvMs1_NtNtCshiqmisuHlyH_12lending_pool7proxies10proxy_poolINtB5_25LiquidityPoolProxyMethodsppppE12supply_indexB9_
FN:246,_RNvMs1_NtNtCshiqmisuHlyH_12lending_pool7proxies10proxy_poolINtB5_25LiquidityPoolProxyMethodsppppE21last_update_timestampB9_
FN:259,_RINvMs1_NtNtCshiqmisuHlyH_12lending_pool7proxies10proxy_poolINtB6_25LiquidityPoolProxyMethodsppppE14update_indexespEBa_
FN:280,_RINvMs1_NtNtCshiqmisuHlyH_12lending_pool7proxies10proxy_poolINtB6_25LiquidityPoolProxyMethodsppppE29update_position_with_interestppEBa_
FN:307,_RINvMs1_NtNtCshiqmisuHlyH_12lending_pool7proxies10proxy_poolINtB6_25LiquidityPoolProxyMethodsppppE6supplyppEBa_
FN:335,_RINvMs1_NtNtCshiqmisuHlyH_12lending_pool7proxies10proxy_poolINtB6_25LiquidityPoolProxyMethodsppppE6borrowppppEBa_
FN:369,_RINvMs1_NtNtCshiqmisuHlyH_12lending_pool7proxies10proxy_poolINtB6_25LiquidityPoolProxyMethodsppppE8withdrawppppppEBa_
FN:410,_RINvMs1_NtNtCshiqmisuHlyH_12lending_pool7proxies10proxy_poolINtB6_25LiquidityPoolProxyMethodsppppE5repaypppEBa_
FN:438,_RINvMs1_NtNtCshiqmisuHlyH_12lending_pool7proxies10proxy_poolINtB6_25LiquidityPoolProxyMethodsppppE10flash_loanpppppppEBa_
FN:469,_RINvMs1_NtNtCshiqmisuHlyH_12lending_pool7proxies10proxy_poolINtB6_25LiquidityPoolProxyMethodsppppE24internal_create_strategyppppEBa_
FN:498,_RINvMs1_NtNtCshiqmisuHlyH_12lending_pool7proxies10proxy_poolINtB6_25LiquidityPoolProxyMethodsppppE29add_external_protocol_revenuepEBa_
FN:517,_RINvMs1_NtNtCshiqmisuHlyH_12lending_pool7proxies10proxy_poolINtB6_25LiquidityPoolProxyMethodsppppE13claim_revenuepEBa_
FN:534,_RNvMs1_NtNtCshiqmisuHlyH_12lending_pool7proxies10proxy_poolINtB5_25LiquidityPoolProxyMethodsppppE23get_capital_utilisationB9_
FN:548,_RNvMs1_NtNtCshiqmisuHlyH_12lending_pool7proxies10proxy_poolINtB5_25LiquidityPoolProxyMethodsppppE17get_total_capitalB9_
FN:565,_RINvMs1_NtNtCshiqmisuHlyH_12lending_pool7proxies10proxy_poolINtB6_25LiquidityPoolProxyMethodsppppE17get_debt_interestppEBa_
FN:585,_RNvMs1_NtNtCshiqmisuHlyH_12lending_pool7proxies10proxy_poolINtB5_25LiquidityPoolProxyMethodsppppE16get_deposit_rateB9_
FN:598,_RNvMs1_NtNtCshiqmisuHlyH_12lending_pool7proxies10proxy_poolINtB5_25LiquidityPoolProxyMethodsppppE15get_borrow_rateB9_
FN:90,_RINvMs0_NtNtCs48qTgYy1n57_12lending_pool7proxies10proxy_poolINtB6_25LiquidityPoolProxyMethodsINtNtNtNtNtCslPMlHj3qn2H_13multiversx_sc5types11interaction7tx_exec9tx_env_sc7TxScEnvINtNtNtNtCs1rODQd5oASQ_22multiversx_sc_scenario3api7impl_vh12vm_hooks_api10VMHooksApiNtNtB2V_9debug_api15DebugApiBackendEEuINtNtNtNtB1C_7managed7wrapped15managed_address14ManagedAddressB2Q_EuE7upgradeINtNtB4U_8big_uint7BigUintB2Q_EB64_B64_B64_B64_B64_ECs8iyf5MSkCde_5tests
FN:438,_RINvMs1_NtNtCs48qTgYy1n57_12lending_pool7proxies10proxy_poolINtB6_25LiquidityPoolProxyMethodsINtNtNtNtNtCslPMlHj3qn2H_13multiversx_sc5types11interaction7tx_exec9tx_env_sc7TxScEnvINtNtNtNtCs1rODQd5oASQ_22multiversx_sc_scenario3api7impl_vh12vm_hooks_api10VMHooksApiNtNtB2V_9debug_api15DebugApiBackendEEuINtNtNtNtB1C_7managed7wrapped15managed_address14ManagedAddressB2Q_EuE10flash_loanRINtNtB4U_29egld_or_esdt_token_identifier25EgldOrEsdtTokenIdentifierB2Q_ERINtNtB4U_8big_uint7BigUintB2Q_ERB4P_INtNtNtB4W_5basic14managed_buffer13ManagedBufferB2Q_EINtNtB1A_18managed_arg_buffer16ManagedArgBufferB2Q_EB7j_B7j_ECs8iyf5MSkCde_5tests
FN:517,_RINvMs1_NtNtCs48qTgYy1n57_12lending_pool7proxies10proxy_poolINtB6_25LiquidityPoolProxyMethodsINtNtNtNtNtCslPMlHj3qn2H_13multiversx_sc5types11interaction7tx_exec9tx_env_sc7TxScEnvINtNtNtNtCs1rODQd5oASQ_22multiversx_sc_scenario3api7impl_vh12vm_hooks_api10VMHooksApiNtNtB2V_9debug_api15DebugApiBackendEEuINtNtNtNtB1C_7managed7wrapped15managed_address14ManagedAddressB2Q_EuE13claim_revenueRINtNtB4U_8big_uint7BigUintB2Q_EECs8iyf5MSkCde_5tests
FN:259,_RINvMs1_NtNtCs48qTgYy1n57_12lending_pool7proxies10proxy_poolINtB6_25LiquidityPoolProxyMethodsINtNtNtNtNtCslPMlHj3qn2H_13multiversx_sc5types11interaction7tx_exec9tx_env_sc7TxScEnvINtNtNtNtCs1rODQd5oASQ_22multiversx_sc_scenario3api7impl_vh12vm_hooks_api10VMHooksApiNtNtB2V_9debug_api15DebugApiBackendEEuINtNtNtNtB1C_7managed7wrapped15managed_address14ManagedAddressB2Q_EuE14update_indexesRINtNtB4U_8big_uint7BigUintB2Q_EECs8iyf5MSkCde_5tests
FN:498,_RINvMs1_NtNtCs48qTgYy1n57_12lending_pool7proxies10proxy_poolINtB6_25LiquidityPoolProxyMethodsINtNtNtNtNtCslPMlHj3qn2H_13multiversx_sc5types11interaction7tx_exec9tx_env_sc7TxScEnvINtNtNtNtCs1rODQd5oASQ_22multiversx_sc_scenario3api7impl_vh12vm_hooks_api10VMHooksApiNtNtB2V_9debug_api15DebugApiBackendEEuINtNtNtNtB1C_7managed7wrapped15managed_address14ManagedAddressB2Q_EuE29add_external_protocol_revenueRINtNtB4U_8big_uint7BigUintB2Q_EECs8iyf5MSkCde_5tests
FN:410,_RINvMs1_NtNtCs48qTgYy1n57_12lending_pool7proxies10proxy_poolINtB6_25LiquidityPoolProxyMethodsINtNtNtNtNtCslPMlHj3qn2H_13multiversx_sc5types11interaction7tx_exec9tx_env_sc7TxScEnvINtNtNtNtCs1rODQd5oASQ_22multiversx_sc_scenario3api7impl_vh12vm_hooks_api10VMHooksApiNtNtB2V_9debug_api15DebugApiBackendEEuINtNtNtNtB1C_7managed7wrapped15managed_address14ManagedAddressB2Q_EuE5repayRB4P_INtCs2eHPTk3TAlu_14common_structs15AccountPositionB2Q_ERINtNtB4U_8big_uint7BigUintB2Q_EECs8iyf5MSkCde_5tests
FN:335,_RINvMs1_NtNtCs48qTgYy1n57_12lending_pool7proxies10proxy_poolINtB6_25LiquidityPoolProxyMethodsINtNtNtNtNtCslPMlHj3qn2H_13multiversx_sc5types11interaction7tx_exec9tx_env_sc7TxScEnvINtNtNtNtCs1rODQd5oASQ_22multiversx_sc_scenario3api7impl_vh12vm_hooks_api10VMHooksApiNtNtB2V_9debug_api15DebugApiBackendEEuINtNtNtNtB1C_7managed7wrapped15managed_address14ManagedAddressB2Q_EuE6borrowRB4P_RINtNtB4U_8big_uint7BigUintB2Q_EINtCs2eHPTk3TAlu_14common_structs15AccountPositionB2Q_EB68_ECs8iyf5MSkCde_5tests
FN:307,_RINvMs1_NtNtCs48qTgYy1n57_12lending_pool7proxies10proxy_poolINtB6_25LiquidityPoolProxyMethodsINtNtNtNtNtCslPMlHj3qn2H_13multiversx_sc5types11interaction7tx_exec9tx_env_sc7TxScEnvINtNtNtNtCs1rODQd5oASQ_22multiversx_sc_scenario3api7impl_vh12vm_hooks_api10VMHooksApiNtNtB2V_9debug_api15DebugApiBackendEEuINtNtNtNtB1C_7managed7wrapped15managed_address14ManagedAddressB2Q_EuE6supplyINtCs2eHPTk3TAlu_14common_structs15AccountPositionB2Q_ERINtNtB4U_8big_uint7BigUintB2Q_EECs8iyf5MSkCde_5tests
FN:369,_RINvMs1_NtNtCs48qTgYy1n57_12lending_pool7proxies10proxy_poolINtB6_25LiquidityPoolProxyMethodsINtNtNtNtNtCslPMlHj3qn2H_13multiversx_sc5types11interaction7tx_exec9tx_env_sc7TxScEnvINtNtNtNtCs1rODQd5oASQ_22multiversx_sc_scenario3api7impl_vh12vm_hooks_api10VMHooksApiNtNtB2V_9debug_api15DebugApiBackendEEuINtNtNtNtB1C_7managed7wrapped15managed_address14ManagedAddressB2Q_EuE8withdrawRB4P_RINtNtB4U_8big_uint7BigUintB2Q_EINtCs2eHPTk3TAlu_14common_structs15AccountPositionB2Q_EbB6a_B6a_ECs8iyf5MSkCde_5tests
FN:280,_RINvMs1_NtNtCs48qTgYy1n57_12lending_pool7proxies10proxy_poolINtB6_25LiquidityPoolProxyMethodsINtNtNtNtNtCslPMlHj3qn2H_13multiversx_sc5types11interaction7tx_exec9tx_env_sc7TxScEnvINtNtNtNtCs1rODQd5oASQ_22multiversx_sc_scenario3api7impl_vh12vm_hooks_api10VMHooksApiNtNtB2V_9debug_api15DebugApiBackendEEuRINtNtNtNtB1C_7managed7wrapped15managed_address14ManagedAddressB2Q_EuE29update_position_with_interestINtCs2eHPTk3TAlu_14common_structs15AccountPositionB2Q_EINtNtNtCs5SUGlJDgeoS_19multiversx_sc_codec11multi_types20multi_value_optional13OptionalValueINtNtB4V_8big_uint7BigUintB2Q_EEECs8iyf5MSkCde_5tests
FN:369,_RINvMs1_NtNtCs48qTgYy1n57_12lending_pool7proxies10proxy_poolINtB6_25LiquidityPoolProxyMethodsINtNtNtNtNtCslPMlHj3qn2H_13multiversx_sc5types11interaction7tx_exec9tx_env_sc7TxScEnvINtNtNtNtCs1rODQd5oASQ_22multiversx_sc_scenario3api7impl_vh12vm_hooks_api10VMHooksApiNtNtB2V_9debug_api15DebugApiBackendEEuRINtNtNtNtB1C_7managed7wrapped15managed_address14ManagedAddressB2Q_EuE8withdrawB4P_INtNtB4V_8big_uint7BigUintB2Q_EINtCs2eHPTk3TAlu_14common_structs15AccountPositionB2Q_EbB6a_RB6a_ECs8iyf5MSkCde_5tests
FN:46,_RINvMs_NtNtCs48qTgYy1n57_12lending_pool7proxies10proxy_poolINtB5_25LiquidityPoolProxyMethodsINtNtNtNtNtCslPMlHj3qn2H_13multiversx_sc5types11interaction7tx_exec9tx_env_sc7TxScEnvINtNtNtNtCs1rODQd5oASQ_22multiversx_sc_scenario3api7impl_vh12vm_hooks_api10VMHooksApiNtNtB2U_9debug_api15DebugApiBackendEEuuuE4initRINtNtNtNtB1B_7managed7wrapped29egld_or_esdt_token_identifier25EgldOrEsdtTokenIdentifierB2P_ERINtNtB52_8big_uint7BigUintB2P_EB6r_B6r_B6r_B6r_B6r_jECs8iyf5MSkCde_5tests
FN:23,_RNvXNtNtCs48qTgYy1n57_12lending_pool7proxies10proxy_poolNtB2_18LiquidityPoolProxyINtNtNtNtCslPMlHj3qn2H_13multiversx_sc5types11interaction8tx_proxy12TxProxyTraitINtNtNtB1m_7tx_exec9tx_env_sc7TxScEnvINtNtNtNtCs1rODQd5oASQ_22multiversx_sc_scenario3api7impl_vh12vm_hooks_api10VMHooksApiNtNtB3f_9debug_api15DebugApiBackendEEuINtNtNtNtB1o_7managed7wrapped15managed_address14ManagedAddressB3a_EuE13proxy_methodsCs8iyf5MSkCde_5tests
FN:23,_RNvXNtNtCs48qTgYy1n57_12lending_pool7proxies10proxy_poolNtB2_18LiquidityPoolProxyINtNtNtNtCslPMlHj3qn2H_13multiversx_sc5types11interaction8tx_proxy12TxProxyTraitINtNtNtB1m_7tx_exec9tx_env_sc7TxScEnvINtNtNtNtCs1rODQd5oASQ_22multiversx_sc_scenario3api7impl_vh12vm_hooks_api10VMHooksApiNtNtB3f_9debug_api15DebugApiBackendEEuRINtNtNtNtB1o_7managed7wrapped15managed_address14ManagedAddressB3a_EuE13proxy_methodsCs8iyf5MSkCde_5tests
FN:23,_RNvXNtNtCs48qTgYy1n57_12lending_pool7proxies10proxy_poolNtB2_18LiquidityPoolProxyINtNtNtNtCslPMlHj3qn2H_13multiversx_sc5types11interaction8tx_proxy12TxProxyTraitINtNtNtB1m_7tx_exec9tx_env_sc7TxScEnvINtNtNtNtCs1rODQd5oASQ_22multiversx_sc_scenario3api7impl_vh12vm_hooks_api10VMHooksApiNtNtB3f_9debug_api15DebugApiBackendEEuuuE13proxy_methodsCs8iyf5MSkCde_5tests
FNDA:0,_RNvXININtNtCshiqmisuHlyH_12lending_pool7proxies10proxy_pool0ppppENtB5_18LiquidityPoolProxyINtNtNtNtCslPMlHj3qn2H_13multiversx_sc5types11interaction8tx_proxy12TxProxyTraitppppE13proxy_methodsB9_
FNDA:0,_RINvMs_NtNtCshiqmisuHlyH_12lending_pool7proxies10proxy_poolINtB5_25LiquidityPoolProxyMethodsppupE4initppppppppEB9_
FNDA:0,_RINvMs0_NtNtCshiqmisuHlyH_12lending_pool7proxies10proxy_poolINtB6_25LiquidityPoolProxyMethodsppppE7upgradeppppppEBa_
FNDA:0,_RNvMs1_NtNtCshiqmisuHlyH_12lending_pool7proxies10proxy_poolINtB5_25LiquidityPoolProxyMethodsppppE10pool_assetB9_
FNDA:0,_RNvMs1_NtNtCshiqmisuHlyH_12lending_pool7proxies10proxy_poolINtB5_25LiquidityPoolProxyMethodsppppE8reservesB9_
FNDA:0,_RNvMs1_NtNtCshiqmisuHlyH_12lending_pool7proxies10proxy_poolINtB5_25LiquidityPoolProxyMethodsppppE15supplied_amountB9_
FNDA:0,_RNvMs1_NtNtCshiqmisuHlyH_12lending_pool7proxies10proxy_poolINtB5_25LiquidityPoolProxyMethodsppppE16protocol_revenueB9_
FNDA:0,_RNvMs1_NtNtCshiqmisuHlyH_12lending_pool7proxies10proxy_poolINtB5_25LiquidityPoolProxyMethodsppppE15borrowed_amountB9_
FNDA:0,_RNvMs1_NtNtCshiqmisuHlyH_12lending_pool7proxies10proxy_poolINtB5_25LiquidityPoolProxyMethodsppppE11pool_paramsB9_
FNDA:0,_RNvMs1_NtNtCshiqmisuHlyH_12lending_pool7proxies10proxy_poolINtB5_25LiquidityPoolProxyMethodsppppE12borrow_indexB9_
FNDA:0,_RNvMs1_NtNtCshiqmisuHlyH_12lending_pool7proxies10proxy_poolINtB5_25LiquidityPoolProxyMethodsppppE12supply_indexB9_
FNDA:0,_RNvMs1_NtNtCshiqmisuHlyH_12lending_pool7proxies10proxy_poolINtB5_25LiquidityPoolProxyMethodsppppE21last_update_timestampB9_
FNDA:0,_RINvMs1_NtNtCshiqmisuHlyH_12lending_pool7proxies10proxy_poolINtB6_25LiquidityPoolProxyMethodsppppE14update_indexespEBa_
FNDA:0,_RINvMs1_NtNtCshiqmisuHlyH_12lending_pool7proxies10proxy_poolINtB6_25LiquidityPoolProxyMethodsppppE29update_position_with_interestppEBa_
FNDA:0,_RINvMs1_NtNtCshiqmisuHlyH_12lending_pool7proxies10proxy_poolINtB6_25LiquidityPoolProxyMethodsppppE6supplyppEBa_
FNDA:0,_RINvMs1_NtNtCshiqmisuHlyH_12lending_pool7proxies10proxy_poolINtB6_25LiquidityPoolProxyMethodsppppE6borrowppppEBa_
FNDA:0,_RINvMs1_NtNtCshiqmisuHlyH_12lending_pool7proxies10proxy_poolINtB6_25LiquidityPoolProxyMethodsppppE8withdrawppppppEBa_
FNDA:0,_RINvMs1_NtNtCshiqmisuHlyH_12lending_pool7proxies10proxy_poolINtB6_25LiquidityPoolProxyMethodsppppE5repaypppEBa_
FNDA:0,_RINvMs1_NtNtCshiqmisuHlyH_12lending_pool7proxies10proxy_poolINtB6_25LiquidityPoolProxyMethodsppppE10flash_loanpppppppEBa_
FNDA:0,_RINvMs1_NtNtCshiqmisuHlyH_12lending_pool7proxies10proxy_poolINtB6_25LiquidityPoolProxyMethodsppppE24internal_create_strategyppppEBa_
FNDA:0,_RINvMs1_NtNtCshiqmisuHlyH_12lending_pool7proxies10proxy_poolINtB6_25LiquidityPoolProxyMethodsppppE29add_external_protocol_revenuepEBa_
FNDA:0,_RINvMs1_NtNtCshiqmisuHlyH_12lending_pool7proxies10proxy_poolINtB6_25LiquidityPoolProxyMethodsppppE13claim_revenuepEBa_
FNDA:0,_RNvMs1_NtNtCshiqmisuHlyH_12lending_pool7proxies10proxy_poolINtB5_25LiquidityPoolProxyMethodsppppE23get_capital_utilisationB9_
FNDA:0,_RNvMs1_NtNtCshiqmisuHlyH_12lending_pool7proxies10proxy_poolINtB5_25LiquidityPoolProxyMethodsppppE17get_total_capitalB9_
FNDA:0,_RINvMs1_NtNtCshiqmisuHlyH_12lending_pool7proxies10proxy_poolINtB6_25LiquidityPoolProxyMethodsppppE17get_debt_interestppEBa_
FNDA:0,_RNvMs1_NtNtCshiqmisuHlyH_12lending_pool7proxies10proxy_poolINtB5_25LiquidityPoolProxyMethodsppppE16get_deposit_rateB9_
FNDA:0,_RNvMs1_NtNtCshiqmisuHlyH_12lending_pool7proxies10proxy_poolINtB5_25LiquidityPoolProxyMethodsppppE15get_borrow_rateB9_
FNDA:0,_RINvMs0_NtNtCs48qTgYy1n57_12lending_pool7proxies10proxy_poolINtB6_25LiquidityPoolProxyMethodsINtNtNtNtNtCslPMlHj3qn2H_13multiversx_sc5types11interaction7tx_exec9tx_env_sc7TxScEnvINtNtNtNtCs1rODQd5oASQ_22multiversx_sc_scenario3api7impl_vh12vm_hooks_api10VMHooksApiNtNtB2V_9debug_api15DebugApiBackendEEuINtNtNtNtB1C_7managed7wrapped15managed_address14ManagedAddressB2Q_EuE7upgradeINtNtB4U_8big_uint7BigUintB2Q_EB64_B64_B64_B64_B64_ECs8iyf5MSkCde_5tests
FNDA:3,_RINvMs1_NtNtCs48qTgYy1n57_12lending_pool7proxies10proxy_poolINtB6_25LiquidityPoolProxyMethodsINtNtNtNtNtCslPMlHj3qn2H_13multiversx_sc5types11interaction7tx_exec9tx_env_sc7TxScEnvINtNtNtNtCs1rODQd5oASQ_22multiversx_sc_scenario3api7impl_vh12vm_hooks_api10VMHooksApiNtNtB2V_9debug_api15DebugApiBackendEEuINtNtNtNtB1C_7managed7wrapped15managed_address14ManagedAddressB2Q_EuE10flash_loanRINtNtB4U_29egld_or_esdt_token_identifier25EgldOrEsdtTokenIdentifierB2Q_ERINtNtB4U_8big_uint7BigUintB2Q_ERB4P_INtNtNtB4W_5basic14managed_buffer13ManagedBufferB2Q_EINtNtB1A_18managed_arg_buffer16ManagedArgBufferB2Q_EB7j_B7j_ECs8iyf5MSkCde_5tests
FNDA:0,_RINvMs1_NtNtCs48qTgYy1n57_12lending_pool7proxies10proxy_poolINtB6_25LiquidityPoolProxyMethodsINtNtNtNtNtCslPMlHj3qn2H_13multiversx_sc5types11interaction7tx_exec9tx_env_sc7TxScEnvINtNtNtNtCs1rODQd5oASQ_22multiversx_sc_scenario3api7impl_vh12vm_hooks_api10VMHooksApiNtNtB2V_9debug_api15DebugApiBackendEEuINtNtNtNtB1C_7managed7wrapped15managed_address14ManagedAddressB2Q_EuE13claim_revenueRINtNtB4U_8big_uint7BigUintB2Q_EECs8iyf5MSkCde_5tests
FNDA:2,_RINvMs1_NtNtCs48qTgYy1n57_12lending_pool7proxies10proxy_poolINtB6_25LiquidityPoolProxyMethodsINtNtNtNtNtCslPMlHj3qn2H_13multiversx_sc5types11interaction7tx_exec9tx_env_sc7TxScEnvINtNtNtNtCs1rODQd5oASQ_22multiversx_sc_scenario3api7impl_vh12vm_hooks_api10VMHooksApiNtNtB2V_9debug_api15DebugApiBackendEEuINtNtNtNtB1C_7managed7wrapped15managed_address14ManagedAddressB2Q_EuE14update_indexesRINtNtB4U_8big_uint7BigUintB2Q_EECs8iyf5MSkCde_5tests
FNDA:1,_RINvMs1_NtNtCs48qTgYy1n57_12lending_pool7proxies10proxy_poolINtB6_25LiquidityPoolProxyMethodsINtNtNtNtNtCslPMlHj3qn2H_13multiversx_sc5types11interaction7tx_exec9tx_env_sc7TxScEnvINtNtNtNtCs1rODQd5oASQ_22multiversx_sc_scenario3api7impl_vh12vm_hooks_api10VMHooksApiNtNtB2V_9debug_api15DebugApiBackendEEuINtNtNtNtB1C_7managed7wrapped15managed_address14ManagedAddressB2Q_EuE29add_external_protocol_revenueRINtNtB4U_8big_uint7BigUintB2Q_EECs8iyf5MSkCde_5tests
FNDA:11,_RINvMs1_NtNtCs48qTgYy1n57_12lending_pool7proxies10proxy_poolINtB6_25LiquidityPoolProxyMethodsINtNtNtNtNtCslPMlHj3qn2H_13multiversx_sc5types11interaction7tx_exec9tx_env_sc7TxScEnvINtNtNtNtCs1rODQd5oASQ_22multiversx_sc_scenario3api7impl_vh12vm_hooks_api10VMHooksApiNtNtB2V_9debug_api15DebugApiBackendEEuINtNtNtNtB1C_7managed7wrapped15managed_address14ManagedAddressB2Q_EuE5repayRB4P_INtCs2eHPTk3TAlu_14common_structs15AccountPositionB2Q_ERINtNtB4U_8big_uint7BigUintB2Q_EECs8iyf5MSkCde_5tests
FNDA:32,_RINvMs1_NtNtCs48qTgYy1n57_12lending_pool7proxies10proxy_poolINtB6_25LiquidityPoolProxyMethodsINtNtNtNtNtCslPMlHj3qn2H_13multiversx_sc5types11interaction7tx_exec9tx_env_sc7TxScEnvINtNtNtNtCs1rODQd5oASQ_22multiversx_sc_scenario3api7impl_vh12vm_hooks_api10VMHooksApiNtNtB2V_9debug_api15DebugApiBackendEEuINtNtNtNtB1C_7managed7wrapped15managed_address14ManagedAddressB2Q_EuE6borrowRB4P_RINtNtB4U_8big_uint7BigUintB2Q_EINtCs2eHPTk3TAlu_14common_structs15AccountPositionB2Q_EB68_ECs8iyf5MSkCde_5tests
FNDA:74,_RINvMs1_NtNtCs48qTgYy1n57_12lending_pool7proxies10proxy_poolINtB6_25LiquidityPoolProxyMethodsINtNtNtNtNtCslPMlHj3qn2H_13multiversx_sc5types11interaction7tx_exec9tx_env_sc7TxScEnvINtNtNtNtCs1rODQd5oASQ_22multiversx_sc_scenario3api7impl_vh12vm_hooks_api10VMHooksApiNtNtB2V_9debug_api15DebugApiBackendEEuINtNtNtNtB1C_7managed7wrapped15managed_address14ManagedAddressB2Q_EuE6supplyINtCs2eHPTk3TAlu_14common_structs15AccountPositionB2Q_ERINtNtB4U_8big_uint7BigUintB2Q_EECs8iyf5MSkCde_5tests
FNDA:9,_RINvMs1_NtNtCs48qTgYy1n57_12lending_pool7proxies10proxy_poolINtB6_25LiquidityPoolProxyMethodsINtNtNtNtNtCslPMlHj3qn2H_13multiversx_sc5types11interaction7tx_exec9tx_env_sc7TxScEnvINtNtNtNtCs1rODQd5oASQ_22multiversx_sc_scenario3api7impl_vh12vm_hooks_api10VMHooksApiNtNtB2V_9debug_api15DebugApiBackendEEuINtNtNtNtB1C_7managed7wrapped15managed_address14ManagedAddressB2Q_EuE8withdrawRB4P_RINtNtB4U_8big_uint7BigUintB2Q_EINtCs2eHPTk3TAlu_14common_structs15AccountPositionB2Q_EbB6a_B6a_ECs8iyf5MSkCde_5tests
FNDA:813,_RINvMs1_NtNtCs48qTgYy1n57_12lending_pool7proxies10proxy_poolINtB6_25LiquidityPoolProxyMethodsINtNtNtNtNtCslPMlHj3qn2H_13multiversx_sc5types11interaction7tx_exec9tx_env_sc7TxScEnvINtNtNtNtCs1rODQd5oASQ_22multiversx_sc_scenario3api7impl_vh12vm_hooks_api10VMHooksApiNtNtB2V_9debug_api15DebugApiBackendEEuRINtNtNtNtB1C_7managed7wrapped15managed_address14ManagedAddressB2Q_EuE29update_position_with_interestINtCs2eHPTk3TAlu_14common_structs15AccountPositionB2Q_EINtNtNtCs5SUGlJDgeoS_19multiversx_sc_codec11multi_types20multi_value_optional13OptionalValueINtNtB4V_8big_uint7BigUintB2Q_EEECs8iyf5MSkCde_5tests
FNDA:2,_RINvMs1_NtNtCs48qTgYy1n57_12lending_pool7proxies10proxy_poolINtB6_25LiquidityPoolProxyMethodsINtNtNtNtNtCslPMlHj3qn2H_13multiversx_sc5types11interaction7tx_exec9tx_env_sc7TxScEnvINtNtNtNtCs1rODQd5oASQ_22multiversx_sc_scenario3api7impl_vh12vm_hooks_api10VMHooksApiNtNtB2V_9debug_api15DebugApiBackendEEuRINtNtNtNtB1C_7managed7wrapped15managed_address14ManagedAddressB2Q_EuE8withdrawB4P_INtNtB4V_8big_uint7BigUintB2Q_EINtCs2eHPTk3TAlu_14common_structs15AccountPositionB2Q_EbB6a_RB6a_ECs8iyf5MSkCde_5tests
FNDA:480,_RINvMs_NtNtCs48qTgYy1n57_12lending_pool7proxies10proxy_poolINtB5_25LiquidityPoolProxyMethodsINtNtNtNtNtCslPMlHj3qn2H_13multiversx_sc5types11interaction7tx_exec9tx_env_sc7TxScEnvINtNtNtNtCs1rODQd5oASQ_22multiversx_sc_scenario3api7impl_vh12vm_hooks_api10VMHooksApiNtNtB2U_9debug_api15DebugApiBackendEEuuuE4initRINtNtNtNtB1B_7managed7wrapped29egld_or_esdt_token_identifier25EgldOrEsdtTokenIdentifierB2P_ERINtNtB52_8big_uint7BigUintB2P_EB6r_B6r_B6r_B6r_B6r_jECs8iyf5MSkCde_5tests
FNDA:132,_RNvXNtNtCs48qTgYy1n57_12lending_pool7proxies10proxy_poolNtB2_18LiquidityPoolProxyINtNtNtNtCslPMlHj3qn2H_13multiversx_sc5types11interaction8tx_proxy12TxProxyTraitINtNtNtB1m_7tx_exec9tx_env_sc7TxScEnvINtNtNtNtCs1rODQd5oASQ_22multiversx_sc_scenario3api7impl_vh12vm_hooks_api10VMHooksApiNtNtB3f_9debug_api15DebugApiBackendEEuINtNtNtNtB1o_7managed7wrapped15managed_address14ManagedAddressB3a_EuE13proxy_methodsCs8iyf5MSkCde_5tests
FNDA:815,_RNvXNtNtCs48qTgYy1n57_12lending_pool7proxies10proxy_poolNtB2_18LiquidityPoolProxyINtNtNtNtCslPMlHj3qn2H_13multiversx_sc5types11interaction8tx_proxy12TxProxyTraitINtNtNtB1m_7tx_exec9tx_env_sc7TxScEnvINtNtNtNtCs1rODQd5oASQ_22multiversx_sc_scenario3api7impl_vh12vm_hooks_api10VMHooksApiNtNtB3f_9debug_api15DebugApiBackendEEuRINtNtNtNtB1o_7managed7wrapped15managed_address14ManagedAddressB3a_EuE13proxy_methodsCs8iyf5MSkCde_5tests
FNDA:480,_RNvXNtNtCs48qTgYy1n57_12lending_pool7proxies10proxy_poolNtB2_18LiquidityPoolProxyINtNtNtNtCslPMlHj3qn2H_13multiversx_sc5types11interaction8tx_proxy12TxProxyTraitINtNtNtB1m_7tx_exec9tx_env_sc7TxScEnvINtNtNtNtCs1rODQd5oASQ_22multiversx_sc_scenario3api7impl_vh12vm_hooks_api10VMHooksApiNtNtB3f_9debug_api15DebugApiBackendEEuuuE13proxy_methodsCs8iyf5MSkCde_5tests
FNF:27
FNH:10
DA:23,1427
DA:24,1427
DA:25,1427
DA:46,480
DA:47,480
DA:48,480
DA:49,480
DA:50,480
DA:51,480
DA:52,480
DA:53,480
DA:54,480
DA:55,480
DA:56,480
DA:57,480
DA:58,480
DA:59,480
DA:60,480
DA:61,480
DA:62,480
DA:63,480
DA:64,480
DA:65,480
DA:66,480
DA:67,480
DA:68,480
DA:69,480
DA:70,480
DA:71,480
DA:72,480
DA:73,480
DA:74,480
DA:75,480
DA:76,480
DA:77,480
DA:78,480
DA:90,0
DA:91,0
DA:92,0
DA:93,0
DA:94,0
DA:95,0
DA:96,0
DA:97,0
DA:98,0
DA:99,0
DA:100,0
DA:101,0
DA:102,0
DA:103,0
DA:104,0
DA:105,0
DA:106,0
DA:107,0
DA:108,0
DA:109,0
DA:110,0
DA:111,0
DA:112,0
DA:113,0
DA:114,0
DA:115,0
DA:116,0
DA:132,0
DA:133,0
DA:134,0
DA:135,0
DA:136,0
DA:137,0
DA:138,0
DA:139,0
DA:146,0
DA:147,0
DA:148,0
DA:149,0
DA:150,0
DA:151,0
DA:152,0
DA:153,0
DA:160,0
DA:161,0
DA:162,0
DA:163,0
DA:164,0
DA:165,0
DA:166,0
DA:167,0
DA:174,0
DA:175,0
DA:176,0
DA:177,0
DA:178,0
DA:179,0
DA:180,0
DA:181,0
DA:188,0
DA:189,0
DA:190,0
DA:191,0
DA:192,0
DA:193,0
DA:194,0
DA:195,0
DA:202,0
DA:203,0
DA:204,0
DA:205,0
DA:206,0
DA:207,0
DA:208,0
DA:209,0
DA:217,0
DA:218,0
DA:219,0
DA:220,0
DA:221,0
DA:222,0
DA:223,0
DA:224,0
DA:232,0
DA:233,0
DA:234,0
DA:235,0
DA:236,0
DA:237,0
DA:238,0
DA:239,0
DA:246,0
DA:247,0
DA:248,0
DA:249,0
DA:250,0
DA:251,0
DA:252,0
DA:253,0
DA:259,2
DA:260,2
DA:261,2
DA:262,2
DA:263,2
DA:264,2
DA:265,2
DA:266,2
DA:267,2
DA:268,2
DA:269,2
DA:270,2
DA:280,813
DA:281,813
DA:282,813
DA:283,813
DA:284,813
DA:285,813
DA:286,813
DA:287,813
DA:288,813
DA:289,813
DA:290,813
DA:291,813
DA:292,813
DA:293,813
DA:294,813
DA:307,74
DA:308,74
DA:309,74
DA:310,74
DA:311,74
DA:312,74
DA:313,74
DA:314,74
DA:315,74
DA:316,74
DA:317,74
DA:318,74
DA:319,74
DA:320,74
DA:335,32
DA:336,32
DA:337,32
DA:338,32
DA:339,32
DA:340,32
DA:341,32
DA:342,32
DA:343,32
DA:344,32
DA:345,32
DA:346,32
DA:347,32
DA:348,32
DA:349,32
DA:350,32
DA:351,32
DA:352,32
DA:353,32
DA:354,32
DA:355,32
DA:369,11
DA:370,11
DA:371,11
DA:372,11
DA:373,11
DA:374,11
DA:375,11
DA:376,11
DA:377,11
DA:378,11
DA:379,11
DA:380,11
DA:381,11
DA:382,11
DA:383,11
DA:384,11
DA:385,11
DA:386,11
DA:387,11
DA:388,11
DA:389,11
DA:390,11
DA:391,11
DA:392,11
DA:393,11
DA:394,11
DA:395,11
DA:410,11
DA:411,11
DA:412,11
DA:413,11
DA:414,11
DA:415,11
DA:416,11
DA:417,11
DA:418,11
DA:419,11
DA:420,11
DA:421,11
DA:422,11
DA:423,11
DA:424,11
DA:425,11
DA:426,11
DA:438,3
DA:439,3
DA:440,3
DA:441,3
DA:442,3
DA:443,3
DA:444,3
DA:445,3
DA:446,3
DA:447,3
DA:448,3
DA:449,3
DA:450,3
DA:451,3
DA:452,3
DA:453,3
DA:454,3
DA:455,3
DA:456,3
DA:457,3
DA:458,3
DA:459,3
DA:460,3
DA:461,3
DA:462,3
DA:463,3
DA:464,3
DA:465,3
DA:466,3
DA:467,3
DA:469,0
DA:470,0
DA:471,0
DA:472,0
DA:473,0
DA:474,0
DA:475,0
DA:476,0
DA:477,0
DA:478,0
DA:479,0
DA:480,0
DA:481,0
DA:482,0
DA:483,0
DA:484,0
DA:485,0
DA:486,0
DA:487,0
DA:488,0
DA:489,0
DA:498,1
DA:499,1
DA:500,1
DA:501,1
DA:502,1
DA:503,1
DA:504,1
DA:505,1
DA:506,1
DA:507,1
DA:508,1
DA:517,0
DA:518,0
DA:519,0
DA:520,0
DA:521,0
DA:522,0
DA:523,0
DA:524,0
DA:525,0
DA:526,0
DA:527,0
DA:528,0
DA:534,0
DA:535,0
DA:536,0
DA:537,0
DA:538,0
DA:539,0
DA:540,0
DA:541,0
DA:548,0
DA:549,0
DA:550,0
DA:551,0
DA:552,0
DA:553,0
DA:554,0
DA:555,0
DA:565,0
DA:566,0
DA:567,0
DA:568,0
DA:569,0
DA:570,0
DA:571,0
DA:572,0
DA:573,0
DA:574,0
DA:575,0
DA:576,0
DA:577,0
DA:578,0
DA:579,0
DA:585,0
DA:586,0
DA:587,0
DA:588,0
DA:589,0
DA:590,0
DA:591,0
DA:592,0
DA:598,0
DA:599,0
DA:600,0
DA:601,0
DA:602,0
DA:603,0
DA:604,0
DA:605,0
BRF:0
BRH:0
LF:362
LH:183
end_of_record
SF:/Users/mihaieremia/GitHub/rs-lending/lending_pool/src/proxies/proxy_price_aggregator.rs
FN:23,_RNvXININtNtCshiqmisuHlyH_12lending_pool7proxies22proxy_price_aggregator0ppppENtB5_20PriceAggregatorProxyINtNtNtNtCslPMlHj3qn2H_13multiversx_sc5types11interaction8tx_proxy12TxProxyTraitppppE13proxy_methodsB9_
FN:46,_RINvMs_NtNtCshiqmisuHlyH_12lending_pool7proxies22proxy_price_aggregatorINtB5_27PriceAggregatorProxyMethodsppupE4initppEB9_
FN:72,_RNvMs0_NtNtCshiqmisuHlyH_12lending_pool7proxies22proxy_price_aggregatorINtB5_27PriceAggregatorProxyMethodsppppE7upgradeB9_
FN:91,_RINvMs1_NtNtCshiqmisuHlyH_12lending_pool7proxies22proxy_price_aggregatorINtB6_27PriceAggregatorProxyMethodsppppE6submitpppppEBa_
FN:116,_RINvMs1_NtNtCshiqmisuHlyH_12lending_pool7proxies22proxy_price_aggregatorINtB6_27PriceAggregatorProxyMethodsppppE12submit_batchpEBa_
FN:129,_RNvMs1_NtNtCshiqmisuHlyH_12lending_pool7proxies22proxy_price_aggregatorINtB5_27PriceAggregatorProxyMethodsppppE14pause_endpointB9_
FN:138,_RNvMs1_NtNtCshiqmisuHlyH_12lending_pool7proxies22proxy_price_aggregatorINtB5_27PriceAggregatorProxyMethodsppppE16unpause_endpointB9_
FN:147,_RNvMs1_NtNtCshiqmisuHlyH_12lending_pool7proxies22proxy_price_aggregatorINtB5_27PriceAggregatorProxyMethodsppppE13paused_statusB9_
FN:156,_RNvMs1_NtNtCshiqmisuHlyH_12lending_pool7proxies22proxy_price_aggregatorINtB5_27PriceAggregatorProxyMethodsppppE16submission_countB9_
FN:165,_RINvMs1_NtNtCshiqmisuHlyH_12lending_pool7proxies22proxy_price_aggregatorINtB6_27PriceAggregatorProxyMethodsppppE17get_pair_decimalsppEBa_
FN:181,_RINvMs1_NtNtCshiqmisuHlyH_12lending_pool7proxies22proxy_price_aggregatorINtB6_27PriceAggregatorProxyMethodsppppE17latest_round_datapEBa_
FN:194,_RINvMs1_NtNtCshiqmisuHlyH_12lending_pool7proxies22proxy_price_aggregatorINtB6_27PriceAggregatorProxyMethodsppppE17latest_price_feedppEBa_
FN:210,_RINvMs1_NtNtCshiqmisuHlyH_12lending_pool7proxies22proxy_price_aggregatorINtB6_27PriceAggregatorProxyMethodsppppE26latest_price_feed_optionalppEBa_
FN:226,_RNvMs1_NtNtCshiqmisuHlyH_12lending_pool7proxies22proxy_price_aggregatorINtB5_27PriceAggregatorProxyMethodsppppE11get_oraclesB9_
FN:235,_RINvMs1_NtNtCshiqmisuHlyH_12lending_pool7proxies22proxy_price_aggregatorINtB6_27PriceAggregatorProxyMethodsppppE11add_oraclespEBa_
FN:250,_RINvMs1_NtNtCshiqmisuHlyH_12lending_pool7proxies22proxy_price_aggregatorINtB6_27PriceAggregatorProxyMethodsppppE14remove_oraclesppEBa_
FN:266,_RINvMs1_NtNtCshiqmisuHlyH_12lending_pool7proxies22proxy_price_aggregatorINtB6_27PriceAggregatorProxyMethodsppppE20set_submission_countpEBa_
FN:279,_RINvMs1_NtNtCshiqmisuHlyH_12lending_pool7proxies22proxy_price_aggregatorINtB6_27PriceAggregatorProxyMethodsppppE17set_pair_decimalspppEBa_
FN:300,_RINvXININtNtCshiqmisuHlyH_12lending_pool7proxies22proxy_price_aggregators5_0pEINtB6_13NewRoundEventpENtNtNtCs5SUGlJDgeoS_19multiversx_sc_codec6single6top_en9TopEncode24top_encode_or_handle_errppEBa_
FN:299,_RNvXININtNtCshiqmisuHlyH_12lending_pool7proxies22proxy_price_aggregators4_0pEINtB5_13NewRoundEventpENtNtNtCslPMlHj3qn2H_13multiversx_sc3abi8type_abi7TypeAbi9type_nameB9_
FN:299,_RINvXININtNtCshiqmisuHlyH_12lending_pool7proxies22proxy_price_aggregators4_0pEINtB6_13NewRoundEventpENtNtNtCslPMlHj3qn2H_13multiversx_sc3abi8type_abi7TypeAbi25provide_type_descriptionspEBa_
FN:313,_RINvXs9_NtNtCshiqmisuHlyH_12lending_pool7proxies22proxy_price_aggregatorNtB6_22DiscardSubmissionEventNtNtNtCs5SUGlJDgeoS_19multiversx_sc_codec6single6top_en9TopEncode24top_encode_or_handle_errppEBa_
FN:312,_RNvXs8_NtNtCshiqmisuHlyH_12lending_pool7proxies22proxy_price_aggregatorNtB5_22DiscardSubmissionEventNtNtNtCslPMlHj3qn2H_13multiversx_sc3abi8type_abi7TypeAbi9type_name
FN:312,_RINvXs8_NtNtCshiqmisuHlyH_12lending_pool7proxies22proxy_price_aggregatorNtB6_22DiscardSubmissionEventNtNtNtCslPMlHj3qn2H_13multiversx_sc3abi8type_abi7TypeAbi25provide_type_descriptionspEBa_
FN:321,_RINvXININtNtCshiqmisuHlyH_12lending_pool7proxies22proxy_price_aggregatorsd_0pEINtB6_9TokenPairpENtNtNtCs5SUGlJDgeoS_19multiversx_sc_codec6single9nested_en12NestedEncode24dep_encode_or_handle_errppEBa_
FN:321,_RINvXININtNtCshiqmisuHlyH_12lending_pool7proxies22proxy_price_aggregatorse_0pEINtB6_9TokenPairpENtNtNtCs5SUGlJDgeoS_19multiversx_sc_codec6single9nested_de12NestedDecode24dep_decode_or_handle_errppEBa_
FN:321,_RINvXININtNtCshiqmisuHlyH_12lending_pool7proxies22proxy_price_aggregatorsf_0pEINtB6_9TokenPairpENtNtNtCs5SUGlJDgeoS_19multiversx_sc_codec6single6top_en9TopEncode24top_encode_or_handle_errppEBa_
FN:321,_RINvXININtNtCshiqmisuHlyH_12lending_pool7proxies22proxy_price_aggregatorsg_0pEINtB6_9TokenPairpENtNtNtCs5SUGlJDgeoS_19multiversx_sc_codec6single6top_de9TopDecode24top_decode_or_handle_errppEBa_
FN:320,_RNvXININtNtCshiqmisuHlyH_12lending_pool7proxies22proxy_price_aggregatorsc_0pEINtB5_9TokenPairpENtNtNtCslPMlHj3qn2H_13multiversx_sc3abi8type_abi7TypeAbi9type_nameB9_
FN:320,_RINvXININtNtCshiqmisuHlyH_12lending_pool7proxies22proxy_price_aggregatorsc_0pEINtB6_9TokenPairpENtNtNtCslPMlHj3qn2H_13multiversx_sc3abi8type_abi7TypeAbi25provide_type_descriptionspEBa_
FN:331,_RINvXININtNtCshiqmisuHlyH_12lending_pool7proxies22proxy_price_aggregatorsl_0pEINtB6_9PriceFeedpENtNtNtCs5SUGlJDgeoS_19multiversx_sc_codec6single9nested_en12NestedEncode24dep_encode_or_handle_errppEBa_
FN:331,_RINvXININtNtCshiqmisuHlyH_12lending_pool7proxies22proxy_price_aggregatorsm_0pEINtB6_9PriceFeedpENtNtNtCs5SUGlJDgeoS_19multiversx_sc_codec6single9nested_de12NestedDecode24dep_decode_or_handle_errppEBa_
FN:331,_RINvXININtNtCshiqmisuHlyH_12lending_pool7proxies22proxy_price_aggregatorsn_0pEINtB6_9PriceFeedpENtNtNtCs5SUGlJDgeoS_19multiversx_sc_codec6single6top_en9TopEncode24top_encode_or_handle_errppEBa_
FN:331,_RINvXININtNtCshiqmisuHlyH_12lending_pool7proxies22proxy_price_aggregatorso_0pEINtB6_9PriceFeedpENtNtNtCs5SUGlJDgeoS_19multiversx_sc_codec6single6top_de9TopDecode24top_decode_or_handle_errppEBa_
FN:330,_RNvXININtNtCshiqmisuHlyH_12lending_pool7proxies22proxy_price_aggregatorsk_0pEINtB5_9PriceFeedpENtNtNtCslPMlHj3qn2H_13multiversx_sc3abi8type_abi7TypeAbi9type_nameB9_
FN:330,_RINvXININtNtCshiqmisuHlyH_12lending_pool7proxies22proxy_price_aggregatorsk_0pEINtB6_9PriceFeedpENtNtNtCslPMlHj3qn2H_13multiversx_sc3abi8type_abi7TypeAbi25provide_type_descriptionspEBa_
FN:194,_RINvMs1_NtNtCs48qTgYy1n57_12lending_pool7proxies22proxy_price_aggregatorINtB6_27PriceAggregatorProxyMethodsINtNtNtNtNtCslPMlHj3qn2H_13multiversx_sc5types11interaction7tx_exec9tx_env_sc7TxScEnvINtNtNtNtCs1rODQd5oASQ_22multiversx_sc_scenario3api7impl_vh12vm_hooks_api10VMHooksApiNtNtB39_9debug_api15DebugApiBackendEEuRINtNtNtNtB1Q_7managed7wrapped15managed_address14ManagedAddressB34_EuE17latest_price_feedINtNtNtB5b_5basic14managed_buffer13ManagedBufferB34_EB6u_ECs8iyf5MSkCde_5tests
FN:331,_RINvXso_NtNtCs48qTgYy1n57_12lending_pool7proxies22proxy_price_aggregatorINtB6_9PriceFeedINtNtNtNtCs1rODQd5oASQ_22multiversx_sc_scenario3api7impl_vh12vm_hooks_api10VMHooksApiNtNtB1t_9debug_api15DebugApiBackendEENtNtNtCs5SUGlJDgeoS_19multiversx_sc_codec6single6top_de9TopDecode24top_decode_or_handle_errINtNtNtNtNtCslPMlHj3qn2H_13multiversx_sc5types7managed5basic14managed_buffer13ManagedBufferB1o_EINtNtNtB50_2io17arg_error_handler15ArgErrorHandlerB1o_EECs8iyf5MSkCde_5tests
FN:23,_RNvXNtNtCs48qTgYy1n57_12lending_pool7proxies22proxy_price_aggregatorNtB2_20PriceAggregatorProxyINtNtNtNtCslPMlHj3qn2H_13multiversx_sc5types11interaction8tx_proxy12TxProxyTraitINtNtNtB1A_7tx_exec9tx_env_sc7TxScEnvINtNtNtNtCs1rODQd5oASQ_22multiversx_sc_scenario3api7impl_vh12vm_hooks_api10VMHooksApiNtNtB3t_9debug_api15DebugApiBackendEEuRINtNtNtNtB1C_7managed7wrapped15managed_address14ManagedAddressB3o_EuE13proxy_methodsCs8iyf5MSkCde_5tests
FNDA:0,_RNvXININtNtCshiqmisuHlyH_12lending_pool7proxies22proxy_price_aggregator0ppppENtB5_20PriceAggregatorProxyINtNtNtNtCslPMlHj3qn2H_13multiversx_sc5types11interaction8tx_proxy12TxProxyTraitppppE13proxy_methodsB9_
FNDA:0,_RINvMs_NtNtCshiqmisuHlyH_12lending_pool7proxies22proxy_price_aggregatorINtB5_27PriceAggregatorProxyMethodsppupE4initppEB9_
FNDA:0,_RNvMs0_NtNtCshiqmisuHlyH_12lending_pool7proxies22proxy_price_aggregatorINtB5_27PriceAggregatorProxyMethodsppppE7upgradeB9_
FNDA:0,_RINvMs1_NtNtCshiqmisuHlyH_12lending_pool7proxies22proxy_price_aggregatorINtB6_27PriceAggregatorProxyMethodsppppE6submitpppppEBa_
FNDA:0,_RINvMs1_NtNtCshiqmisuHlyH_12lending_pool7proxies22proxy_price_aggregatorINtB6_27PriceAggregatorProxyMethodsppppE12submit_batchpEBa_
FNDA:0,_RNvMs1_NtNtCshiqmisuHlyH_12lending_pool7proxies22proxy_price_aggregatorINtB5_27PriceAggregatorProxyMethodsppppE14pause_endpointB9_
FNDA:0,_RNvMs1_NtNtCshiqmisuHlyH_12lending_pool7proxies22proxy_price_aggregatorINtB5_27PriceAggregatorProxyMethodsppppE16unpause_endpointB9_
FNDA:0,_RNvMs1_NtNtCshiqmisuHlyH_12lending_pool7proxies22proxy_price_aggregatorINtB5_27PriceAggregatorProxyMethodsppppE13paused_statusB9_
FNDA:0,_RNvMs1_NtNtCshiqmisuHlyH_12lending_pool7proxies22proxy_price_aggregatorINtB5_27PriceAggregatorProxyMethodsppppE16submission_countB9_
FNDA:0,_RINvMs1_NtNtCshiqmisuHlyH_12lending_pool7proxies22proxy_price_aggregatorINtB6_27PriceAggregatorProxyMethodsppppE17get_pair_decimalsppEBa_
FNDA:0,_RINvMs1_NtNtCshiqmisuHlyH_12lending_pool7proxies22proxy_price_aggregatorINtB6_27PriceAggregatorProxyMethodsppppE17latest_round_datapEBa_
FNDA:0,_RINvMs1_NtNtCshiqmisuHlyH_12lending_pool7proxies22proxy_price_aggregatorINtB6_27PriceAggregatorProxyMethodsppppE17latest_price_feedppEBa_
FNDA:0,_RINvMs1_NtNtCshiqmisuHlyH_12lending_pool7proxies22proxy_price_aggregatorINtB6_27PriceAggregatorProxyMethodsppppE26latest_price_feed_optionalppEBa_
FNDA:0,_RNvMs1_NtNtCshiqmisuHlyH_12lending_pool7proxies22proxy_price_aggregatorINtB5_27PriceAggregatorProxyMethodsppppE11get_oraclesB9_
FNDA:0,_RINvMs1_NtNtCshiqmisuHlyH_12lending_pool7proxies22proxy_price_aggregatorINtB6_27PriceAggregatorProxyMethodsppppE11add_oraclespEBa_
FNDA:0,_RINvMs1_NtNtCshiqmisuHlyH_12lending_pool7proxies22proxy_price_aggregatorINtB6_27PriceAggregatorProxyMethodsppppE14remove_oraclesppEBa_
FNDA:0,_RINvMs1_NtNtCshiqmisuHlyH_12lending_pool7proxies22proxy_price_aggregatorINtB6_27PriceAggregatorProxyMethodsppppE20set_submission_countpEBa_
FNDA:0,_RINvMs1_NtNtCshiqmisuHlyH_12lending_pool7proxies22proxy_price_aggregatorINtB6_27PriceAggregatorProxyMethodsppppE17set_pair_decimalspppEBa_
FNDA:0,_RINvXININtNtCshiqmisuHlyH_12lending_pool7proxies22proxy_price_aggregators5_0pEINtB6_13NewRoundEventpENtNtNtCs5SUGlJDgeoS_19multiversx_sc_codec6single6top_en9TopEncode24top_encode_or_handle_errppEBa_
FNDA:0,_RNvXININtNtCshiqmisuHlyH_12lending_pool7proxies22proxy_price_aggregators4_0pEINtB5_13NewRoundEventpENtNtNtCslPMlHj3qn2H_13multiversx_sc3abi8type_abi7TypeAbi9type_nameB9_
FNDA:0,_RINvXININtNtCshiqmisuHlyH_12lending_pool7proxies22proxy_price_aggregators4_0pEINtB6_13NewRoundEventpENtNtNtCslPMlHj3qn2H_13multiversx_sc3abi8type_abi7TypeAbi25provide_type_descriptionspEBa_
FNDA:0,_RINvXs9_NtNtCshiqmisuHlyH_12lending_pool7proxies22proxy_price_aggregatorNtB6_22DiscardSubmissionEventNtNtNtCs5SUGlJDgeoS_19multiversx_sc_codec6single6top_en9TopEncode24top_encode_or_handle_errppEBa_
FNDA:0,_RNvXs8_NtNtCshiqmisuHlyH_12lending_pool7proxies22proxy_price_aggregatorNtB5_22DiscardSubmissionEventNtNtNtCslPMlHj3qn2H_13multiversx_sc3abi8type_abi7TypeAbi9type_name
FNDA:0,_RINvXs8_NtNtCshiqmisuHlyH_12lending_pool7proxies22proxy_price_aggregatorNtB6_22DiscardSubmissionEventNtNtNtCslPMlHj3qn2H_13multiversx_sc3abi8type_abi7TypeAbi25provide_type_descriptionspEBa_
FNDA:0,_RINvXININtNtCshiqmisuHlyH_12lending_pool7proxies22proxy_price_aggregatorsd_0pEINtB6_9TokenPairpENtNtNtCs5SUGlJDgeoS_19multiversx_sc_codec6single9nested_en12NestedEncode24dep_encode_or_handle_errppEBa_
FNDA:0,_RINvXININtNtCshiqmisuHlyH_12lending_pool7proxies22proxy_price_aggregatorse_0pEINtB6_9TokenPairpENtNtNtCs5SUGlJDgeoS_19multiversx_sc_codec6single9nested_de12NestedDecode24dep_decode_or_handle_errppEBa_
FNDA:0,_RINvXININtNtCshiqmisuHlyH_12lending_pool7proxies22proxy_price_aggregatorsf_0pEINtB6_9TokenPairpENtNtNtCs5SUGlJDgeoS_19multiversx_sc_codec6single6top_en9TopEncode24top_encode_or_handle_errppEBa_
FNDA:0,_RINvXININtNtCshiqmisuHlyH_12lending_pool7proxies22proxy_price_aggregatorsg_0pEINtB6_9TokenPairpENtNtNtCs5SUGlJDgeoS_19multiversx_sc_codec6single6top_de9TopDecode24top_decode_or_handle_errppEBa_
FNDA:0,_RNvXININtNtCshiqmisuHlyH_12lending_pool7proxies22proxy_price_aggregatorsc_0pEINtB5_9TokenPairpENtNtNtCslPMlHj3qn2H_13multiversx_sc3abi8type_abi7TypeAbi9type_nameB9_
FNDA:0,_RINvXININtNtCshiqmisuHlyH_12lending_pool7proxies22proxy_price_aggregatorsc_0pEINtB6_9TokenPairpENtNtNtCslPMlHj3qn2H_13multiversx_sc3abi8type_abi7TypeAbi25provide_type_descriptionspEBa_
FNDA:0,_RINvXININtNtCshiqmisuHlyH_12lending_pool7proxies22proxy_price_aggregatorsl_0pEINtB6_9PriceFeedpENtNtNtCs5SUGlJDgeoS_19multiversx_sc_codec6single9nested_en12NestedEncode24dep_encode_or_handle_errppEBa_
FNDA:0,_RINvXININtNtCshiqmisuHlyH_12lending_pool7proxies22proxy_price_aggregatorsm_0pEINtB6_9PriceFeedpENtNtNtCs5SUGlJDgeoS_19multiversx_sc_codec6single9nested_de12NestedDecode24dep_decode_or_handle_errppEBa_
FNDA:0,_RINvXININtNtCshiqmisuHlyH_12lending_pool7proxies22proxy_price_aggregatorsn_0pEINtB6_9PriceFeedpENtNtNtCs5SUGlJDgeoS_19multiversx_sc_codec6single6top_en9TopEncode24top_encode_or_handle_errppEBa_
FNDA:0,_RINvXININtNtCshiqmisuHlyH_12lending_pool7proxies22proxy_price_aggregatorso_0pEINtB6_9PriceFeedpENtNtNtCs5SUGlJDgeoS_19multiversx_sc_codec6single6top_de9TopDecode24top_decode_or_handle_errppEBa_
FNDA:0,_RNvXININtNtCshiqmisuHlyH_12lending_pool7proxies22proxy_price_aggregatorsk_0pEINtB5_9PriceFeedpENtNtNtCslPMlHj3qn2H_13multiversx_sc3abi8type_abi7TypeAbi9type_nameB9_
FNDA:0,_RINvXININtNtCshiqmisuHlyH_12lending_pool7proxies22proxy_price_aggregatorsk_0pEINtB6_9PriceFeedpENtNtNtCslPMlHj3qn2H_13multiversx_sc3abi8type_abi7TypeAbi25provide_type_descriptionspEBa_
FNDA:1066,_RINvMs1_NtNtCs48qTgYy1n57_12lending_pool7proxies22proxy_price_aggregatorINtB6_27PriceAggregatorProxyMethodsINtNtNtNtNtCslPMlHj3qn2H_13multiversx_sc5types11interaction7tx_exec9tx_env_sc7TxScEnvINtNtNtNtCs1rODQd5oASQ_22multiversx_sc_scenario3api7impl_vh12vm_hooks_api10VMHooksApiNtNtB39_9debug_api15DebugApiBackendEEuRINtNtNtNtB1Q_7managed7wrapped15managed_address14ManagedAddressB34_EuE17latest_price_feedINtNtNtB5b_5basic14managed_buffer13ManagedBufferB34_EB6u_ECs8iyf5MSkCde_5tests
FNDA:1066,_RINvXso_NtNtCs48qTgYy1n57_12lending_pool7proxies22proxy_price_aggregatorINtB6_9PriceFeedINtNtNtNtCs1rODQd5oASQ_22multiversx_sc_scenario3api7impl_vh12vm_hooks_api10VMHooksApiNtNtB1t_9debug_api15DebugApiBackendEENtNtNtCs5SUGlJDgeoS_19multiversx_sc_codec6single6top_de9TopDecode24top_decode_or_handle_errINtNtNtNtNtCslPMlHj3qn2H_13multiversx_sc5types7managed5basic14managed_buffer13ManagedBufferB1o_EINtNtNtB50_2io17arg_error_handler15ArgErrorHandlerB1o_EECs8iyf5MSkCde_5tests
FNDA:1066,_RNvXNtNtCs48qTgYy1n57_12lending_pool7proxies22proxy_price_aggregatorNtB2_20PriceAggregatorProxyINtNtNtNtCslPMlHj3qn2H_13multiversx_sc5types11interaction8tx_proxy12TxProxyTraitINtNtNtB1A_7tx_exec9tx_env_sc7TxScEnvINtNtNtNtCs1rODQd5oASQ_22multiversx_sc_scenario3api7impl_vh12vm_hooks_api10VMHooksApiNtNtB3t_9debug_api15DebugApiBackendEEuRINtNtNtNtB1C_7managed7wrapped15managed_address14ManagedAddressB3o_EuE13proxy_methodsCs8iyf5MSkCde_5tests
FNF:32
FNH:3
DA:23,1066
DA:24,1066
DA:25,1066
DA:46,0
DA:47,0
DA:48,0
DA:49,0
DA:50,0
DA:51,0
DA:52,0
DA:53,0
DA:54,0
DA:55,0
DA:56,0
DA:57,0
DA:58,0
DA:59,0
DA:60,0
DA:72,0
DA:73,0
DA:74,0
DA:75,0
DA:76,0
DA:77,0
DA:78,0
DA:79,0
DA:91,0
DA:92,0
DA:93,0
DA:94,0
DA:95,0
DA:96,0
DA:97,0
DA:98,0
DA:99,0
DA:100,0
DA:101,0
DA:102,0
DA:103,0
DA:104,0
DA:105,0
DA:106,0
DA:107,0
DA:108,0
DA:109,0
DA:110,0
DA:111,0
DA:112,0
DA:113,0
DA:114,0
DA:116,0
DA:117,0
DA:118,0
DA:119,0
DA:120,0
DA:121,0
DA:122,0
DA:123,0
DA:124,0
DA:125,0
DA:126,0
DA:127,0
DA:129,0
DA:130,0
DA:131,0
DA:132,0
DA:133,0
DA:134,0
DA:135,0
DA:136,0
DA:138,0
DA:139,0
DA:140,0
DA:141,0
DA:142,0
DA:143,0
DA:144,0
DA:145,0
DA:147,0
DA:148,0
DA:149,0
DA:150,0
DA:151,0
DA:152,0
DA:153,0
DA:154,0
DA:156,0
DA:157,0
DA:158,0
DA:159,0
DA:160,0
DA:161,0
DA:162,0
DA:163,0
DA:165,0
DA:166,0
DA:167,0
DA:168,0
DA:169,0
DA:170,0
DA:171,0
DA:172,0
DA:173,0
DA:174,0
DA:175,0
DA:176,0
DA:177,0
DA:178,0
DA:179,0
DA:181,0
DA:182,0
DA:183,0
DA:184,0
DA:185,0
DA:186,0
DA:187,0
DA:188,0
DA:189,0
DA:190,0
DA:191,0
DA:192,0
DA:194,1066
DA:195,1066
DA:196,1066
DA:197,1066
DA:198,1066
DA:199,1066
DA:200,1066
DA:201,1066
DA:202,1066
DA:203,1066
DA:204,1066
DA:205,1066
DA:206,1066
DA:207,1066
DA:208,1066
DA:210,0
DA:211,0
DA:212,0
DA:213,0
DA:214,0
DA:215,0
DA:216,0
DA:217,0
DA:218,0
DA:219,0
DA:220,0
DA:221,0
DA:222,0
DA:223,0
DA:224,0
DA:226,0
DA:227,0
DA:228,0
DA:229,0
DA:230,0
DA:231,0
DA:232,0
DA:233,0
DA:235,0
DA:236,0
DA:237,0
DA:238,0
DA:239,0
DA:240,0
DA:241,0
DA:242,0
DA:243,0
DA:244,0
DA:245,0
DA:246,0
DA:250,0
DA:251,0
DA:252,0
DA:253,0
DA:254,0
DA:255,0
DA:256,0
DA:257,0
DA:258,0
DA:259,0
DA:260,0
DA:261,0
DA:262,0
DA:263,0
DA:264,0
DA:266,0
DA:267,0
DA:268,0
DA:269,0
DA:270,0
DA:271,0
DA:272,0
DA:273,0
DA:274,0
DA:275,0
DA:276,0
DA:277,0
DA:279,0
DA:280,0
DA:281,0
DA:282,0
DA:283,0
DA:284,0
DA:285,0
DA:286,0
DA:287,0
DA:288,0
DA:289,0
DA:290,0
DA:291,0
DA:292,0
DA:293,0
DA:294,0
DA:295,0
DA:296,0
DA:299,0
DA:300,0
DA:312,0
DA:313,0
DA:320,0
DA:321,0
DA:330,0
DA:331,1066
BRF:0
BRH:0
LF:230
LH:19
end_of_record
SF:/Users/mihaieremia/GitHub/rs-lending/lending_pool/src/proxies/proxy_xexchange_pair.rs
FN:15,_RINvXs2_NtNtCshiqmisuHlyH_12lending_pool7proxies20proxy_xexchange_pairNtB6_5StateNtNtNtCs5SUGlJDgeoS_19multiversx_sc_codec6single6top_en9TopEncode24top_encode_or_handle_errppEBa_
FN:15,_RINvXs3_NtNtCshiqmisuHlyH_12lending_pool7proxies20proxy_xexchange_pairNtB6_5StateNtNtNtCs5SUGlJDgeoS_19multiversx_sc_codec6single6top_de9TopDecode24top_decode_or_handle_errppEBa_
FN:14,_RNvXs1_NtNtCshiqmisuHlyH_12lending_pool7proxies20proxy_xexchange_pairNtB5_5StateNtNtNtCslPMlHj3qn2H_13multiversx_sc3abi8type_abi7TypeAbi9type_name
FN:14,_RINvXs1_NtNtCshiqmisuHlyH_12lending_pool7proxies20proxy_xexchange_pairNtB6_5StateNtNtNtCslPMlHj3qn2H_13multiversx_sc3abi8type_abi7TypeAbi25provide_type_descriptionspEBa_
FN:31,_RNvXININtNtCshiqmisuHlyH_12lending_pool7proxies20proxy_xexchange_pair0ppppENtB5_9PairProxyINtNtNtNtCslPMlHj3qn2H_13multiversx_sc5types11interaction8tx_proxy12TxProxyTraitppppE13proxy_methodsB9_
FN:54,_RINvMs9_NtNtCshiqmisuHlyH_12lending_pool7proxies20proxy_xexchange_pairINtB6_16PairProxyMethodsppupE4initppppppppEBa_
FN:98,_RNvMsa_NtNtCshiqmisuHlyH_12lending_pool7proxies20proxy_xexchange_pairINtB5_16PairProxyMethodsppppE7upgradeB9_
FN:117,_RINvMsb_NtNtCshiqmisuHlyH_12lending_pool7proxies20proxy_xexchange_pairINtB6_16PairProxyMethodsppppE23set_lp_token_identifierpEBa_
FN:130,_RNvMsb_NtNtCshiqmisuHlyH_12lending_pool7proxies20proxy_xexchange_pairINtB5_16PairProxyMethodsppppE14is_fee_enabledB9_
FN:139,_RINvMsb_NtNtCshiqmisuHlyH_12lending_pool7proxies20proxy_xexchange_pairINtB6_16PairProxyMethodsppppE18whitelist_endpointpEBa_
FN:152,_RINvMsb_NtNtCshiqmisuHlyH_12lending_pool7proxies20proxy_xexchange_pairINtB6_16PairProxyMethodsppppE16remove_whitelistpEBa_
FN:165,_RINvMsb_NtNtCshiqmisuHlyH_12lending_pool7proxies20proxy_xexchange_pairINtB6_16PairProxyMethodsppppE21add_trusted_swap_pairpppEBa_
FN:184,_RINvMsb_NtNtCshiqmisuHlyH_12lending_pool7proxies20proxy_xexchange_pairINtB6_16PairProxyMethodsppppE24remove_trusted_swap_pairppEBa_
FN:204,_RINvMsb_NtNtCshiqmisuHlyH_12lending_pool7proxies20proxy_xexchange_pairINtB6_16PairProxyMethodsppppE20setup_fees_collectorppEBa_
FN:220,_RINvMsb_NtNtCshiqmisuHlyH_12lending_pool7proxies20proxy_xexchange_pairINtB6_16PairProxyMethodsppppE10set_fee_onpppEBa_
FN:239,_RNvMsb_NtNtCshiqmisuHlyH_12lending_pool7proxies20proxy_xexchange_pairINtB5_16PairProxyMethodsppppE20get_fee_destinationsB9_
FN:249,_RNvMsb_NtNtCshiqmisuHlyH_12lending_pool7proxies20proxy_xexchange_pairINtB5_16PairProxyMethodsppppE33get_whitelisted_managed_addressesB9_
FN:258,_RNvMsb_NtNtCshiqmisuHlyH_12lending_pool7proxies20proxy_xexchange_pairINtB5_16PairProxyMethodsppppE22fees_collector_addressB9_
FN:267,_RNvMsb_NtNtCshiqmisuHlyH_12lending_pool7proxies20proxy_xexchange_pairINtB5_16PairProxyMethodsppppE29fees_collector_cut_percentageB9_
FN:276,_RNvMsb_NtNtCshiqmisuHlyH_12lending_pool7proxies20proxy_xexchange_pairINtB5_16PairProxyMethodsppppE25set_state_active_no_swapsB9_
FN:285,_RINvMsb_NtNtCshiqmisuHlyH_12lending_pool7proxies20proxy_xexchange_pairINtB6_16PairProxyMethodsppppE15set_fee_percentppEBa_
FN:301,_RNvMsb_NtNtCshiqmisuHlyH_12lending_pool7proxies20proxy_xexchange_pairINtB5_16PairProxyMethodsppppE23get_lp_token_identifierB9_
FN:310,_RNvMsb_NtNtCshiqmisuHlyH_12lending_pool7proxies20proxy_xexchange_pairINtB5_16PairProxyMethodsppppE17total_fee_percentB9_
FN:319,_RNvMsb_NtNtCshiqmisuHlyH_12lending_pool7proxies20proxy_xexchange_pairINtB5_16PairProxyMethodsppppE19special_fee_percentB9_
FN:328,_RNvMsb_NtNtCshiqmisuHlyH_12lending_pool7proxies20proxy_xexchange_pairINtB5_16PairProxyMethodsppppE14router_addressB9_
FN:337,_RNvMsb_NtNtCshiqmisuHlyH_12lending_pool7proxies20proxy_xexchange_pairINtB5_16PairProxyMethodsppppE14first_token_idB9_
FN:346,_RNvMsb_NtNtCshiqmisuHlyH_12lending_pool7proxies20proxy_xexchange_pairINtB5_16PairProxyMethodsppppE15second_token_idB9_
FN:355,_RNvMsb_NtNtCshiqmisuHlyH_12lending_pool7proxies20proxy_xexchange_pairINtB5_16PairProxyMethodsppppE15lp_token_supplyB9_
FN:364,_RNvMsb_NtNtCshiqmisuHlyH_12lending_pool7proxies20proxy_xexchange_pairINtB5_16PairProxyMethodsppppE23initial_liquidity_adderB9_
FN:373,_RINvMsb_NtNtCshiqmisuHlyH_12lending_pool7proxies20proxy_xexchange_pairINtB6_16PairProxyMethodsppppE12pair_reservepEBa_
FN:386,_RNvMsb_NtNtCshiqmisuHlyH_12lending_pool7proxies20proxy_xexchange_pairINtB5_16PairProxyMethodsppppE24safe_price_current_indexB9_
FN:395,_RINvMsb_NtNtCshiqmisuHlyH_12lending_pool7proxies20proxy_xexchange_pairINtB6_16PairProxyMethodsppppE56update_and_get_tokens_for_given_position_with_safe_pricepEBa_
FN:408,_RINvMsb_NtNtCshiqmisuHlyH_12lending_pool7proxies20proxy_xexchange_pairINtB6_16PairProxyMethodsppppE25update_and_get_safe_pricepEBa_
FN:421,_RINvMsb_NtNtCshiqmisuHlyH_12lending_pool7proxies20proxy_xexchange_pairINtB6_16PairProxyMethodsppppE26set_locking_deadline_epochpEBa_
FN:434,_RINvMsb_NtNtCshiqmisuHlyH_12lending_pool7proxies20proxy_xexchange_pairINtB6_16PairProxyMethodsppppE22set_locking_sc_addresspEBa_
FN:447,_RINvMsb_NtNtCshiqmisuHlyH_12lending_pool7proxies20proxy_xexchange_pairINtB6_16PairProxyMethodsppppE16set_unlock_epochpEBa_
FN:460,_RNvMsb_NtNtCshiqmisuHlyH_12lending_pool7proxies20proxy_xexchange_pairINtB5_16PairProxyMethodsppppE18locking_sc_addressB9_
FN:469,_RNvMsb_NtNtCshiqmisuHlyH_12lending_pool7proxies20proxy_xexchange_pairINtB5_16PairProxyMethodsppppE12unlock_epochB9_
FN:478,_RNvMsb_NtNtCshiqmisuHlyH_12lending_pool7proxies20proxy_xexchange_pairINtB5_16PairProxyMethodsppppE22locking_deadline_epochB9_
FN:487,_RINvMsb_NtNtCshiqmisuHlyH_12lending_pool7proxies20proxy_xexchange_pairINtB6_16PairProxyMethodsppppE18add_admin_endpointpEBa_
FN:500,_RINvMsb_NtNtCshiqmisuHlyH_12lending_pool7proxies20proxy_xexchange_pairINtB6_16PairProxyMethodsppppE21remove_admin_endpointpEBa_
FN:513,_RINvMsb_NtNtCshiqmisuHlyH_12lending_pool7proxies20proxy_xexchange_pairINtB6_16PairProxyMethodsppppE30update_owner_or_admin_endpointpEBa_
FN:526,_RINvMsb_NtNtCshiqmisuHlyH_12lending_pool7proxies20proxy_xexchange_pairINtB6_16PairProxyMethodsppppE11permissionspEBa_
FN:539,_RINvMsb_NtNtCshiqmisuHlyH_12lending_pool7proxies20proxy_xexchange_pairINtB6_16PairProxyMethodsppppE22add_to_pause_whitelistpEBa_
FN:552,_RINvMsb_NtNtCshiqmisuHlyH_12lending_pool7proxies20proxy_xexchange_pairINtB6_16PairProxyMethodsppppE27remove_from_pause_whitelistpEBa_
FN:565,_RNvMsb_NtNtCshiqmisuHlyH_12lending_pool7proxies20proxy_xexchange_pairINtB5_16PairProxyMethodsppppE5pauseB9_
FN:574,_RNvMsb_NtNtCshiqmisuHlyH_12lending_pool7proxies20proxy_xexchange_pairINtB5_16PairProxyMethodsppppE6resumeB9_
FN:583,_RNvMsb_NtNtCshiqmisuHlyH_12lending_pool7proxies20proxy_xexchange_pairINtB5_16PairProxyMethodsppppE5stateB9_
FN:592,_RNvMsb_NtNtCshiqmisuHlyH_12lending_pool7proxies20proxy_xexchange_pairINtB5_16PairProxyMethodsppppE21add_initial_liquidityB9_
FN:600,_RINvMsb_NtNtCshiqmisuHlyH_12lending_pool7proxies20proxy_xexchange_pairINtB6_16PairProxyMethodsppppE13add_liquidityppEBa_
FN:615,_RINvMsb_NtNtCshiqmisuHlyH_12lending_pool7proxies20proxy_xexchange_pairINtB6_16PairProxyMethodsppppE16remove_liquidityppEBa_
FN:630,_RINvMsb_NtNtCshiqmisuHlyH_12lending_pool7proxies20proxy_xexchange_pairINtB6_16PairProxyMethodsppppE31remove_liquidity_and_burn_tokenpEBa_
FN:642,_RINvMsb_NtNtCshiqmisuHlyH_12lending_pool7proxies20proxy_xexchange_pairINtB6_16PairProxyMethodsppppE11swap_no_feeppEBa_
FN:657,_RINvMsb_NtNtCshiqmisuHlyH_12lending_pool7proxies20proxy_xexchange_pairINtB6_16PairProxyMethodsppppE23swap_tokens_fixed_inputppEBa_
FN:672,_RINvMsb_NtNtCshiqmisuHlyH_12lending_pool7proxies20proxy_xexchange_pairINtB6_16PairProxyMethodsppppE24swap_tokens_fixed_outputppEBa_
FN:687,_RINvMsb_NtNtCshiqmisuHlyH_12lending_pool7proxies20proxy_xexchange_pairINtB6_16PairProxyMethodsppppE29get_tokens_for_given_positionpEBa_
FN:700,_RNvMsb_NtNtCshiqmisuHlyH_12lending_pool7proxies20proxy_xexchange_pairINtB5_16PairProxyMethodsppppE29get_reserves_and_total_supplyB9_
FN:709,_RINvMsb_NtNtCshiqmisuHlyH_12lending_pool7proxies20proxy_xexchange_pairINtB6_16PairProxyMethodsppppE19get_amount_out_viewppEBa_
FN:725,_RINvMsb_NtNtCshiqmisuHlyH_12lending_pool7proxies20proxy_xexchange_pairINtB6_16PairProxyMethodsppppE18get_amount_in_viewppEBa_
FN:741,_RINvMsb_NtNtCshiqmisuHlyH_12lending_pool7proxies20proxy_xexchange_pairINtB6_16PairProxyMethodsppppE14get_equivalentppEBa_
FN:759,_RINvXININtNtCshiqmisuHlyH_12lending_pool7proxies20proxy_xexchange_pairsf_0pEINtB6_9SwapEventpENtNtNtCs5SUGlJDgeoS_19multiversx_sc_codec6single6top_en9TopEncode24top_encode_or_handle_errppEBa_
FN:759,_RINvXININtNtCshiqmisuHlyH_12lending_pool7proxies20proxy_xexchange_pairsg_0pEINtB6_9SwapEventpENtNtNtCs5SUGlJDgeoS_19multiversx_sc_codec6single6top_de9TopDecode24top_decode_or_handle_errppEBa_
FN:758,_RNvXININtNtCshiqmisuHlyH_12lending_pool7proxies20proxy_xexchange_pairse_0pEINtB5_9SwapEventpENtNtNtCslPMlHj3qn2H_13multiversx_sc3abi8type_abi7TypeAbi9type_nameB9_
FN:758,_RINvXININtNtCshiqmisuHlyH_12lending_pool7proxies20proxy_xexchange_pairse_0pEINtB6_9SwapEventpENtNtNtCslPMlHj3qn2H_13multiversx_sc3abi8type_abi7TypeAbi25provide_type_descriptionspEBa_
FN:778,_RINvXININtNtCshiqmisuHlyH_12lending_pool7proxies20proxy_xexchange_pairsk_0pEINtB6_24SwapNoFeeAndForwardEventpENtNtNtCs5SUGlJDgeoS_19multiversx_sc_codec6single6top_en9TopEncode24top_encode_or_handle_errppEBa_
FN:778,_RINvXININtNtCshiqmisuHlyH_12lending_pool7proxies20proxy_xexchange_pairsl_0pEINtB6_24SwapNoFeeAndForwardEventpENtNtNtCs5SUGlJDgeoS_19multiversx_sc_codec6single6top_de9TopDecode24top_decode_or_handle_errppEBa_
FN:777,_RNvXININtNtCshiqmisuHlyH_12lending_pool7proxies20proxy_xexchange_pairsj_0pEINtB5_24SwapNoFeeAndForwardEventpENtNtNtCslPMlHj3qn2H_13multiversx_sc3abi8type_abi7TypeAbi9type_nameB9_
FN:777,_RINvXININtNtCshiqmisuHlyH_12lending_pool7proxies20proxy_xexchange_pairsj_0pEINtB6_24SwapNoFeeAndForwardEventpENtNtNtCslPMlHj3qn2H_13multiversx_sc3abi8type_abi7TypeAbi25provide_type_descriptionspEBa_
FN:795,_RINvXININtNtCshiqmisuHlyH_12lending_pool7proxies20proxy_xexchange_pairsp_0pEINtB6_17AddLiquidityEventpENtNtNtCs5SUGlJDgeoS_19multiversx_sc_codec6single6top_en9TopEncode24top_encode_or_handle_errppEBa_
FN:795,_RINvXININtNtCshiqmisuHlyH_12lending_pool7proxies20proxy_xexchange_pairsq_0pEINtB6_17AddLiquidityEventpENtNtNtCs5SUGlJDgeoS_19multiversx_sc_codec6single6top_de9TopDecode24top_decode_or_handle_errppEBa_
FN:794,_RNvXININtNtCshiqmisuHlyH_12lending_pool7proxies20proxy_xexchange_pairso_0pEINtB5_17AddLiquidityEventpENtNtNtCslPMlHj3qn2H_13multiversx_sc3abi8type_abi7TypeAbi9type_nameB9_
FN:794,_RINvXININtNtCshiqmisuHlyH_12lending_pool7proxies20proxy_xexchange_pairso_0pEINtB6_17AddLiquidityEventpENtNtNtCslPMlHj3qn2H_13multiversx_sc3abi8type_abi7TypeAbi25provide_type_descriptionspEBa_
FN:816,_RINvXININtNtCshiqmisuHlyH_12lending_pool7proxies20proxy_xexchange_pairsu_0pEINtB6_20RemoveLiquidityEventpENtNtNtCs5SUGlJDgeoS_19multiversx_sc_codec6single6top_en9TopEncode24top_encode_or_handle_errppEBa_
FN:816,_RINvXININtNtCshiqmisuHlyH_12lending_pool7proxies20proxy_xexchange_pairsv_0pEINtB6_20RemoveLiquidityEventpENtNtNtCs5SUGlJDgeoS_19multiversx_sc_codec6single6top_de9TopDecode24top_decode_or_handle_errppEBa_
FN:815,_RNvXININtNtCshiqmisuHlyH_12lending_pool7proxies20proxy_xexchange_pairst_0pEINtB5_20RemoveLiquidityEventpENtNtNtCslPMlHj3qn2H_13multiversx_sc3abi8type_abi7TypeAbi9type_nameB9_
FN:815,_RINvXININtNtCshiqmisuHlyH_12lending_pool7proxies20proxy_xexchange_pairst_0pEINtB6_20RemoveLiquidityEventpENtNtNtCslPMlHj3qn2H_13multiversx_sc3abi8type_abi7TypeAbi25provide_type_descriptionspEBa_
FN:837,_RINvXININtNtCshiqmisuHlyH_12lending_pool7proxies20proxy_xexchange_pairsz_0pEINtB6_16PriceObservationpENtNtNtCs5SUGlJDgeoS_19multiversx_sc_codec6single6top_en9TopEncode24top_encode_or_handle_errppEBa_
FN:837,_RINvXININtNtCshiqmisuHlyH_12lending_pool7proxies20proxy_xexchange_pairsA_0pEINtB6_16PriceObservationpENtNtNtCs5SUGlJDgeoS_19multiversx_sc_codec6single6top_de9TopDecode24top_decode_or_handle_errppEBa_
FN:836,_RNvXININtNtCshiqmisuHlyH_12lending_pool7proxies20proxy_xexchange_pairsy_0pEINtB5_16PriceObservationpENtNtNtCslPMlHj3qn2H_13multiversx_sc3abi8type_abi7TypeAbi9type_nameB9_
FN:836,_RINvXININtNtCshiqmisuHlyH_12lending_pool7proxies20proxy_xexchange_pairsy_0pEINtB6_16PriceObservationpENtNtNtCslPMlHj3qn2H_13multiversx_sc3abi8type_abi7TypeAbi25provide_type_descriptionspEBa_
FN:54,_RINvMs9_NtNtCs48qTgYy1n57_12lending_pool7proxies20proxy_xexchange_pairINtB6_16PairProxyMethodsNtNtNtNtCs1rODQd5oASQ_22multiversx_sc_scenario6facade8world_tx18scenario_exec_call15ScenarioEnvExecNtNtNtNtNtCslPMlHj3qn2H_13multiversx_sc5types11interaction4expr12test_address11TestAddressuuE4initINtNtNtNtB3d_7managed7wrapped16token_identifier15TokenIdentifierINtNtNtNtB1C_3api7impl_vh12vm_hooks_api10VMHooksApiNtNtB5M_10static_api16StaticApiBackendEEB4F_B35_B35_yyB35_INtNtNtB4M_11multi_value19multi_value_encoded17MultiValueEncodedB5H_INtNtB4K_15managed_address14ManagedAddressB5H_EEECs8iyf5MSkCde_5tests
FN:657,_RINvMsb_NtNtCs48qTgYy1n57_12lending_pool7proxies20proxy_xexchange_pairINtB6_16PairProxyMethodsNtNtNtNtCs1rODQd5oASQ_22multiversx_sc_scenario6facade8world_tx18scenario_exec_call15ScenarioEnvExecNtNtNtNtNtCslPMlHj3qn2H_13multiversx_sc5types11interaction4expr12test_address11TestAddressINtNtNtNtB3d_7managed7wrapped15managed_address14ManagedAddressINtNtNtNtB1C_3api7impl_vh12vm_hooks_api10VMHooksApiNtNtB5C_10static_api16StaticApiBackendEEuE23swap_tokens_fixed_inputINtNtB4C_16token_identifier15TokenIdentifierB5x_EINtNtB4C_8big_uint7BigUintB5x_EECs8iyf5MSkCde_5tests
FN:15,_RINvXs3_NtNtCs48qTgYy1n57_12lending_pool7proxies20proxy_xexchange_pairNtB6_5StateNtNtNtCs5SUGlJDgeoS_19multiversx_sc_codec6single6top_de9TopDecode24top_decode_or_handle_errINtNtNtCslPMlHj3qn2H_13multiversx_sc7storage24storage_get_from_address26StorageGetFromAddressInputINtNtNtNtCs1rODQd5oASQ_22multiversx_sc_scenario3api7impl_vh12vm_hooks_api10VMHooksApiNtNtB4p_9debug_api15DebugApiBackendEEINtNtB2P_11storage_get22StorageGetErrorHandlerB4k_EECs8iyf5MSkCde_5tests
FN:337,_RNvMsb_NtNtCs48qTgYy1n57_12lending_pool7proxies20proxy_xexchange_pairINtB5_16PairProxyMethodsINtNtNtNtNtCslPMlHj3qn2H_13multiversx_sc5types11interaction7tx_exec9tx_env_sc7TxScEnvINtNtNtNtCs1rODQd5oASQ_22multiversx_sc_scenario3api7impl_vh12vm_hooks_api10VMHooksApiNtNtB2V_9debug_api15DebugApiBackendEEuRINtNtNtNtB1C_7managed7wrapped15managed_address14ManagedAddressB2Q_EuE14first_token_idCs8iyf5MSkCde_5tests
FN:346,_RNvMsb_NtNtCs48qTgYy1n57_12lending_pool7proxies20proxy_xexchange_pairINtB5_16PairProxyMethodsINtNtNtNtNtCslPMlHj3qn2H_13multiversx_sc5types11interaction7tx_exec9tx_env_sc7TxScEnvINtNtNtNtCs1rODQd5oASQ_22multiversx_sc_scenario3api7impl_vh12vm_hooks_api10VMHooksApiNtNtB2V_9debug_api15DebugApiBackendEEuRINtNtNtNtB1C_7managed7wrapped15managed_address14ManagedAddressB2Q_EuE15second_token_idCs8iyf5MSkCde_5tests
FN:592,_RNvMsb_NtNtCs48qTgYy1n57_12lending_pool7proxies20proxy_xexchange_pairINtB5_16PairProxyMethodsNtNtNtNtCs1rODQd5oASQ_22multiversx_sc_scenario6facade8world_tx18scenario_exec_call15ScenarioEnvExecNtNtNtNtNtCslPMlHj3qn2H_13multiversx_sc5types11interaction4expr12test_address11TestAddressINtNtNtNtB3c_7managed7wrapped15managed_address14ManagedAddressINtNtNtNtB1B_3api7impl_vh12vm_hooks_api10VMHooksApiNtNtB5B_10static_api16StaticApiBackendEEuE21add_initial_liquidityCs8iyf5MSkCde_5tests
FN:574,_RNvMsb_NtNtCs48qTgYy1n57_12lending_pool7proxies20proxy_xexchange_pairINtB5_16PairProxyMethodsNtNtNtNtCs1rODQd5oASQ_22multiversx_sc_scenario6facade8world_tx18scenario_exec_call15ScenarioEnvExecNtNtNtNtNtCslPMlHj3qn2H_13multiversx_sc5types11interaction4expr12test_address11TestAddressINtNtNtNtB3c_7managed7wrapped15managed_address14ManagedAddressINtNtNtNtB1B_3api7impl_vh12vm_hooks_api10VMHooksApiNtNtB5B_10static_api16StaticApiBackendEEuE6resumeCs8iyf5MSkCde_5tests
FN:31,_RNvXNtNtCs48qTgYy1n57_12lending_pool7proxies20proxy_xexchange_pairNtB2_9PairProxyINtNtNtNtCslPMlHj3qn2H_13multiversx_sc5types11interaction8tx_proxy12TxProxyTraitINtNtNtB1m_7tx_exec9tx_env_sc7TxScEnvINtNtNtNtCs1rODQd5oASQ_22multiversx_sc_scenario3api7impl_vh12vm_hooks_api10VMHooksApiNtNtB3f_9debug_api15DebugApiBackendEEuRINtNtNtNtB1o_7managed7wrapped15managed_address14ManagedAddressB3a_EuE13proxy_methodsCs8iyf5MSkCde_5tests
FN:31,_RNvXNtNtCs48qTgYy1n57_12lending_pool7proxies20proxy_xexchange_pairNtB2_9PairProxyINtNtNtNtCslPMlHj3qn2H_13multiversx_sc5types11interaction8tx_proxy12TxProxyTraitNtNtNtNtCs1rODQd5oASQ_22multiversx_sc_scenario6facade8world_tx18scenario_exec_call15ScenarioEnvExecNtNtNtB1m_4expr12test_address11TestAddressINtNtNtNtB1o_7managed7wrapped15managed_address14ManagedAddressINtNtNtNtB2H_3api7impl_vh12vm_hooks_api10VMHooksApiNtNtB5V_10static_api16StaticApiBackendEEuE13proxy_methodsCs8iyf5MSkCde_5tests
FN:31,_RNvXNtNtCs48qTgYy1n57_12lending_pool7proxies20proxy_xexchange_pairNtB2_9PairProxyINtNtNtNtCslPMlHj3qn2H_13multiversx_sc5types11interaction8tx_proxy12TxProxyTraitNtNtNtNtCs1rODQd5oASQ_22multiversx_sc_scenario6facade8world_tx18scenario_exec_call15ScenarioEnvExecNtNtNtB1m_4expr12test_address11TestAddressuuE13proxy_methodsCs8iyf5MSkCde_5tests
FNDA:0,_RINvXs2_NtNtCshiqmisuHlyH_12lending_pool7proxies20proxy_xexchange_pairNtB6_5StateNtNtNtCs5SUGlJDgeoS_19multiversx_sc_codec6single6top_en9TopEncode24top_encode_or_handle_errppEBa_
FNDA:0,_RINvXs3_NtNtCshiqmisuHlyH_12lending_pool7proxies20proxy_xexchange_pairNtB6_5StateNtNtNtCs5SUGlJDgeoS_19multiversx_sc_codec6single6top_de9TopDecode24top_decode_or_handle_errppEBa_
FNDA:0,_RNvXs1_NtNtCshiqmisuHlyH_12lending_pool7proxies20proxy_xexchange_pairNtB5_5StateNtNtNtCslPMlHj3qn2H_13multiversx_sc3abi8type_abi7TypeAbi9type_name
FNDA:0,_RINvXs1_NtNtCshiqmisuHlyH_12lending_pool7proxies20proxy_xexchange_pairNtB6_5StateNtNtNtCslPMlHj3qn2H_13multiversx_sc3abi8type_abi7TypeAbi25provide_type_descriptionspEBa_
FNDA:0,_RNvXININtNtCshiqmisuHlyH_12lending_pool7proxies20proxy_xexchange_pair0ppppENtB5_9PairProxyINtNtNtNtCslPMlHj3qn2H_13multiversx_sc5types11interaction8tx_proxy12TxProxyTraitppppE13proxy_methodsB9_
FNDA:0,_RINvMs9_NtNtCshiqmisuHlyH_12lending_pool7proxies20proxy_xexchange_pairINtB6_16PairProxyMethodsppupE4initppppppppEBa_
FNDA:0,_RNvMsa_NtNtCshiqmisuHlyH_12lending_pool7proxies20proxy_xexchange_pairINtB5_16PairProxyMethodsppppE7upgradeB9_
FNDA:0,_RINvMsb_NtNtCshiqmisuHlyH_12lending_pool7proxies20proxy_xexchange_pairINtB6_16PairProxyMethodsppppE23set_lp_token_identifierpEBa_
FNDA:0,_RNvMsb_NtNtCshiqmisuHlyH_12lending_pool7proxies20proxy_xexchange_pairINtB5_16PairProxyMethodsppppE14is_fee_enabledB9_
FNDA:0,_RINvMsb_NtNtCshiqmisuHlyH_12lending_pool7proxies20proxy_xexchange_pairINtB6_16PairProxyMethodsppppE18whitelist_endpointpEBa_
FNDA:0,_RINvMsb_NtNtCshiqmisuHlyH_12lending_pool7proxies20proxy_xexchange_pairINtB6_16PairProxyMethodsppppE16remove_whitelistpEBa_
FNDA:0,_RINvMsb_NtNtCshiqmisuHlyH_12lending_pool7proxies20proxy_xexchange_pairINtB6_16PairProxyMethodsppppE21add_trusted_swap_pairpppEBa_
FNDA:0,_RINvMsb_NtNtCshiqmisuHlyH_12lending_pool7proxies20proxy_xexchange_pairINtB6_16PairProxyMethodsppppE24remove_trusted_swap_pairppEBa_
FNDA:0,_RINvMsb_NtNtCshiqmisuHlyH_12lending_pool7proxies20proxy_xexchange_pairINtB6_16PairProxyMethodsppppE20setup_fees_collectorppEBa_
FNDA:0,_RINvMsb_NtNtCshiqmisuHlyH_12lending_pool7proxies20proxy_xexchange_pairINtB6_16PairProxyMethodsppppE10set_fee_onpppEBa_
FNDA:0,_RNvMsb_NtNtCshiqmisuHlyH_12lending_pool7proxies20proxy_xexchange_pairINtB5_16PairProxyMethodsppppE20get_fee_destinationsB9_
FNDA:0,_RNvMsb_NtNtCshiqmisuHlyH_12lending_pool7proxies20proxy_xexchange_pairINtB5_16PairProxyMethodsppppE33get_whitelisted_managed_addressesB9_
FNDA:0,_RNvMsb_NtNtCshiqmisuHlyH_12lending_pool7proxies20proxy_xexchange_pairINtB5_16PairProxyMethodsppppE22fees_collector_addressB9_
FNDA:0,_RNvMsb_NtNtCshiqmisuHlyH_12lending_pool7proxies20proxy_xexchange_pairINtB5_16PairProxyMethodsppppE29fees_collector_cut_percentageB9_
FNDA:0,_RNvMsb_NtNtCshiqmisuHlyH_12lending_pool7proxies20proxy_xexchange_pairINtB5_16PairProxyMethodsppppE25set_state_active_no_swapsB9_
FNDA:0,_RINvMsb_NtNtCshiqmisuHlyH_12lending_pool7proxies20proxy_xexchange_pairINtB6_16PairProxyMethodsppppE15set_fee_percentppEBa_
FNDA:0,_RNvMsb_NtNtCshiqmisuHlyH_12lending_pool7proxies20proxy_xexchange_pairINtB5_16PairProxyMethodsppppE23get_lp_token_identifierB9_
FNDA:0,_RNvMsb_NtNtCshiqmisuHlyH_12lending_pool7proxies20proxy_xexchange_pairINtB5_16PairProxyMethodsppppE17total_fee_percentB9_
FNDA:0,_RNvMsb_NtNtCshiqmisuHlyH_12lending_pool7proxies20proxy_xexchange_pairINtB5_16PairProxyMethodsppppE19special_fee_percentB9_
FNDA:0,_RNvMsb_NtNtCshiqmisuHlyH_12lending_pool7proxies20proxy_xexchange_pairINtB5_16PairProxyMethodsppppE14router_addressB9_
FNDA:0,_RNvMsb_NtNtCshiqmisuHlyH_12lending_pool7proxies20proxy_xexchange_pairINtB5_16PairProxyMethodsppppE14first_token_idB9_
FNDA:0,_RNvMsb_NtNtCshiqmisuHlyH_12lending_pool7proxies20proxy_xexchange_pairINtB5_16PairProxyMethodsppppE15second_token_idB9_
FNDA:0,_RNvMsb_NtNtCshiqmisuHlyH_12lending_pool7proxies20proxy_xexchange_pairINtB5_16PairProxyMethodsppppE15lp_token_supplyB9_
FNDA:0,_RNvMsb_NtNtCshiqmisuHlyH_12lending_pool7proxies20proxy_xexchange_pairINtB5_16PairProxyMethodsppppE23initial_liquidity_adderB9_
FNDA:0,_RINvMsb_NtNtCshiqmisuHlyH_12lending_pool7proxies20proxy_xexchange_pairINtB6_16PairProxyMethodsppppE12pair_reservepEBa_
FNDA:0,_RNvMsb_NtNtCshiqmisuHlyH_12lending_pool7proxies20proxy_xexchange_pairINtB5_16PairProxyMethodsppppE24safe_price_current_indexB9_
FNDA:0,_RINvMsb_NtNtCshiqmisuHlyH_12lending_pool7proxies20proxy_xexchange_pairINtB6_16PairProxyMethodsppppE56update_and_get_tokens_for_given_position_with_safe_pricepEBa_
FNDA:0,_RINvMsb_NtNtCshiqmisuHlyH_12lending_pool7proxies20proxy_xexchange_pairINtB6_16PairProxyMethodsppppE25update_and_get_safe_pricepEBa_
FNDA:0,_RINvMsb_NtNtCshiqmisuHlyH_12lending_pool7proxies20proxy_xexchange_pairINtB6_16PairProxyMethodsppppE26set_locking_deadline_epochpEBa_
FNDA:0,_RINvMsb_NtNtCshiqmisuHlyH_12lending_pool7proxies20proxy_xexchange_pairINtB6_16PairProxyMethodsppppE22set_locking_sc_addresspEBa_
FNDA:0,_RINvMsb_NtNtCshiqmisuHlyH_12lending_pool7proxies20proxy_xexchange_pairINtB6_16PairProxyMethodsppppE16set_unlock_epochpEBa_
FNDA:0,_RNvMsb_NtNtCshiqmisuHlyH_12lending_pool7proxies20proxy_xexchange_pairINtB5_16PairProxyMethodsppppE18locking_sc_addressB9_
FNDA:0,_RNvMsb_NtNtCshiqmisuHlyH_12lending_pool7proxies20proxy_xexchange_pairINtB5_16PairProxyMethodsppppE12unlock_epochB9_
FNDA:0,_RNvMsb_NtNtCshiqmisuHlyH_12lending_pool7proxies20proxy_xexchange_pairINtB5_16PairProxyMethodsppppE22locking_deadline_epochB9_
FNDA:0,_RINvMsb_NtNtCshiqmisuHlyH_12lending_pool7proxies20proxy_xexchange_pairINtB6_16PairProxyMethodsppppE18add_admin_endpointpEBa_
FNDA:0,_RINvMsb_NtNtCshiqmisuHlyH_12lending_pool7proxies20proxy_xexchange_pairINtB6_16PairProxyMethodsppppE21remove_admin_endpointpEBa_
FNDA:0,_RINvMsb_NtNtCshiqmisuHlyH_12lending_pool7proxies20proxy_xexchange_pairINtB6_16PairProxyMethodsppppE30update_owner_or_admin_endpointpEBa_
FNDA:0,_RINvMsb_NtNtCshiqmisuHlyH_12lending_pool7proxies20proxy_xexchange_pairINtB6_16PairProxyMethodsppppE11permissionspEBa_
FNDA:0,_RINvMsb_NtNtCshiqmisuHlyH_12lending_pool7proxies20proxy_xexchange_pairINtB6_16PairProxyMethodsppppE22add_to_pause_whitelistpEBa_
FNDA:0,_RINvMsb_NtNtCshiqmisuHlyH_12lending_pool7proxies20proxy_xexchange_pairINtB6_16PairProxyMethodsppppE27remove_from_pause_whitelistpEBa_
FNDA:0,_RNvMsb_NtNtCshiqmisuHlyH_12lending_pool7proxies20proxy_xexchange_pairINtB5_16PairProxyMethodsppppE5pauseB9_
FNDA:0,_RNvMsb_NtNtCshiqmisuHlyH_12lending_pool7proxies20proxy_xexchange_pairINtB5_16PairProxyMethodsppppE6resumeB9_
FNDA:0,_RNvMsb_NtNtCshiqmisuHlyH_12lending_pool7proxies20proxy_xexchange_pairINtB5_16PairProxyMethodsppppE5stateB9_
FNDA:0,_RNvMsb_NtNtCshiqmisuHlyH_12lending_pool7proxies20proxy_xexchange_pairINtB5_16PairProxyMethodsppppE21add_initial_liquidityB9_
FNDA:0,_RINvMsb_NtNtCshiqmisuHlyH_12lending_pool7proxies20proxy_xexchange_pairINtB6_16PairProxyMethodsppppE13add_liquidityppEBa_
FNDA:0,_RINvMsb_NtNtCshiqmisuHlyH_12lending_pool7proxies20proxy_xexchange_pairINtB6_16PairProxyMethodsppppE16remove_liquidityppEBa_
FNDA:0,_RINvMsb_NtNtCshiqmisuHlyH_12lending_pool7proxies20proxy_xexchange_pairINtB6_16PairProxyMethodsppppE31remove_liquidity_and_burn_tokenpEBa_
FNDA:0,_RINvMsb_NtNtCshiqmisuHlyH_12lending_pool7proxies20proxy_xexchange_pairINtB6_16PairProxyMethodsppppE11swap_no_feeppEBa_
FNDA:0,_RINvMsb_NtNtCshiqmisuHlyH_12lending_pool7proxies20proxy_xexchange_pairINtB6_16PairProxyMethodsppppE23swap_tokens_fixed_inputppEBa_
FNDA:0,_RINvMsb_NtNtCshiqmisuHlyH_12lending_pool7proxies20proxy_xexchange_pairINtB6_16PairProxyMethodsppppE24swap_tokens_fixed_outputppEBa_
FNDA:0,_RINvMsb_NtNtCshiqmisuHlyH_12lending_pool7proxies20proxy_xexchange_pairINtB6_16PairProxyMethodsppppE29get_tokens_for_given_positionpEBa_
FNDA:0,_RNvMsb_NtNtCshiqmisuHlyH_12lending_pool7proxies20proxy_xexchange_pairINtB5_16PairProxyMethodsppppE29get_reserves_and_total_supplyB9_
FNDA:0,_RINvMsb_NtNtCshiqmisuHlyH_12lending_pool7proxies20proxy_xexchange_pairINtB6_16PairProxyMethodsppppE19get_amount_out_viewppEBa_
FNDA:0,_RINvMsb_NtNtCshiqmisuHlyH_12lending_pool7proxies20proxy_xexchange_pairINtB6_16PairProxyMethodsppppE18get_amount_in_viewppEBa_
FNDA:0,_RINvMsb_NtNtCshiqmisuHlyH_12lending_pool7proxies20proxy_xexchange_pairINtB6_16PairProxyMethodsppppE14get_equivalentppEBa_
FNDA:0,_RINvXININtNtCshiqmisuHlyH_12lending_pool7proxies20proxy_xexchange_pairsf_0pEINtB6_9SwapEventpENtNtNtCs5SUGlJDgeoS_19multiversx_sc_codec6single6top_en9TopEncode24top_encode_or_handle_errppEBa_
FNDA:0,_RINvXININtNtCshiqmisuHlyH_12lending_pool7proxies20proxy_xexchange_pairsg_0pEINtB6_9SwapEventpENtNtNtCs5SUGlJDgeoS_19multiversx_sc_codec6single6top_de9TopDecode24top_decode_or_handle_errppEBa_
FNDA:0,_RNvXININtNtCshiqmisuHlyH_12lending_pool7proxies20proxy_xexchange_pairse_0pEINtB5_9SwapEventpENtNtNtCslPMlHj3qn2H_13multiversx_sc3abi8type_abi7TypeAbi9type_nameB9_
FNDA:0,_RINvXININtNtCshiqmisuHlyH_12lending_pool7proxies20proxy_xexchange_pairse_0pEINtB6_9SwapEventpENtNtNtCslPMlHj3qn2H_13multiversx_sc3abi8type_abi7TypeAbi25provide_type_descriptionspEBa_
FNDA:0,_RINvXININtNtCshiqmisuHlyH_12lending_pool7proxies20proxy_xexchange_pairsk_0pEINtB6_24SwapNoFeeAndForwardEventpENtNtNtCs5SUGlJDgeoS_19multiversx_sc_codec6single6top_en9TopEncode24top_encode_or_handle_errppEBa_
FNDA:0,_RINvXININtNtCshiqmisuHlyH_12lending_pool7proxies20proxy_xexchange_pairsl_0pEINtB6_24SwapNoFeeAndForwardEventpENtNtNtCs5SUGlJDgeoS_19multiversx_sc_codec6single6top_de9TopDecode24top_decode_or_handle_errppEBa_
FNDA:0,_RNvXININtNtCshiqmisuHlyH_12lending_pool7proxies20proxy_xexchange_pairsj_0pEINtB5_24SwapNoFeeAndForwardEventpENtNtNtCslPMlHj3qn2H_13multiversx_sc3abi8type_abi7TypeAbi9type_nameB9_
FNDA:0,_RINvXININtNtCshiqmisuHlyH_12lending_pool7proxies20proxy_xexchange_pairsj_0pEINtB6_24SwapNoFeeAndForwardEventpENtNtNtCslPMlHj3qn2H_13multiversx_sc3abi8type_abi7TypeAbi25provide_type_descriptionspEBa_
FNDA:0,_RINvXININtNtCshiqmisuHlyH_12lending_pool7proxies20proxy_xexchange_pairsp_0pEINtB6_17AddLiquidityEventpENtNtNtCs5SUGlJDgeoS_19multiversx_sc_codec6single6top_en9TopEncode24top_encode_or_handle_errppEBa_
FNDA:0,_RINvXININtNtCshiqmisuHlyH_12lending_pool7proxies20proxy_xexchange_pairsq_0pEINtB6_17AddLiquidityEventpENtNtNtCs5SUGlJDgeoS_19multiversx_sc_codec6single6top_de9TopDecode24top_decode_or_handle_errppEBa_
FNDA:0,_RNvXININtNtCshiqmisuHlyH_12lending_pool7proxies20proxy_xexchange_pairso_0pEINtB5_17AddLiquidityEventpENtNtNtCslPMlHj3qn2H_13multiversx_sc3abi8type_abi7TypeAbi9type_nameB9_
FNDA:0,_RINvXININtNtCshiqmisuHlyH_12lending_pool7proxies20proxy_xexchange_pairso_0pEINtB6_17AddLiquidityEventpENtNtNtCslPMlHj3qn2H_13multiversx_sc3abi8type_abi7TypeAbi25provide_type_descriptionspEBa_
FNDA:0,_RINvXININtNtCshiqmisuHlyH_12lending_pool7proxies20proxy_xexchange_pairsu_0pEINtB6_20RemoveLiquidityEventpENtNtNtCs5SUGlJDgeoS_19multiversx_sc_codec6single6top_en9TopEncode24top_encode_or_handle_errppEBa_
FNDA:0,_RINvXININtNtCshiqmisuHlyH_12lending_pool7proxies20proxy_xexchange_pairsv_0pEINtB6_20RemoveLiquidityEventpENtNtNtCs5SUGlJDgeoS_19multiversx_sc_codec6single6top_de9TopDecode24top_decode_or_handle_errppEBa_
FNDA:0,_RNvXININtNtCshiqmisuHlyH_12lending_pool7proxies20proxy_xexchange_pairst_0pEINtB5_20RemoveLiquidityEventpENtNtNtCslPMlHj3qn2H_13multiversx_sc3abi8type_abi7TypeAbi9type_nameB9_
FNDA:0,_RINvXININtNtCshiqmisuHlyH_12lending_pool7proxies20proxy_xexchange_pairst_0pEINtB6_20RemoveLiquidityEventpENtNtNtCslPMlHj3qn2H_13multiversx_sc3abi8type_abi7TypeAbi25provide_type_descriptionspEBa_
FNDA:0,_RINvXININtNtCshiqmisuHlyH_12lending_pool7proxies20proxy_xexchange_pairsz_0pEINtB6_16PriceObservationpENtNtNtCs5SUGlJDgeoS_19multiversx_sc_codec6single6top_en9TopEncode24top_encode_or_handle_errppEBa_
FNDA:0,_RINvXININtNtCshiqmisuHlyH_12lending_pool7proxies20proxy_xexchange_pairsA_0pEINtB6_16PriceObservationpENtNtNtCs5SUGlJDgeoS_19multiversx_sc_codec6single6top_de9TopDecode24top_decode_or_handle_errppEBa_
FNDA:0,_RNvXININtNtCshiqmisuHlyH_12lending_pool7proxies20proxy_xexchange_pairsy_0pEINtB5_16PriceObservationpENtNtNtCslPMlHj3qn2H_13multiversx_sc3abi8type_abi7TypeAbi9type_nameB9_
FNDA:0,_RINvXININtNtCshiqmisuHlyH_12lending_pool7proxies20proxy_xexchange_pairsy_0pEINtB6_16PriceObservationpENtNtNtCslPMlHj3qn2H_13multiversx_sc3abi8type_abi7TypeAbi25provide_type_descriptionspEBa_
FNDA:384,_RINvMs9_NtNtCs48qTgYy1n57_12lending_pool7proxies20proxy_xexchange_pairINtB6_16PairProxyMethodsNtNtNtNtCs1rODQd5oASQ_22multiversx_sc_scenario6facade8world_tx18scenario_exec_call15ScenarioEnvExecNtNtNtNtNtCslPMlHj3qn2H_13multiversx_sc5types11interaction4expr12test_address11TestAddressuuE4initINtNtNtNtB3d_7managed7wrapped16token_identifier15TokenIdentifierINtNtNtNtB1C_3api7impl_vh12vm_hooks_api10VMHooksApiNtNtB5M_10static_api16StaticApiBackendEEB4F_B35_B35_yyB35_INtNtNtB4M_11multi_value19multi_value_encoded17MultiValueEncodedB5H_INtNtB4K_15managed_address14ManagedAddressB5H_EEECs8iyf5MSkCde_5tests
FNDA:336,_RINvMsb_NtNtCs48qTgYy1n57_12lending_pool7proxies20proxy_xexchange_pairINtB6_16PairProxyMethodsNtNtNtNtCs1rODQd5oASQ_22multiversx_sc_scenario6facade8world_tx18scenario_exec_call15ScenarioEnvExecNtNtNtNtNtCslPMlHj3qn2H_13multiversx_sc5types11interaction4expr12test_address11TestAddressINtNtNtNtB3d_7managed7wrapped15managed_address14ManagedAddressINtNtNtNtB1C_3api7impl_vh12vm_hooks_api10VMHooksApiNtNtB5C_10static_api16StaticApiBackendEEuE23swap_tokens_fixed_inputINtNtB4C_16token_identifier15TokenIdentifierB5x_EINtNtB4C_8big_uint7BigUintB5x_EECs8iyf5MSkCde_5tests
FNDA:121,_RINvXs3_NtNtCs48qTgYy1n57_12lending_pool7proxies20proxy_xexchange_pairNtB6_5StateNtNtNtCs5SUGlJDgeoS_19multiversx_sc_codec6single6top_de9TopDecode24top_decode_or_handle_errINtNtNtCslPMlHj3qn2H_13multiversx_sc7storage24storage_get_from_address26StorageGetFromAddressInputINtNtNtNtCs1rODQd5oASQ_22multiversx_sc_scenario3api7impl_vh12vm_hooks_api10VMHooksApiNtNtB4p_9debug_api15DebugApiBackendEEINtNtB2P_11storage_get22StorageGetErrorHandlerB4k_EECs8iyf5MSkCde_5tests
FNDA:480,_RNvMsb_NtNtCs48qTgYy1n57_12lending_pool7proxies20proxy_xexchange_pairINtB5_16PairProxyMethodsINtNtNtNtNtCslPMlHj3qn2H_13multiversx_sc5types11interaction7tx_exec9tx_env_sc7TxScEnvINtNtNtNtCs1rODQd5oASQ_22multiversx_sc_scenario3api7impl_vh12vm_hooks_api10VMHooksApiNtNtB2V_9debug_api15DebugApiBackendEEuRINtNtNtNtB1C_7managed7wrapped15managed_address14ManagedAddressB2Q_EuE14first_token_idCs8iyf5MSkCde_5tests
FNDA:480,_RNvMsb_NtNtCs48qTgYy1n57_12lending_pool7proxies20proxy_xexchange_pairINtB5_16PairProxyMethodsINtNtNtNtNtCslPMlHj3qn2H_13multiversx_sc5types11interaction7tx_exec9tx_env_sc7TxScEnvINtNtNtNtCs1rODQd5oASQ_22multiversx_sc_scenario3api7impl_vh12vm_hooks_api10VMHooksApiNtNtB2V_9debug_api15DebugApiBackendEEuRINtNtNtNtB1C_7managed7wrapped15managed_address14ManagedAddressB2Q_EuE15second_token_idCs8iyf5MSkCde_5tests
FNDA:336,_RNvMsb_NtNtCs48qTgYy1n57_12lending_pool7proxies20proxy_xexchange_pairINtB5_16PairProxyMethodsNtNtNtNtCs1rODQd5oASQ_22multiversx_sc_scenario6facade8world_tx18scenario_exec_call15ScenarioEnvExecNtNtNtNtNtCslPMlHj3qn2H_13multiversx_sc5types11interaction4expr12test_address11TestAddressINtNtNtNtB3c_7managed7wrapped15managed_address14ManagedAddressINtNtNtNtB1B_3api7impl_vh12vm_hooks_api10VMHooksApiNtNtB5B_10static_api16StaticApiBackendEEuE21add_initial_liquidityCs8iyf5MSkCde_5tests
FNDA:336,_RNvMsb_NtNtCs48qTgYy1n57_12lending_pool7proxies20proxy_xexchange_pairINtB5_16PairProxyMethodsNtNtNtNtCs1rODQd5oASQ_22multiversx_sc_scenario6facade8world_tx18scenario_exec_call15ScenarioEnvExecNtNtNtNtNtCslPMlHj3qn2H_13multiversx_sc5types11interaction4expr12test_address11TestAddressINtNtNtNtB3c_7managed7wrapped15managed_address14ManagedAddressINtNtNtNtB1B_3api7impl_vh12vm_hooks_api10VMHooksApiNtNtB5B_10static_api16StaticApiBackendEEuE6resumeCs8iyf5MSkCde_5tests
FNDA:960,_RNvXNtNtCs48qTgYy1n57_12lending_pool7proxies20proxy_xexchange_pairNtB2_9PairProxyINtNtNtNtCslPMlHj3qn2H_13multiversx_sc5types11interaction8tx_proxy12TxProxyTraitINtNtNtB1m_7tx_exec9tx_env_sc7TxScEnvINtNtNtNtCs1rODQd5oASQ_22multiversx_sc_scenario3api7impl_vh12vm_hooks_api10VMHooksApiNtNtB3f_9debug_api15DebugApiBackendEEuRINtNtNtNtB1o_7managed7wrapped15managed_address14ManagedAddressB3a_EuE13proxy_methodsCs8iyf5MSkCde_5tests
FNDA:1008,_RNvXNtNtCs48qTgYy1n57_12lending_pool7proxies20proxy_xexchange_pairNtB2_9PairProxyINtNtNtNtCslPMlHj3qn2H_13multiversx_sc5types11interaction8tx_proxy12TxProxyTraitNtNtNtNtCs1rODQd5oASQ_22multiversx_sc_scenario6facade8world_tx18scenario_exec_call15ScenarioEnvExecNtNtNtB1m_4expr12test_address11TestAddressINtNtNtNtB1o_7managed7wrapped15managed_address14ManagedAddressINtNtNtNtB2H_3api7impl_vh12vm_hooks_api10VMHooksApiNtNtB5V_10static_api16StaticApiBackendEEuE13proxy_methodsCs8iyf5MSkCde_5tests
FNDA:384,_RNvXNtNtCs48qTgYy1n57_12lending_pool7proxies20proxy_xexchange_pairNtB2_9PairProxyINtNtNtNtCslPMlHj3qn2H_13multiversx_sc5types11interaction8tx_proxy12TxProxyTraitNtNtNtNtCs1rODQd5oASQ_22multiversx_sc_scenario6facade8world_tx18scenario_exec_call15ScenarioEnvExecNtNtNtB1m_4expr12test_address11TestAddressuuE13proxy_methodsCs8iyf5MSkCde_5tests
FNF:74
FNH:8
DA:14,0
DA:15,121
DA:31,2352
DA:32,2352
DA:33,2352
DA:54,384
DA:55,384
DA:56,384
DA:57,384
DA:58,384
DA:59,384
DA:60,384
DA:61,384
DA:62,384
DA:63,384
DA:64,384
DA:65,384
DA:66,384
DA:67,384
DA:68,384
DA:69,384
DA:70,384
DA:71,384
DA:72,384
DA:73,384
DA:74,384
DA:75,384
DA:76,384
DA:77,384
DA:78,384
DA:79,384
DA:80,384
DA:81,384
DA:82,384
DA:83,384
DA:84,384
DA:85,384
DA:86,384
DA:98,0
DA:99,0
DA:100,0
DA:101,0
DA:102,0
DA:103,0
DA:104,0
DA:105,0
DA:117,0
DA:118,0
DA:119,0
DA:120,0
DA:121,0
DA:122,0
DA:123,0
DA:124,0
DA:125,0
DA:126,0
DA:127,0
DA:128,0
DA:130,0
DA:131,0
DA:132,0
DA:133,0
DA:134,0
DA:135,0
DA:136,0
DA:137,0
DA:139,0
DA:140,0
DA:141,0
DA:142,0
DA:143,0
DA:144,0
DA:145,0
DA:146,0
DA:147,0
DA:148,0
DA:149,0
DA:150,0
DA:152,0
DA:153,0
DA:154,0
DA:155,0
DA:156,0
DA:157,0
DA:158,0
DA:159,0
DA:160,0
DA:161,0
DA:162,0
DA:163,0
DA:165,0
DA:166,0
DA:167,0
DA:168,0
DA:169,0
DA:170,0
DA:171,0
DA:172,0
DA:173,0
DA:174,0
DA:175,0
DA:176,0
DA:177,0
DA:178,0
DA:179,0
DA:180,0
DA:181,0
DA:182,0
DA:184,0
DA:185,0
DA:186,0
DA:187,0
DA:188,0
DA:189,0
DA:190,0
DA:191,0
DA:192,0
DA:193,0
DA:194,0
DA:195,0
DA:196,0
DA:197,0
DA:198,0
DA:204,0
DA:205,0
DA:206,0
DA:207,0
DA:208,0
DA:209,0
DA:210,0
DA:211,0
DA:212,0
DA:213,0
DA:214,0
DA:215,0
DA:216,0
DA:217,0
DA:218,0
DA:220,0
DA:221,0
DA:222,0
DA:223,0
DA:224,0
DA:225,0
DA:226,0
DA:227,0
DA:228,0
DA:229,0
DA:230,0
DA:231,0
DA:232,0
DA:233,0
DA:234,0
DA:235,0
DA:236,0
DA:237,0
DA:239,0
DA:240,0
DA:241,0
DA:242,0
DA:243,0
DA:244,0
DA:245,0
DA:246,0
DA:249,0
DA:250,0
DA:251,0
DA:252,0
DA:253,0
DA:254,0
DA:255,0
DA:256,0
DA:258,0
DA:259,0
DA:260,0
DA:261,0
DA:262,0
DA:263,0
DA:264,0
DA:265,0
DA:267,0
DA:268,0
DA:269,0
DA:270,0
DA:271,0
DA:272,0
DA:273,0
DA:274,0
DA:276,0
DA:277,0
DA:278,0
DA:279,0
DA:280,0
DA:281,0
DA:282,0
DA:283,0
DA:285,0
DA:286,0
DA:287,0
DA:288,0
DA:289,0
DA:290,0
DA:291,0
DA:292,0
DA:293,0
DA:294,0
DA:295,0
DA:296,0
DA:297,0
DA:298,0
DA:299,0
DA:301,0
DA:302,0
DA:303,0
DA:304,0
DA:305,0
DA:306,0
DA:307,0
DA:308,0
DA:310,0
DA:311,0
DA:312,0
DA:313,0
DA:314,0
DA:315,0
DA:316,0
DA:317,0
DA:319,0
DA:320,0
DA:321,0
DA:322,0
DA:323,0
DA:324,0
DA:325,0
DA:326,0
DA:328,0
DA:329,0
DA:330,0
DA:331,0
DA:332,0
DA:333,0
DA:334,0
DA:335,0
DA:337,480
DA:338,480
DA:339,480
DA:340,480
DA:341,480
DA:342,480
DA:343,480
DA:344,480
DA:346,480
DA:347,480
DA:348,480
DA:349,480
DA:350,480
DA:351,480
DA:352,480
DA:353,480
DA:355,0
DA:356,0
DA:357,0
DA:358,0
DA:359,0
DA:360,0
DA:361,0
DA:362,0
DA:364,0
DA:365,0
DA:366,0
DA:367,0
DA:368,0
DA:369,0
DA:370,0
DA:371,0
DA:373,0
DA:374,0
DA:375,0
DA:376,0
DA:377,0
DA:378,0
DA:379,0
DA:380,0
DA:381,0
DA:382,0
DA:383,0
DA:384,0
DA:386,0
DA:387,0
DA:388,0
DA:389,0
DA:390,0
DA:391,0
DA:392,0
DA:393,0
DA:395,0
DA:396,0
DA:397,0
DA:398,0
DA:399,0
DA:400,0
DA:401,0
DA:402,0
DA:403,0
DA:404,0
DA:405,0
DA:406,0
DA:408,0
DA:409,0
DA:410,0
DA:411,0
DA:412,0
DA:413,0
DA:414,0
DA:415,0
DA:416,0
DA:417,0
DA:418,0
DA:419,0
DA:421,0
DA:422,0
DA:423,0
DA:424,0
DA:425,0
DA:426,0
DA:427,0
DA:428,0
DA:429,0
DA:430,0
DA:431,0
DA:432,0
DA:434,0
DA:435,0
DA:436,0
DA:437,0
DA:438,0
DA:439,0
DA:440,0
DA:441,0
DA:442,0
DA:443,0
DA:444,0
DA:445,0
DA:447,0
DA:448,0
DA:449,0
DA:450,0
DA:451,0
DA:452,0
DA:453,0
DA:454,0
DA:455,0
DA:456,0
DA:457,0
DA:458,0
DA:460,0
DA:461,0
DA:462,0
DA:463,0
DA:464,0
DA:465,0
DA:466,0
DA:467,0
DA:469,0
DA:470,0
DA:471,0
DA:472,0
DA:473,0
DA:474,0
DA:475,0
DA:476,0
DA:478,0
DA:479,0
DA:480,0
DA:481,0
DA:482,0
DA:483,0
DA:484,0
DA:485,0
DA:487,0
DA:488,0
DA:489,0
DA:490,0
DA:491,0
DA:492,0
DA:493,0
DA:494,0
DA:495,0
DA:496,0
DA:497,0
DA:498,0
DA:500,0
DA:501,0
DA:502,0
DA:503,0
DA:504,0
DA:505,0
DA:506,0
DA:507,0
DA:508,0
DA:509,0
DA:510,0
DA:511,0
DA:513,0
DA:514,0
DA:515,0
DA:516,0
DA:517,0
DA:518,0
DA:519,0
DA:520,0
DA:521,0
DA:522,0
DA:523,0
DA:524,0
DA:526,0
DA:527,0
DA:528,0
DA:529,0
DA:530,0
DA:531,0
DA:532,0
DA:533,0
DA:534,0
DA:535,0
DA:536,0
DA:537,0
DA:539,0
DA:540,0
DA:541,0
DA:542,0
DA:543,0
DA:544,0
DA:545,0
DA:546,0
DA:547,0
DA:548,0
DA:549,0
DA:550,0
DA:552,0
DA:553,0
DA:554,0
DA:555,0
DA:556,0
DA:557,0
DA:558,0
DA:559,0
DA:560,0
DA:561,0
DA:562,0
DA:563,0
DA:565,0
DA:566,0
DA:567,0
DA:568,0
DA:569,0
DA:570,0
DA:571,0
DA:572,0
DA:574,336
DA:575,336
DA:576,336
DA:577,336
DA:578,336
DA:579,336
DA:580,336
DA:581,336
DA:583,0
DA:584,0
DA:585,0
DA:586,0
DA:587,0
DA:588,0
DA:589,0
DA:590,0
DA:592,336
DA:593,336
DA:594,336
DA:595,336
DA:596,336
DA:597,336
DA:598,336
DA:600,0
DA:601,0
DA:602,0
DA:603,0
DA:604,0
DA:605,0
DA:606,0
DA:607,0
DA:608,0
DA:609,0
DA:610,0
DA:611,0
DA:612,0
DA:613,0
DA:615,0
DA:616,0
DA:617,0
DA:618,0
DA:619,0
DA:620,0
DA:621,0
DA:622,0
DA:623,0
DA:624,0
DA:625,0
DA:626,0
DA:627,0
DA:628,0
DA:630,0
DA:631,0
DA:632,0
DA:633,0
DA:634,0
DA:635,0
DA:636,0
DA:637,0
DA:638,0
DA:639,0
DA:640,0
DA:642,0
DA:643,0
DA:644,0
DA:645,0
DA:646,0
DA:647,0
DA:648,0
DA:649,0
DA:650,0
DA:651,0
DA:652,0
DA:653,0
DA:654,0
DA:655,0
DA:657,336
DA:658,336
DA:659,336
DA:660,336
DA:661,336
DA:662,336
DA:663,336
DA:664,336
DA:665,336
DA:666,336
DA:667,336
DA:668,336
DA:669,336
DA:670,336
DA:672,0
DA:673,0
DA:674,0
DA:675,0
DA:676,0
DA:677,0
DA:678,0
DA:679,0
DA:680,0
DA:681,0
DA:682,0
DA:683,0
DA:684,0
DA:685,0
DA:687,0
DA:688,0
DA:689,0
DA:690,0
DA:691,0
DA:692,0
DA:693,0
DA:694,0
DA:695,0
DA:696,0
DA:697,0
DA:698,0
DA:700,0
DA:701,0
DA:702,0
DA:703,0
DA:704,0
DA:705,0
DA:706,0
DA:707,0
DA:709,0
DA:710,0
DA:711,0
DA:712,0
DA:713,0
DA:714,0
DA:715,0
DA:716,0
DA:717,0
DA:718,0
DA:719,0
DA:720,0
DA:721,0
DA:722,0
DA:723,0
DA:725,0
DA:726,0
DA:727,0
DA:728,0
DA:729,0
DA:730,0
DA:731,0
DA:732,0
DA:733,0
DA:734,0
DA:735,0
DA:736,0
DA:737,0
DA:738,0
DA:739,0
DA:741,0
DA:742,0
DA:743,0
DA:744,0
DA:745,0
DA:746,0
DA:747,0
DA:748,0
DA:749,0
DA:750,0
DA:751,0
DA:752,0
DA:753,0
DA:754,0
DA:755,0
DA:758,0
DA:759,0
DA:777,0
DA:778,0
DA:794,0
DA:795,0
DA:815,0
DA:816,0
DA:836,0
DA:837,0
BRF:0
BRH:0
LF:644
LH:82
end_of_record
SF:/Users/mihaieremia/GitHub/rs-lending/lending_pool/src/proxies/xegld_proxy.rs
FN:23,_RNvXININtNtCshiqmisuHlyH_12lending_pool7proxies11xegld_proxy0ppppENtB5_18LiquidStakingProxyINtNtNtNtCslPMlHj3qn2H_13multiversx_sc5types11interaction8tx_proxy12TxProxyTraitppppE13proxy_methodsB9_
FN:57,_RINvMs_NtNtCshiqmisuHlyH_12lending_pool7proxies11xegld_proxyINtB5_25LiquidStakingProxyMethodsppupE4initpppppppEB9_
FN:98,_RNvMs0_NtNtCshiqmisuHlyH_12lending_pool7proxies11xegld_proxyINtB5_25LiquidStakingProxyMethodsppppE7upgradeB9_
FN:123,_RNvMs1_NtNtCshiqmisuHlyH_12lending_pool7proxies11xegld_proxyINtB5_25LiquidStakingProxyMethodsppppE8delegateB9_
FN:134,_RNvMs1_NtNtCshiqmisuHlyH_12lending_pool7proxies11xegld_proxyINtB5_25LiquidStakingProxyMethodsppppE11un_delegateB9_
FN:145,_RNvMs1_NtNtCshiqmisuHlyH_12lending_pool7proxies11xegld_proxyINtB5_25LiquidStakingProxyMethodsppppE8withdrawB9_
FN:153,_RINvMs1_NtNtCshiqmisuHlyH_12lending_pool7proxies11xegld_proxyINtB6_25LiquidStakingProxyMethodsppppE25get_ls_value_for_positionpEBa_
FN:166,_RINvMs1_NtNtCshiqmisuHlyH_12lending_pool7proxies11xegld_proxyINtB6_25LiquidStakingProxyMethodsppppE23get_egld_position_valuepEBa_
FN:179,_RNvMs1_NtNtCshiqmisuHlyH_12lending_pool7proxies11xegld_proxyINtB5_25LiquidStakingProxyMethodsppppE17get_exchange_rateB9_
FN:188,_RINvMs1_NtNtCshiqmisuHlyH_12lending_pool7proxies11xegld_proxyINtB6_25LiquidStakingProxyMethodsppppE37get_delegation_contract_staked_amountpEBa_
FN:201,_RINvMs1_NtNtCshiqmisuHlyH_12lending_pool7proxies11xegld_proxyINtB6_25LiquidStakingProxyMethodsppppE39get_delegation_contract_unstaked_amountpEBa_
FN:214,_RINvMs1_NtNtCshiqmisuHlyH_12lending_pool7proxies11xegld_proxyINtB6_25LiquidStakingProxyMethodsppppE17register_ls_tokenpppEBa_
FN:232,_RINvMs1_NtNtCshiqmisuHlyH_12lending_pool7proxies11xegld_proxyINtB6_25LiquidStakingProxyMethodsppppE22register_unstake_tokenpppEBa_
FN:250,_RNvMs1_NtNtCshiqmisuHlyH_12lending_pool7proxies11xegld_proxyINtB5_25LiquidStakingProxyMethodsppppE16set_state_activeB9_
FN:259,_RNvMs1_NtNtCshiqmisuHlyH_12lending_pool7proxies11xegld_proxyINtB5_25LiquidStakingProxyMethodsppppE18set_state_inactiveB9_
FN:268,_RINvMs1_NtNtCshiqmisuHlyH_12lending_pool7proxies11xegld_proxyINtB6_25LiquidStakingProxyMethodsppppE24set_accumulator_contractpEBa_
FN:281,_RINvMs1_NtNtCshiqmisuHlyH_12lending_pool7proxies11xegld_proxyINtB6_25LiquidStakingProxyMethodsppppE8set_feespEBa_
FN:294,_RINvMs1_NtNtCshiqmisuHlyH_12lending_pool7proxies11xegld_proxyINtB6_25LiquidStakingProxyMethodsppppE18set_minimum_roundspEBa_
FN:307,_RINvMs1_NtNtCshiqmisuHlyH_12lending_pool7proxies11xegld_proxyINtB6_25LiquidStakingProxyMethodsppppE17set_max_addressespEBa_
FN:320,_RINvMs1_NtNtCshiqmisuHlyH_12lending_pool7proxies11xegld_proxyINtB6_25LiquidStakingProxyMethodsppppE26set_max_selected_providerspEBa_
FN:333,_RINvMs1_NtNtCshiqmisuHlyH_12lending_pool7proxies11xegld_proxyINtB6_25LiquidStakingProxyMethodsppppE17set_unbond_periodpEBa_
FN:346,_RINvMs1_NtNtCshiqmisuHlyH_12lending_pool7proxies11xegld_proxyINtB6_25LiquidStakingProxyMethodsppppE12set_managerspEBa_
FN:359,_RINvMs1_NtNtCshiqmisuHlyH_12lending_pool7proxies11xegld_proxyINtB6_25LiquidStakingProxyMethodsppppE14remove_managerpEBa_
FN:372,_RINvMs1_NtNtCshiqmisuHlyH_12lending_pool7proxies11xegld_proxyINtB6_25LiquidStakingProxyMethodsppppE18set_scoring_configpEBa_
FN:391,_RINvMs1_NtNtCshiqmisuHlyH_12lending_pool7proxies11xegld_proxyINtB6_25LiquidStakingProxyMethodsppppE16delegate_pendingpEBa_
FN:411,_RINvMs1_NtNtCshiqmisuHlyH_12lending_pool7proxies11xegld_proxyINtB6_25LiquidStakingProxyMethodsppppE19un_delegate_pendingpEBa_
FN:430,_RINvMs1_NtNtCshiqmisuHlyH_12lending_pool7proxies11xegld_proxyINtB6_25LiquidStakingProxyMethodsppppE16withdraw_pendingpEBa_
FN:447,_RNvMs1_NtNtCshiqmisuHlyH_12lending_pool7proxies11xegld_proxyINtB5_25LiquidStakingProxyMethodsppppE13claim_rewardsB9_
FN:456,_RNvMs1_NtNtCshiqmisuHlyH_12lending_pool7proxies11xegld_proxyINtB5_25LiquidStakingProxyMethodsppppE10claim_feesB9_
FN:465,_RNvMs1_NtNtCshiqmisuHlyH_12lending_pool7proxies11xegld_proxyINtB5_25LiquidStakingProxyMethodsppppE25delegation_addresses_listB9_
FN:474,_RNvMs1_NtNtCshiqmisuHlyH_12lending_pool7proxies11xegld_proxyINtB5_25LiquidStakingProxyMethodsppppE28un_delegation_addresses_listB9_
FN:483,_RINvMs1_NtNtCshiqmisuHlyH_12lending_pool7proxies11xegld_proxyINtB6_25LiquidStakingProxyMethodsppppE24delegation_contract_datapEBa_
FN:496,_RNvMs1_NtNtCshiqmisuHlyH_12lending_pool7proxies11xegld_proxyINtB5_25LiquidStakingProxyMethodsppppE8managersB9_
FN:505,_RNvMs1_NtNtCshiqmisuHlyH_12lending_pool7proxies11xegld_proxyINtB5_25LiquidStakingProxyMethodsppppE14scoring_configB9_
FN:514,_RNvMs1_NtNtCshiqmisuHlyH_12lending_pool7proxies11xegld_proxyINtB5_25LiquidStakingProxyMethodsppppE4feesB9_
FN:523,_RNvMs1_NtNtCshiqmisuHlyH_12lending_pool7proxies11xegld_proxyINtB5_25LiquidStakingProxyMethodsppppE20accumulator_contractB9_
FN:532,_RNvMs1_NtNtCshiqmisuHlyH_12lending_pool7proxies11xegld_proxyINtB5_25LiquidStakingProxyMethodsppppE16rounds_per_epochB9_
FN:541,_RNvMs1_NtNtCshiqmisuHlyH_12lending_pool7proxies11xegld_proxyINtB5_25LiquidStakingProxyMethodsppppE14minimum_roundsB9_
FN:550,_RNvMs1_NtNtCshiqmisuHlyH_12lending_pool7proxies11xegld_proxyINtB5_25LiquidStakingProxyMethodsppppE5stateB9_
FN:559,_RNvMs1_NtNtCshiqmisuHlyH_12lending_pool7proxies11xegld_proxyINtB5_25LiquidStakingProxyMethodsppppE8ls_tokenB9_
FN:568,_RNvMs1_NtNtCshiqmisuHlyH_12lending_pool7proxies11xegld_proxyINtB5_25LiquidStakingProxyMethodsppppE15ls_token_supplyB9_
FN:577,_RNvMs1_NtNtCshiqmisuHlyH_12lending_pool7proxies11xegld_proxyINtB5_25LiquidStakingProxyMethodsppppE20virtual_egld_reserveB9_
FN:586,_RNvMs1_NtNtCshiqmisuHlyH_12lending_pool7proxies11xegld_proxyINtB5_25LiquidStakingProxyMethodsppppE12fees_reserveB9_
FN:595,_RNvMs1_NtNtCshiqmisuHlyH_12lending_pool7proxies11xegld_proxyINtB5_25LiquidStakingProxyMethodsppppE20total_withdrawn_egldB9_
FN:604,_RNvMs1_NtNtCshiqmisuHlyH_12lending_pool7proxies11xegld_proxyINtB5_25LiquidStakingProxyMethodsppppE13unstake_tokenB9_
FN:613,_RNvMs1_NtNtCshiqmisuHlyH_12lending_pool7proxies11xegld_proxyINtB5_25LiquidStakingProxyMethodsppppE12pending_egldB9_
FN:622,_RNvMs1_NtNtCshiqmisuHlyH_12lending_pool7proxies11xegld_proxyINtB5_25LiquidStakingProxyMethodsppppE24pending_egld_for_unstakeB9_
FN:631,_RNvMs1_NtNtCshiqmisuHlyH_12lending_pool7proxies11xegld_proxyINtB5_25LiquidStakingProxyMethodsppppE23pending_egld_for_unbondB9_
FN:640,_RINvMs1_NtNtCshiqmisuHlyH_12lending_pool7proxies11xegld_proxyINtB6_25LiquidStakingProxyMethodsppppE19unstake_token_noncepEBa_
FN:653,_RNvMs1_NtNtCshiqmisuHlyH_12lending_pool7proxies11xegld_proxyINtB5_25LiquidStakingProxyMethodsppppE24max_delegation_addressesB9_
FN:662,_RNvMs1_NtNtCshiqmisuHlyH_12lending_pool7proxies11xegld_proxyINtB5_25LiquidStakingProxyMethodsppppE22max_selected_providersB9_
FN:671,_RNvMs1_NtNtCshiqmisuHlyH_12lending_pool7proxies11xegld_proxyINtB5_25LiquidStakingProxyMethodsppppE13unbond_periodB9_
FN:680,_RINvMs1_NtNtCshiqmisuHlyH_12lending_pool7proxies11xegld_proxyINtB6_25LiquidStakingProxyMethodsppppE7migrateppEBa_
FN:696,_RNvMs1_NtNtCshiqmisuHlyH_12lending_pool7proxies11xegld_proxyINtB5_25LiquidStakingProxyMethodsppppE15migrate_pendingB9_
FN:704,_RNvMs1_NtNtCshiqmisuHlyH_12lending_pool7proxies11xegld_proxyINtB5_25LiquidStakingProxyMethodsppppE11add_rewardsB9_
FN:712,_RINvMs1_NtNtCshiqmisuHlyH_12lending_pool7proxies11xegld_proxyINtB6_25LiquidStakingProxyMethodsppppE24add_migration_sc_addresspEBa_
FN:725,_RNvMs1_NtNtCshiqmisuHlyH_12lending_pool7proxies11xegld_proxyINtB5_25LiquidStakingProxyMethodsppppE20migration_sc_addressB9_
FN:734,_RINvMs1_NtNtCshiqmisuHlyH_12lending_pool7proxies11xegld_proxyINtB6_25LiquidStakingProxyMethodsppppE29whitelist_delegation_contractppppppEBa_
FN:761,_RINvMs1_NtNtCshiqmisuHlyH_12lending_pool7proxies11xegld_proxyINtB6_25LiquidStakingProxyMethodsppppE32change_delegation_contract_adminppEBa_
FN:777,_RINvMs1_NtNtCshiqmisuHlyH_12lending_pool7proxies11xegld_proxyINtB6_25LiquidStakingProxyMethodsppppE33change_delegation_contract_paramsppppppEBa_
FN:807,_RINvXs5_NtNtCshiqmisuHlyH_12lending_pool7proxies11xegld_proxyNtB6_13ScoringConfigNtNtNtCs5SUGlJDgeoS_19multiversx_sc_codec6single6top_en9TopEncode24top_encode_or_handle_errppEBa_
FN:807,_RINvXs6_NtNtCshiqmisuHlyH_12lending_pool7proxies11xegld_proxyNtB6_13ScoringConfigNtNtNtCs5SUGlJDgeoS_19multiversx_sc_codec6single6top_de9TopDecode24top_decode_or_handle_errppEBa_
FN:807,_RINvXs7_NtNtCshiqmisuHlyH_12lending_pool7proxies11xegld_proxyNtB6_13ScoringConfigNtNtNtCs5SUGlJDgeoS_19multiversx_sc_codec6single9nested_en12NestedEncode24dep_encode_or_handle_errppEBa_
FN:807,_RINvXs8_NtNtCshiqmisuHlyH_12lending_pool7proxies11xegld_proxyNtB6_13ScoringConfigNtNtNtCs5SUGlJDgeoS_19multiversx_sc_codec6single9nested_de12NestedDecode24dep_decode_or_handle_errppEBa_
FN:806,_RNvXs4_NtNtCshiqmisuHlyH_12lending_pool7proxies11xegld_proxyNtB5_13ScoringConfigNtNtNtCslPMlHj3qn2H_13multiversx_sc3abi8type_abi7TypeAbi9type_name
FN:806,_RINvXs4_NtNtCshiqmisuHlyH_12lending_pool7proxies11xegld_proxyNtB6_13ScoringConfigNtNtNtCslPMlHj3qn2H_13multiversx_sc3abi8type_abi7TypeAbi25provide_type_descriptionspEBa_
FN:822,_RINvXININtNtCshiqmisuHlyH_12lending_pool7proxies11xegld_proxysh_0pEINtB6_20ChangeLiquidityEventpENtNtNtCs5SUGlJDgeoS_19multiversx_sc_codec6single6top_en9TopEncode24top_encode_or_handle_errppEBa_
FN:821,_RNvXININtNtCshiqmisuHlyH_12lending_pool7proxies11xegld_proxysg_0pEINtB5_20ChangeLiquidityEventpENtNtNtCslPMlHj3qn2H_13multiversx_sc3abi8type_abi7TypeAbi9type_nameB9_
FN:821,_RINvXININtNtCshiqmisuHlyH_12lending_pool7proxies11xegld_proxysg_0pEINtB6_20ChangeLiquidityEventpENtNtNtCslPMlHj3qn2H_13multiversx_sc3abi8type_abi7TypeAbi25provide_type_descriptionspEBa_
FN:842,_RINvXININtNtCshiqmisuHlyH_12lending_pool7proxies11xegld_proxysl_0pEINtB6_22DelegationContractDatapENtNtNtCs5SUGlJDgeoS_19multiversx_sc_codec6single6top_en9TopEncode24top_encode_or_handle_errppEBa_
FN:842,_RINvXININtNtCshiqmisuHlyH_12lending_pool7proxies11xegld_proxysm_0pEINtB6_22DelegationContractDatapENtNtNtCs5SUGlJDgeoS_19multiversx_sc_codec6single6top_de9TopDecode24top_decode_or_handle_errppEBa_
FN:842,_RINvXININtNtCshiqmisuHlyH_12lending_pool7proxies11xegld_proxysn_0pEINtB6_22DelegationContractDatapENtNtNtCs5SUGlJDgeoS_19multiversx_sc_codec6single9nested_en12NestedEncode24dep_encode_or_handle_errppEBa_
FN:842,_RINvXININtNtCshiqmisuHlyH_12lending_pool7proxies11xegld_proxyso_0pEINtB6_22DelegationContractDatapENtNtNtCs5SUGlJDgeoS_19multiversx_sc_codec6single9nested_de12NestedDecode24dep_decode_or_handle_errppEBa_
FN:841,_RNvXININtNtCshiqmisuHlyH_12lending_pool7proxies11xegld_proxysk_0pEINtB5_22DelegationContractDatapENtNtNtCslPMlHj3qn2H_13multiversx_sc3abi8type_abi7TypeAbi9type_nameB9_
FN:841,_RINvXININtNtCshiqmisuHlyH_12lending_pool7proxies11xegld_proxysk_0pEINtB6_22DelegationContractDatapENtNtNtCslPMlHj3qn2H_13multiversx_sc3abi8type_abi7TypeAbi25provide_type_descriptionspEBa_
FN:860,_RINvXsx_NtNtCshiqmisuHlyH_12lending_pool7proxies11xegld_proxyNtB6_5StateNtNtNtCs5SUGlJDgeoS_19multiversx_sc_codec6single6top_en9TopEncode24top_encode_or_handle_errppEBa_
FN:860,_RINvXsy_NtNtCshiqmisuHlyH_12lending_pool7proxies11xegld_proxyNtB6_5StateNtNtNtCs5SUGlJDgeoS_19multiversx_sc_codec6single6top_de9TopDecode24top_decode_or_handle_errppEBa_
FN:859,_RNvXsw_NtNtCshiqmisuHlyH_12lending_pool7proxies11xegld_proxyNtB5_5StateNtNtNtCslPMlHj3qn2H_13multiversx_sc3abi8type_abi7TypeAbi9type_name
FN:859,_RINvXsw_NtNtCshiqmisuHlyH_12lending_pool7proxies11xegld_proxyNtB6_5StateNtNtNtCslPMlHj3qn2H_13multiversx_sc3abi8type_abi7TypeAbi25provide_type_descriptionspEBa_
FN:179,_RNvMs1_NtNtCs48qTgYy1n57_12lending_pool7proxies11xegld_proxyINtB5_25LiquidStakingProxyMethodsINtNtNtNtNtCslPMlHj3qn2H_13multiversx_sc5types11interaction7tx_exec9tx_env_sc7TxScEnvINtNtNtNtCs1rODQd5oASQ_22multiversx_sc_scenario3api7impl_vh12vm_hooks_api10VMHooksApiNtNtB2V_9debug_api15DebugApiBackendEEuRINtNtNtNtB1C_7managed7wrapped15managed_address14ManagedAddressB2Q_EuE17get_exchange_rateCs8iyf5MSkCde_5tests
FN:23,_RNvXNtNtCs48qTgYy1n57_12lending_pool7proxies11xegld_proxyNtB2_18LiquidStakingProxyINtNtNtNtCslPMlHj3qn2H_13multiversx_sc5types11interaction8tx_proxy12TxProxyTraitINtNtNtB1n_7tx_exec9tx_env_sc7TxScEnvINtNtNtNtCs1rODQd5oASQ_22multiversx_sc_scenario3api7impl_vh12vm_hooks_api10VMHooksApiNtNtB3g_9debug_api15DebugApiBackendEEuRINtNtNtNtB1p_7managed7wrapped15managed_address14ManagedAddressB3b_EuE13proxy_methodsCs8iyf5MSkCde_5tests
FNDA:0,_RNvXININtNtCshiqmisuHlyH_12lending_pool7proxies11xegld_proxy0ppppENtB5_18LiquidStakingProxyINtNtNtNtCslPMlHj3qn2H_13multiversx_sc5types11interaction8tx_proxy12TxProxyTraitppppE13proxy_methodsB9_
FNDA:0,_RINvMs_NtNtCshiqmisuHlyH_12lending_pool7proxies11xegld_proxyINtB5_25LiquidStakingProxyMethodsppupE4initpppppppEB9_
FNDA:0,_RNvMs0_NtNtCshiqmisuHlyH_12lending_pool7proxies11xegld_proxyINtB5_25LiquidStakingProxyMethodsppppE7upgradeB9_
FNDA:0,_RNvMs1_NtNtCshiqmisuHlyH_12lending_pool7proxies11xegld_proxyINtB5_25LiquidStakingProxyMethodsppppE8delegateB9_
FNDA:0,_RNvMs1_NtNtCshiqmisuHlyH_12lending_pool7proxies11xegld_proxyINtB5_25LiquidStakingProxyMethodsppppE11un_delegateB9_
FNDA:0,_RNvMs1_NtNtCshiqmisuHlyH_12lending_pool7proxies11xegld_proxyINtB5_25LiquidStakingProxyMethodsppppE8withdrawB9_
FNDA:0,_RINvMs1_NtNtCshiqmisuHlyH_12lending_pool7proxies11xegld_proxyINtB6_25LiquidStakingProxyMethodsppppE25get_ls_value_for_positionpEBa_
FNDA:0,_RINvMs1_NtNtCshiqmisuHlyH_12lending_pool7proxies11xegld_proxyINtB6_25LiquidStakingProxyMethodsppppE23get_egld_position_valuepEBa_
FNDA:0,_RNvMs1_NtNtCshiqmisuHlyH_12lending_pool7proxies11xegld_proxyINtB5_25LiquidStakingProxyMethodsppppE17get_exchange_rateB9_
FNDA:0,_RINvMs1_NtNtCshiqmisuHlyH_12lending_pool7proxies11xegld_proxyINtB6_25LiquidStakingProxyMethodsppppE37get_delegation_contract_staked_amountpEBa_
FNDA:0,_RINvMs1_NtNtCshiqmisuHlyH_12lending_pool7proxies11xegld_proxyINtB6_25LiquidStakingProxyMethodsppppE39get_delegation_contract_unstaked_amountpEBa_
FNDA:0,_RINvMs1_NtNtCshiqmisuHlyH_12lending_pool7proxies11xegld_proxyINtB6_25LiquidStakingProxyMethodsppppE17register_ls_tokenpppEBa_
FNDA:0,_RINvMs1_NtNtCshiqmisuHlyH_12lending_pool7proxies11xegld_proxyINtB6_25LiquidStakingProxyMethodsppppE22register_unstake_tokenpppEBa_
FNDA:0,_RNvMs1_NtNtCshiqmisuHlyH_12lending_pool7proxies11xegld_proxyINtB5_25LiquidStakingProxyMethodsppppE16set_state_activeB9_
FNDA:0,_RNvMs1_NtNtCshiqmisuHlyH_12lending_pool7proxies11xegld_proxyINtB5_25LiquidStakingProxyMethodsppppE18set_state_inactiveB9_
FNDA:0,_RINvMs1_NtNtCshiqmisuHlyH_12lending_pool7proxies11xegld_proxyINtB6_25LiquidStakingProxyMethodsppppE24set_accumulator_contractpEBa_
FNDA:0,_RINvMs1_NtNtCshiqmisuHlyH_12lending_pool7proxies11xegld_proxyINtB6_25LiquidStakingProxyMethodsppppE8set_feespEBa_
FNDA:0,_RINvMs1_NtNtCshiqmisuHlyH_12lending_pool7proxies11xegld_proxyINtB6_25LiquidStakingProxyMethodsppppE18set_minimum_roundspEBa_
FNDA:0,_RINvMs1_NtNtCshiqmisuHlyH_12lending_pool7proxies11xegld_proxyINtB6_25LiquidStakingProxyMethodsppppE17set_max_addressespEBa_
FNDA:0,_RINvMs1_NtNtCshiqmisuHlyH_12lending_pool7proxies11xegld_proxyINtB6_25LiquidStakingProxyMethodsppppE26set_max_selected_providerspEBa_
FNDA:0,_RINvMs1_NtNtCshiqmisuHlyH_12lending_pool7proxies11xegld_proxyINtB6_25LiquidStakingProxyMethodsppppE17set_unbond_periodpEBa_
FNDA:0,_RINvMs1_NtNtCshiqmisuHlyH_12lending_pool7proxies11xegld_proxyINtB6_25LiquidStakingProxyMethodsppppE12set_managerspEBa_
FNDA:0,_RINvMs1_NtNtCshiqmisuHlyH_12lending_pool7proxies11xegld_proxyINtB6_25LiquidStakingProxyMethodsppppE14remove_managerpEBa_
FNDA:0,_RINvMs1_NtNtCshiqmisuHlyH_12lending_pool7proxies11xegld_proxyINtB6_25LiquidStakingProxyMethodsppppE18set_scoring_configpEBa_
FNDA:0,_RINvMs1_NtNtCshiqmisuHlyH_12lending_pool7proxies11xegld_proxyINtB6_25LiquidStakingProxyMethodsppppE16delegate_pendingpEBa_
FNDA:0,_RINvMs1_NtNtCshiqmisuHlyH_12lending_pool7proxies11xegld_proxyINtB6_25LiquidStakingProxyMethodsppppE19un_delegate_pendingpEBa_
FNDA:0,_RINvMs1_NtNtCshiqmisuHlyH_12lending_pool7proxies11xegld_proxyINtB6_25LiquidStakingProxyMethodsppppE16withdraw_pendingpEBa_
FNDA:0,_RNvMs1_NtNtCshiqmisuHlyH_12lending_pool7proxies11xegld_proxyINtB5_25LiquidStakingProxyMethodsppppE13claim_rewardsB9_
FNDA:0,_RNvMs1_NtNtCshiqmisuHlyH_12lending_pool7proxies11xegld_proxyINtB5_25LiquidStakingProxyMethodsppppE10claim_feesB9_
FNDA:0,_RNvMs1_NtNtCshiqmisuHlyH_12lending_pool7proxies11xegld_proxyINtB5_25LiquidStakingProxyMethodsppppE25delegation_addresses_listB9_
FNDA:0,_RNvMs1_NtNtCshiqmisuHlyH_12lending_pool7proxies11xegld_proxyINtB5_25LiquidStakingProxyMethodsppppE28un_delegation_addresses_listB9_
FNDA:0,_RINvMs1_NtNtCshiqmisuHlyH_12lending_pool7proxies11xegld_proxyINtB6_25LiquidStakingProxyMethodsppppE24delegation_contract_datapEBa_
FNDA:0,_RNvMs1_NtNtCshiqmisuHlyH_12lending_pool7proxies11xegld_proxyINtB5_25LiquidStakingProxyMethodsppppE8managersB9_
FNDA:0,_RNvMs1_NtNtCshiqmisuHlyH_12lending_pool7proxies11xegld_proxyINtB5_25LiquidStakingProxyMethodsppppE14scoring_configB9_
FNDA:0,_RNvMs1_NtNtCshiqmisuHlyH_12lending_pool7proxies11xegld_proxyINtB5_25LiquidStakingProxyMethodsppppE4feesB9_
FNDA:0,_RNvMs1_NtNtCshiqmisuHlyH_12lending_pool7proxies11xegld_proxyINtB5_25LiquidStakingProxyMethodsppppE20accumulator_contractB9_
FNDA:0,_RNvMs1_NtNtCshiqmisuHlyH_12lending_pool7proxies11xegld_proxyINtB5_25LiquidStakingProxyMethodsppppE16rounds_per_epochB9_
FNDA:0,_RNvMs1_NtNtCshiqmisuHlyH_12lending_pool7proxies11xegld_proxyINtB5_25LiquidStakingProxyMethodsppppE14minimum_roundsB9_
FNDA:0,_RNvMs1_NtNtCshiqmisuHlyH_12lending_pool7proxies11xegld_proxyINtB5_25LiquidStakingProxyMethodsppppE5stateB9_
FNDA:0,_RNvMs1_NtNtCshiqmisuHlyH_12lending_pool7proxies11xegld_proxyINtB5_25LiquidStakingProxyMethodsppppE8ls_tokenB9_
FNDA:0,_RNvMs1_NtNtCshiqmisuHlyH_12lending_pool7proxies11xegld_proxyINtB5_25LiquidStakingProxyMethodsppppE15ls_token_supplyB9_
FNDA:0,_RNvMs1_NtNtCshiqmisuHlyH_12lending_pool7proxies11xegld_proxyINtB5_25LiquidStakingProxyMethodsppppE20virtual_egld_reserveB9_
FNDA:0,_RNvMs1_NtNtCshiqmisuHlyH_12lending_pool7proxies11xegld_proxyINtB5_25LiquidStakingProxyMethodsppppE12fees_reserveB9_
FNDA:0,_RNvMs1_NtNtCshiqmisuHlyH_12lending_pool7proxies11xegld_proxyINtB5_25LiquidStakingProxyMethodsppppE20total_withdrawn_egldB9_
FNDA:0,_RNvMs1_NtNtCshiqmisuHlyH_12lending_pool7proxies11xegld_proxyINtB5_25LiquidStakingProxyMethodsppppE13unstake_tokenB9_
FNDA:0,_RNvMs1_NtNtCshiqmisuHlyH_12lending_pool7proxies11xegld_proxyINtB5_25LiquidStakingProxyMethodsppppE12pending_egldB9_
FNDA:0,_RNvMs1_NtNtCshiqmisuHlyH_12lending_pool7proxies11xegld_proxyINtB5_25LiquidStakingProxyMethodsppppE24pending_egld_for_unstakeB9_
FNDA:0,_RNvMs1_NtNtCshiqmisuHlyH_12lending_pool7proxies11xegld_proxyINtB5_25LiquidStakingProxyMethodsppppE23pending_egld_for_unbondB9_
FNDA:0,_RINvMs1_NtNtCshiqmisuHlyH_12lending_pool7proxies11xegld_proxyINtB6_25LiquidStakingProxyMethodsppppE19unstake_token_noncepEBa_
FNDA:0,_RNvMs1_NtNtCshiqmisuHlyH_12lending_pool7proxies11xegld_proxyINtB5_25LiquidStakingProxyMethodsppppE24max_delegation_addressesB9_
FNDA:0,_RNvMs1_NtNtCshiqmisuHlyH_12lending_pool7proxies11xegld_proxyINtB5_25LiquidStakingProxyMethodsppppE22max_selected_providersB9_
FNDA:0,_RNvMs1_NtNtCshiqmisuHlyH_12lending_pool7proxies11xegld_proxyINtB5_25LiquidStakingProxyMethodsppppE13unbond_periodB9_
FNDA:0,_RINvMs1_NtNtCshiqmisuHlyH_12lending_pool7proxies11xegld_proxyINtB6_25LiquidStakingProxyMethodsppppE7migrateppEBa_
FNDA:0,_RNvMs1_NtNtCshiqmisuHlyH_12lending_pool7proxies11xegld_proxyINtB5_25LiquidStakingProxyMethodsppppE15migrate_pendingB9_
FNDA:0,_RNvMs1_NtNtCshiqmisuHlyH_12lending_pool7proxies11xegld_proxyINtB5_25LiquidStakingProxyMethodsppppE11add_rewardsB9_
FNDA:0,_RINvMs1_NtNtCshiqmisuHlyH_12lending_pool7proxies11xegld_proxyINtB6_25LiquidStakingProxyMethodsppppE24add_migration_sc_addresspEBa_
FNDA:0,_RNvMs1_NtNtCshiqmisuHlyH_12lending_pool7proxies11xegld_proxyINtB5_25LiquidStakingProxyMethodsppppE20migration_sc_addressB9_
FNDA:0,_RINvMs1_NtNtCshiqmisuHlyH_12lending_pool7proxies11xegld_proxyINtB6_25LiquidStakingProxyMethodsppppE29whitelist_delegation_contractppppppEBa_
FNDA:0,_RINvMs1_NtNtCshiqmisuHlyH_12lending_pool7proxies11xegld_proxyINtB6_25LiquidStakingProxyMethodsppppE32change_delegation_contract_adminppEBa_
FNDA:0,_RINvMs1_NtNtCshiqmisuHlyH_12lending_pool7proxies11xegld_proxyINtB6_25LiquidStakingProxyMethodsppppE33change_delegation_contract_paramsppppppEBa_
FNDA:0,_RINvXs5_NtNtCshiqmisuHlyH_12lending_pool7proxies11xegld_proxyNtB6_13ScoringConfigNtNtNtCs5SUGlJDgeoS_19multiversx_sc_codec6single6top_en9TopEncode24top_encode_or_handle_errppEBa_
FNDA:0,_RINvXs6_NtNtCshiqmisuHlyH_12lending_pool7proxies11xegld_proxyNtB6_13ScoringConfigNtNtNtCs5SUGlJDgeoS_19multiversx_sc_codec6single6top_de9TopDecode24top_decode_or_handle_errppEBa_
FNDA:0,_RINvXs7_NtNtCshiqmisuHlyH_12lending_pool7proxies11xegld_proxyNtB6_13ScoringConfigNtNtNtCs5SUGlJDgeoS_19multiversx_sc_codec6single9nested_en12NestedEncode24dep_encode_or_handle_errppEBa_
FNDA:0,_RINvXs8_NtNtCshiqmisuHlyH_12lending_pool7proxies11xegld_proxyNtB6_13ScoringConfigNtNtNtCs5SUGlJDgeoS_19multiversx_sc_codec6single9nested_de12NestedDecode24dep_decode_or_handle_errppEBa_
FNDA:0,_RNvXs4_NtNtCshiqmisuHlyH_12lending_pool7proxies11xegld_proxyNtB5_13ScoringConfigNtNtNtCslPMlHj3qn2H_13multiversx_sc3abi8type_abi7TypeAbi9type_name
FNDA:0,_RINvXs4_NtNtCshiqmisuHlyH_12lending_pool7proxies11xegld_proxyNtB6_13ScoringConfigNtNtNtCslPMlHj3qn2H_13multiversx_sc3abi8type_abi7TypeAbi25provide_type_descriptionspEBa_
FNDA:0,_RINvXININtNtCshiqmisuHlyH_12lending_pool7proxies11xegld_proxysh_0pEINtB6_20ChangeLiquidityEventpENtNtNtCs5SUGlJDgeoS_19multiversx_sc_codec6single6top_en9TopEncode24top_encode_or_handle_errppEBa_
FNDA:0,_RNvXININtNtCshiqmisuHlyH_12lending_pool7proxies11xegld_proxysg_0pEINtB5_20ChangeLiquidityEventpENtNtNtCslPMlHj3qn2H_13multiversx_sc3abi8type_abi7TypeAbi9type_nameB9_
FNDA:0,_RINvXININtNtCshiqmisuHlyH_12lending_pool7proxies11xegld_proxysg_0pEINtB6_20ChangeLiquidityEventpENtNtNtCslPMlHj3qn2H_13multiversx_sc3abi8type_abi7TypeAbi25provide_type_descriptionspEBa_
FNDA:0,_RINvXININtNtCshiqmisuHlyH_12lending_pool7proxies11xegld_proxysl_0pEINtB6_22DelegationContractDatapENtNtNtCs5SUGlJDgeoS_19multiversx_sc_codec6single6top_en9TopEncode24top_encode_or_handle_errppEBa_
FNDA:0,_RINvXININtNtCshiqmisuHlyH_12lending_pool7proxies11xegld_proxysm_0pEINtB6_22DelegationContractDatapENtNtNtCs5SUGlJDgeoS_19multiversx_sc_codec6single6top_de9TopDecode24top_decode_or_handle_errppEBa_
FNDA:0,_RINvXININtNtCshiqmisuHlyH_12lending_pool7proxies11xegld_proxysn_0pEINtB6_22DelegationContractDatapENtNtNtCs5SUGlJDgeoS_19multiversx_sc_codec6single9nested_en12NestedEncode24dep_encode_or_handle_errppEBa_
FNDA:0,_RINvXININtNtCshiqmisuHlyH_12lending_pool7proxies11xegld_proxyso_0pEINtB6_22DelegationContractDatapENtNtNtCs5SUGlJDgeoS_19multiversx_sc_codec6single9nested_de12NestedDecode24dep_decode_or_handle_errppEBa_
FNDA:0,_RNvXININtNtCshiqmisuHlyH_12lending_pool7proxies11xegld_proxysk_0pEINtB5_22DelegationContractDatapENtNtNtCslPMlHj3qn2H_13multiversx_sc3abi8type_abi7TypeAbi9type_nameB9_
FNDA:0,_RINvXININtNtCshiqmisuHlyH_12lending_pool7proxies11xegld_proxysk_0pEINtB6_22DelegationContractDatapENtNtNtCslPMlHj3qn2H_13multiversx_sc3abi8type_abi7TypeAbi25provide_type_descriptionspEBa_
FNDA:0,_RINvXsx_NtNtCshiqmisuHlyH_12lending_pool7proxies11xegld_proxyNtB6_5StateNtNtNtCs5SUGlJDgeoS_19multiversx_sc_codec6single6top_en9TopEncode24top_encode_or_handle_errppEBa_
FNDA:0,_RINvXsy_NtNtCshiqmisuHlyH_12lending_pool7proxies11xegld_proxyNtB6_5StateNtNtNtCs5SUGlJDgeoS_19multiversx_sc_codec6single6top_de9TopDecode24top_decode_or_handle_errppEBa_
FNDA:0,_RNvXsw_NtNtCshiqmisuHlyH_12lending_pool7proxies11xegld_proxyNtB5_5StateNtNtNtCslPMlHj3qn2H_13multiversx_sc3abi8type_abi7TypeAbi9type_name
FNDA:0,_RINvXsw_NtNtCshiqmisuHlyH_12lending_pool7proxies11xegld_proxyNtB6_5StateNtNtNtCslPMlHj3qn2H_13multiversx_sc3abi8type_abi7TypeAbi25provide_type_descriptionspEBa_
FNDA:3,_RNvMs1_NtNtCs48qTgYy1n57_12lending_pool7proxies11xegld_proxyINtB5_25LiquidStakingProxyMethodsINtNtNtNtNtCslPMlHj3qn2H_13multiversx_sc5types11interaction7tx_exec9tx_env_sc7TxScEnvINtNtNtNtCs1rODQd5oASQ_22multiversx_sc_scenario3api7impl_vh12vm_hooks_api10VMHooksApiNtNtB2V_9debug_api15DebugApiBackendEEuRINtNtNtNtB1C_7managed7wrapped15managed_address14ManagedAddressB2Q_EuE17get_exchange_rateCs8iyf5MSkCde_5tests
FNDA:3,_RNvXNtNtCs48qTgYy1n57_12lending_pool7proxies11xegld_proxyNtB2_18LiquidStakingProxyINtNtNtNtCslPMlHj3qn2H_13multiversx_sc5types11interaction8tx_proxy12TxProxyTraitINtNtNtB1n_7tx_exec9tx_env_sc7TxScEnvINtNtNtNtCs1rODQd5oASQ_22multiversx_sc_scenario3api7impl_vh12vm_hooks_api10VMHooksApiNtNtB3g_9debug_api15DebugApiBackendEEuRINtNtNtNtB1p_7managed7wrapped15managed_address14ManagedAddressB3b_EuE13proxy_methodsCs8iyf5MSkCde_5tests
FNF:75
FNH:2
DA:23,3
DA:24,3
DA:25,3
DA:57,0
DA:58,0
DA:59,0
DA:60,0
DA:61,0
DA:62,0
DA:63,0
DA:64,0
DA:65,0
DA:66,0
DA:67,0
DA:68,0
DA:69,0
DA:70,0
DA:71,0
DA:72,0
DA:73,0
DA:74,0
DA:75,0
DA:76,0
DA:77,0
DA:78,0
DA:79,0
DA:80,0
DA:81,0
DA:82,0
DA:83,0
DA:84,0
DA:85,0
DA:86,0
DA:98,0
DA:99,0
DA:100,0
DA:101,0
DA:102,0
DA:103,0
DA:104,0
DA:105,0
DA:123,0
DA:124,0
DA:125,0
DA:126,0
DA:127,0
DA:128,0
DA:129,0
DA:134,0
DA:135,0
DA:136,0
DA:137,0
DA:138,0
DA:139,0
DA:140,0
DA:145,0
DA:146,0
DA:147,0
DA:148,0
DA:149,0
DA:150,0
DA:151,0
DA:153,0
DA:154,0
DA:155,0
DA:156,0
DA:157,0
DA:158,0
DA:159,0
DA:160,0
DA:161,0
DA:162,0
DA:163,0
DA:164,0
DA:166,0
DA:167,0
DA:168,0
DA:169,0
DA:170,0
DA:171,0
DA:172,0
DA:173,0
DA:174,0
DA:175,0
DA:176,0
DA:177,0
DA:179,3
DA:180,3
DA:181,3
DA:182,3
DA:183,3
DA:184,3
DA:185,3
DA:186,3
DA:188,0
DA:189,0
DA:190,0
DA:191,0
DA:192,0
DA:193,0
DA:194,0
DA:195,0
DA:196,0
DA:197,0
DA:198,0
DA:199,0
DA:201,0
DA:202,0
DA:203,0
DA:204,0
DA:205,0
DA:206,0
DA:207,0
DA:208,0
DA:209,0
DA:210,0
DA:211,0
DA:212,0
DA:214,0
DA:215,0
DA:216,0
DA:217,0
DA:218,0
DA:219,0
DA:220,0
DA:221,0
DA:222,0
DA:223,0
DA:224,0
DA:225,0
DA:226,0
DA:227,0
DA:228,0
DA:229,0
DA:230,0
DA:232,0
DA:233,0
DA:234,0
DA:235,0
DA:236,0
DA:237,0
DA:238,0
DA:239,0
DA:240,0
DA:241,0
DA:242,0
DA:243,0
DA:244,0
DA:245,0
DA:246,0
DA:247,0
DA:248,0
DA:250,0
DA:251,0
DA:252,0
DA:253,0
DA:254,0
DA:255,0
DA:256,0
DA:257,0
DA:259,0
DA:260,0
DA:261,0
DA:262,0
DA:263,0
DA:264,0
DA:265,0
DA:266,0
DA:268,0
DA:269,0
DA:270,0
DA:271,0
DA:272,0
DA:273,0
DA:274,0
DA:275,0
DA:276,0
DA:277,0
DA:278,0
DA:279,0
DA:281,0
DA:282,0
DA:283,0
DA:284,0
DA:285,0
DA:286,0
DA:287,0
DA:288,0
DA:289,0
DA:290,0
DA:291,0
DA:292,0
DA:294,0
DA:295,0
DA:296,0
DA:297,0
DA:298,0
DA:299,0
DA:300,0
DA:301,0
DA:302,0
DA:303,0
DA:304,0
DA:305,0
DA:307,0
DA:308,0
DA:309,0
DA:310,0
DA:311,0
DA:312,0
DA:313,0
DA:314,0
DA:315,0
DA:316,0
DA:317,0
DA:318,0
DA:320,0
DA:321,0
DA:322,0
DA:323,0
DA:324,0
DA:325,0
DA:326,0
DA:327,0
DA:328,0
DA:329,0
DA:330,0
DA:331,0
DA:333,0
DA:334,0
DA:335,0
DA:336,0
DA:337,0
DA:338,0
DA:339,0
DA:340,0
DA:341,0
DA:342,0
DA:343,0
DA:344,0
DA:346,0
DA:347,0
DA:348,0
DA:349,0
DA:350,0
DA:351,0
DA:352,0
DA:353,0
DA:354,0
DA:355,0
DA:356,0
DA:357,0
DA:359,0
DA:360,0
DA:361,0
DA:362,0
DA:363,0
DA:364,0
DA:365,0
DA:366,0
DA:367,0
DA:368,0
DA:369,0
DA:370,0
DA:372,0
DA:373,0
DA:374,0
DA:375,0
DA:376,0
DA:377,0
DA:378,0
DA:379,0
DA:380,0
DA:381,0
DA:382,0
DA:383,0
DA:391,0
DA:392,0
DA:393,0
DA:394,0
DA:395,0
DA:396,0
DA:397,0
DA:398,0
DA:399,0
DA:400,0
DA:401,0
DA:402,0
DA:411,0
DA:412,0
DA:413,0
DA:414,0
DA:415,0
DA:416,0
DA:417,0
DA:418,0
DA:419,0
DA:420,0
DA:421,0
DA:422,0
DA:430,0
DA:431,0
DA:432,0
DA:433,0
DA:434,0
DA:435,0
DA:436,0
DA:437,0
DA:438,0
DA:439,0
DA:440,0
DA:441,0
DA:447,0
DA:448,0
DA:449,0
DA:450,0
DA:451,0
DA:452,0
DA:453,0
DA:454,0
DA:456,0
DA:457,0
DA:458,0
DA:459,0
DA:460,0
DA:461,0
DA:462,0
DA:463,0
DA:465,0
DA:466,0
DA:467,0
DA:468,0
DA:469,0
DA:470,0
DA:471,0
DA:472,0
DA:474,0
DA:475,0
DA:476,0
DA:477,0
DA:478,0
DA:479,0
DA:480,0
DA:481,0
DA:483,0
DA:484,0
DA:485,0
DA:486,0
DA:487,0
DA:488,0
DA:489,0
DA:490,0
DA:491,0
DA:492,0
DA:493,0
DA:494,0
DA:496,0
DA:497,0
DA:498,0
DA:499,0
DA:500,0
DA:501,0
DA:502,0
DA:503,0
DA:505,0
DA:506,0
DA:507,0
DA:508,0
